
camera_bsp_driver.elf:     file format elf32-littlearm

Sections:
Idx Name          Size      VMA       LMA       File off  Algn
  0 .isr_vector   000002ac  08000000  08000000  00010000  2**0
                  CONTENTS, ALLOC, LOAD, READONLY, DATA
  1 .text         00008700  080002ac  080002ac  000102ac  2**2
                  CONTENTS, ALLOC, LOAD, READONLY, CODE
  2 .rodata       000005f0  080089ac  080089ac  000189ac  2**2
                  CONTENTS, ALLOC, LOAD, READONLY, DATA
  3 .ARM          00000008  08008f9c  08008f9c  00018f9c  2**2
                  CONTENTS, ALLOC, LOAD, READONLY, DATA
  4 .init_array   00000004  08008fa4  08008fa4  00018fa4  2**2
                  CONTENTS, ALLOC, LOAD, DATA
  5 .fini_array   00000004  08008fa8  08008fa8  00018fa8  2**2
                  CONTENTS, ALLOC, LOAD, DATA
  6 .data         000000b8  24000000  08008fac  00020000  2**2
                  CONTENTS, ALLOC, LOAD, DATA
  7 .bss          00000dc4  240000b8  08009064  000200b8  2**2
                  ALLOC
  8 ._user_heap_stack 00000604  24000e7c  08009064  00020e7c  2**0
                  ALLOC
  9 .ARM.attributes 0000002e  00000000  00000000  000200b8  2**0
                  CONTENTS, READONLY
 10 .comment      00000050  00000000  00000000  000200e6  2**0
                  CONTENTS, READONLY
 11 .debug_frame  000006d8  00000000  00000000  00020138  2**2
                  CONTENTS, READONLY, DEBUGGING, OCTETS

Disassembly of section .text:

080002ac <__do_global_dtors_aux>:
 80002ac:	b510      	push	{r4, lr}
 80002ae:	4c05      	ldr	r4, [pc, #20]	; (80002c4 <__do_global_dtors_aux+0x18>)
 80002b0:	7823      	ldrb	r3, [r4, #0]
 80002b2:	b933      	cbnz	r3, 80002c2 <__do_global_dtors_aux+0x16>
 80002b4:	4b04      	ldr	r3, [pc, #16]	; (80002c8 <__do_global_dtors_aux+0x1c>)
 80002b6:	b113      	cbz	r3, 80002be <__do_global_dtors_aux+0x12>
 80002b8:	4804      	ldr	r0, [pc, #16]	; (80002cc <__do_global_dtors_aux+0x20>)
 80002ba:	f3af 8000 	nop.w
 80002be:	2301      	movs	r3, #1
 80002c0:	7023      	strb	r3, [r4, #0]
 80002c2:	bd10      	pop	{r4, pc}
 80002c4:	240000b8 	.word	0x240000b8
 80002c8:	00000000 	.word	0x00000000
 80002cc:	08008994 	.word	0x08008994

080002d0 <frame_dummy>:
 80002d0:	b508      	push	{r3, lr}
 80002d2:	4b03      	ldr	r3, [pc, #12]	; (80002e0 <frame_dummy+0x10>)
 80002d4:	b11b      	cbz	r3, 80002de <frame_dummy+0xe>
 80002d6:	4903      	ldr	r1, [pc, #12]	; (80002e4 <frame_dummy+0x14>)
 80002d8:	4803      	ldr	r0, [pc, #12]	; (80002e8 <frame_dummy+0x18>)
 80002da:	f3af 8000 	nop.w
 80002de:	bd08      	pop	{r3, pc}
 80002e0:	00000000 	.word	0x00000000
 80002e4:	240000bc 	.word	0x240000bc
 80002e8:	08008994 	.word	0x08008994

080002ec <__aeabi_uldivmod>:
 80002ec:	b953      	cbnz	r3, 8000304 <__aeabi_uldivmod+0x18>
 80002ee:	b94a      	cbnz	r2, 8000304 <__aeabi_uldivmod+0x18>
 80002f0:	2900      	cmp	r1, #0
 80002f2:	bf08      	it	eq
 80002f4:	2800      	cmpeq	r0, #0
 80002f6:	bf1c      	itt	ne
 80002f8:	f04f 31ff 	movne.w	r1, #4294967295	; 0xffffffff
 80002fc:	f04f 30ff 	movne.w	r0, #4294967295	; 0xffffffff
 8000300:	f000 b974 	b.w	80005ec <__aeabi_idiv0>
 8000304:	f1ad 0c08 	sub.w	ip, sp, #8
 8000308:	e96d ce04 	strd	ip, lr, [sp, #-16]!
 800030c:	f000 f806 	bl	800031c <__udivmoddi4>
 8000310:	f8dd e004 	ldr.w	lr, [sp, #4]
 8000314:	e9dd 2302 	ldrd	r2, r3, [sp, #8]
 8000318:	b004      	add	sp, #16
 800031a:	4770      	bx	lr

0800031c <__udivmoddi4>:
 800031c:	e92d 47f0 	stmdb	sp!, {r4, r5, r6, r7, r8, r9, sl, lr}
 8000320:	9d08      	ldr	r5, [sp, #32]
 8000322:	4604      	mov	r4, r0
 8000324:	468e      	mov	lr, r1
 8000326:	2b00      	cmp	r3, #0
 8000328:	d14d      	bne.n	80003c6 <__udivmoddi4+0xaa>
 800032a:	428a      	cmp	r2, r1
 800032c:	4694      	mov	ip, r2
 800032e:	d969      	bls.n	8000404 <__udivmoddi4+0xe8>
 8000330:	fab2 f282 	clz	r2, r2
 8000334:	b152      	cbz	r2, 800034c <__udivmoddi4+0x30>
 8000336:	fa01 f302 	lsl.w	r3, r1, r2
 800033a:	f1c2 0120 	rsb	r1, r2, #32
 800033e:	fa20 f101 	lsr.w	r1, r0, r1
 8000342:	fa0c fc02 	lsl.w	ip, ip, r2
 8000346:	ea41 0e03 	orr.w	lr, r1, r3
 800034a:	4094      	lsls	r4, r2
 800034c:	ea4f 481c 	mov.w	r8, ip, lsr #16
 8000350:	0c21      	lsrs	r1, r4, #16
 8000352:	fbbe f6f8 	udiv	r6, lr, r8
 8000356:	fa1f f78c 	uxth.w	r7, ip
 800035a:	fb08 e316 	mls	r3, r8, r6, lr
 800035e:	ea41 4303 	orr.w	r3, r1, r3, lsl #16
 8000362:	fb06 f107 	mul.w	r1, r6, r7
 8000366:	4299      	cmp	r1, r3
 8000368:	d90a      	bls.n	8000380 <__udivmoddi4+0x64>
 800036a:	eb1c 0303 	adds.w	r3, ip, r3
 800036e:	f106 30ff 	add.w	r0, r6, #4294967295	; 0xffffffff
 8000372:	f080 811f 	bcs.w	80005b4 <__udivmoddi4+0x298>
 8000376:	4299      	cmp	r1, r3
 8000378:	f240 811c 	bls.w	80005b4 <__udivmoddi4+0x298>
 800037c:	3e02      	subs	r6, #2
 800037e:	4463      	add	r3, ip
 8000380:	1a5b      	subs	r3, r3, r1
 8000382:	b2a4      	uxth	r4, r4
 8000384:	fbb3 f0f8 	udiv	r0, r3, r8
 8000388:	fb08 3310 	mls	r3, r8, r0, r3
 800038c:	ea44 4403 	orr.w	r4, r4, r3, lsl #16
 8000390:	fb00 f707 	mul.w	r7, r0, r7
 8000394:	42a7      	cmp	r7, r4
 8000396:	d90a      	bls.n	80003ae <__udivmoddi4+0x92>
 8000398:	eb1c 0404 	adds.w	r4, ip, r4
 800039c:	f100 33ff 	add.w	r3, r0, #4294967295	; 0xffffffff
 80003a0:	f080 810a 	bcs.w	80005b8 <__udivmoddi4+0x29c>
 80003a4:	42a7      	cmp	r7, r4
 80003a6:	f240 8107 	bls.w	80005b8 <__udivmoddi4+0x29c>
 80003aa:	4464      	add	r4, ip
 80003ac:	3802      	subs	r0, #2
 80003ae:	ea40 4006 	orr.w	r0, r0, r6, lsl #16
 80003b2:	1be4      	subs	r4, r4, r7
 80003b4:	2600      	movs	r6, #0
 80003b6:	b11d      	cbz	r5, 80003c0 <__udivmoddi4+0xa4>
 80003b8:	40d4      	lsrs	r4, r2
 80003ba:	2300      	movs	r3, #0
 80003bc:	e9c5 4300 	strd	r4, r3, [r5]
 80003c0:	4631      	mov	r1, r6
 80003c2:	e8bd 87f0 	ldmia.w	sp!, {r4, r5, r6, r7, r8, r9, sl, pc}
 80003c6:	428b      	cmp	r3, r1
 80003c8:	d909      	bls.n	80003de <__udivmoddi4+0xc2>
 80003ca:	2d00      	cmp	r5, #0
 80003cc:	f000 80ef 	beq.w	80005ae <__udivmoddi4+0x292>
 80003d0:	2600      	movs	r6, #0
 80003d2:	e9c5 0100 	strd	r0, r1, [r5]
 80003d6:	4630      	mov	r0, r6
 80003d8:	4631      	mov	r1, r6
 80003da:	e8bd 87f0 	ldmia.w	sp!, {r4, r5, r6, r7, r8, r9, sl, pc}
 80003de:	fab3 f683 	clz	r6, r3
 80003e2:	2e00      	cmp	r6, #0
 80003e4:	d14a      	bne.n	800047c <__udivmoddi4+0x160>
 80003e6:	428b      	cmp	r3, r1
 80003e8:	d302      	bcc.n	80003f0 <__udivmoddi4+0xd4>
 80003ea:	4282      	cmp	r2, r0
 80003ec:	f200 80f9 	bhi.w	80005e2 <__udivmoddi4+0x2c6>
 80003f0:	1a84      	subs	r4, r0, r2
 80003f2:	eb61 0303 	sbc.w	r3, r1, r3
 80003f6:	2001      	movs	r0, #1
 80003f8:	469e      	mov	lr, r3
 80003fa:	2d00      	cmp	r5, #0
 80003fc:	d0e0      	beq.n	80003c0 <__udivmoddi4+0xa4>
 80003fe:	e9c5 4e00 	strd	r4, lr, [r5]
 8000402:	e7dd      	b.n	80003c0 <__udivmoddi4+0xa4>
 8000404:	b902      	cbnz	r2, 8000408 <__udivmoddi4+0xec>
 8000406:	deff      	udf	#255	; 0xff
 8000408:	fab2 f282 	clz	r2, r2
 800040c:	2a00      	cmp	r2, #0
 800040e:	f040 8092 	bne.w	8000536 <__udivmoddi4+0x21a>
 8000412:	eba1 010c 	sub.w	r1, r1, ip
 8000416:	ea4f 471c 	mov.w	r7, ip, lsr #16
 800041a:	fa1f fe8c 	uxth.w	lr, ip
 800041e:	2601      	movs	r6, #1
 8000420:	0c20      	lsrs	r0, r4, #16
 8000422:	fbb1 f3f7 	udiv	r3, r1, r7
 8000426:	fb07 1113 	mls	r1, r7, r3, r1
 800042a:	ea40 4101 	orr.w	r1, r0, r1, lsl #16
 800042e:	fb0e f003 	mul.w	r0, lr, r3
 8000432:	4288      	cmp	r0, r1
 8000434:	d908      	bls.n	8000448 <__udivmoddi4+0x12c>
 8000436:	eb1c 0101 	adds.w	r1, ip, r1
 800043a:	f103 38ff 	add.w	r8, r3, #4294967295	; 0xffffffff
 800043e:	d202      	bcs.n	8000446 <__udivmoddi4+0x12a>
 8000440:	4288      	cmp	r0, r1
 8000442:	f200 80cb 	bhi.w	80005dc <__udivmoddi4+0x2c0>
 8000446:	4643      	mov	r3, r8
 8000448:	1a09      	subs	r1, r1, r0
 800044a:	b2a4      	uxth	r4, r4
 800044c:	fbb1 f0f7 	udiv	r0, r1, r7
 8000450:	fb07 1110 	mls	r1, r7, r0, r1
 8000454:	ea44 4401 	orr.w	r4, r4, r1, lsl #16
 8000458:	fb0e fe00 	mul.w	lr, lr, r0
 800045c:	45a6      	cmp	lr, r4
 800045e:	d908      	bls.n	8000472 <__udivmoddi4+0x156>
 8000460:	eb1c 0404 	adds.w	r4, ip, r4
 8000464:	f100 31ff 	add.w	r1, r0, #4294967295	; 0xffffffff
 8000468:	d202      	bcs.n	8000470 <__udivmoddi4+0x154>
 800046a:	45a6      	cmp	lr, r4
 800046c:	f200 80bb 	bhi.w	80005e6 <__udivmoddi4+0x2ca>
 8000470:	4608      	mov	r0, r1
 8000472:	eba4 040e 	sub.w	r4, r4, lr
 8000476:	ea40 4003 	orr.w	r0, r0, r3, lsl #16
 800047a:	e79c      	b.n	80003b6 <__udivmoddi4+0x9a>
 800047c:	f1c6 0720 	rsb	r7, r6, #32
 8000480:	40b3      	lsls	r3, r6
 8000482:	fa22 fc07 	lsr.w	ip, r2, r7
 8000486:	ea4c 0c03 	orr.w	ip, ip, r3
 800048a:	fa20 f407 	lsr.w	r4, r0, r7
 800048e:	fa01 f306 	lsl.w	r3, r1, r6
 8000492:	431c      	orrs	r4, r3
 8000494:	40f9      	lsrs	r1, r7
 8000496:	ea4f 491c 	mov.w	r9, ip, lsr #16
 800049a:	fa00 f306 	lsl.w	r3, r0, r6
 800049e:	fbb1 f8f9 	udiv	r8, r1, r9
 80004a2:	0c20      	lsrs	r0, r4, #16
 80004a4:	fa1f fe8c 	uxth.w	lr, ip
 80004a8:	fb09 1118 	mls	r1, r9, r8, r1
 80004ac:	ea40 4101 	orr.w	r1, r0, r1, lsl #16
 80004b0:	fb08 f00e 	mul.w	r0, r8, lr
 80004b4:	4288      	cmp	r0, r1
 80004b6:	fa02 f206 	lsl.w	r2, r2, r6
 80004ba:	d90b      	bls.n	80004d4 <__udivmoddi4+0x1b8>
 80004bc:	eb1c 0101 	adds.w	r1, ip, r1
 80004c0:	f108 3aff 	add.w	sl, r8, #4294967295	; 0xffffffff
 80004c4:	f080 8088 	bcs.w	80005d8 <__udivmoddi4+0x2bc>
 80004c8:	4288      	cmp	r0, r1
 80004ca:	f240 8085 	bls.w	80005d8 <__udivmoddi4+0x2bc>
 80004ce:	f1a8 0802 	sub.w	r8, r8, #2
 80004d2:	4461      	add	r1, ip
 80004d4:	1a09      	subs	r1, r1, r0
 80004d6:	b2a4      	uxth	r4, r4
 80004d8:	fbb1 f0f9 	udiv	r0, r1, r9
 80004dc:	fb09 1110 	mls	r1, r9, r0, r1
 80004e0:	ea44 4101 	orr.w	r1, r4, r1, lsl #16
 80004e4:	fb00 fe0e 	mul.w	lr, r0, lr
 80004e8:	458e      	cmp	lr, r1
 80004ea:	d908      	bls.n	80004fe <__udivmoddi4+0x1e2>
 80004ec:	eb1c 0101 	adds.w	r1, ip, r1
 80004f0:	f100 34ff 	add.w	r4, r0, #4294967295	; 0xffffffff
 80004f4:	d26c      	bcs.n	80005d0 <__udivmoddi4+0x2b4>
 80004f6:	458e      	cmp	lr, r1
 80004f8:	d96a      	bls.n	80005d0 <__udivmoddi4+0x2b4>
 80004fa:	3802      	subs	r0, #2
 80004fc:	4461      	add	r1, ip
 80004fe:	ea40 4008 	orr.w	r0, r0, r8, lsl #16
 8000502:	fba0 9402 	umull	r9, r4, r0, r2
 8000506:	eba1 010e 	sub.w	r1, r1, lr
 800050a:	42a1      	cmp	r1, r4
 800050c:	46c8      	mov	r8, r9
 800050e:	46a6      	mov	lr, r4
 8000510:	d356      	bcc.n	80005c0 <__udivmoddi4+0x2a4>
 8000512:	d053      	beq.n	80005bc <__udivmoddi4+0x2a0>
 8000514:	b15d      	cbz	r5, 800052e <__udivmoddi4+0x212>
 8000516:	ebb3 0208 	subs.w	r2, r3, r8
 800051a:	eb61 010e 	sbc.w	r1, r1, lr
 800051e:	fa01 f707 	lsl.w	r7, r1, r7
 8000522:	fa22 f306 	lsr.w	r3, r2, r6
 8000526:	40f1      	lsrs	r1, r6
 8000528:	431f      	orrs	r7, r3
 800052a:	e9c5 7100 	strd	r7, r1, [r5]
 800052e:	2600      	movs	r6, #0
 8000530:	4631      	mov	r1, r6
 8000532:	e8bd 87f0 	ldmia.w	sp!, {r4, r5, r6, r7, r8, r9, sl, pc}
 8000536:	f1c2 0320 	rsb	r3, r2, #32
 800053a:	40d8      	lsrs	r0, r3
 800053c:	fa0c fc02 	lsl.w	ip, ip, r2
 8000540:	fa21 f303 	lsr.w	r3, r1, r3
 8000544:	4091      	lsls	r1, r2
 8000546:	4301      	orrs	r1, r0
 8000548:	ea4f 471c 	mov.w	r7, ip, lsr #16
 800054c:	fa1f fe8c 	uxth.w	lr, ip
 8000550:	fbb3 f0f7 	udiv	r0, r3, r7
 8000554:	fb07 3610 	mls	r6, r7, r0, r3
 8000558:	0c0b      	lsrs	r3, r1, #16
 800055a:	ea43 4306 	orr.w	r3, r3, r6, lsl #16
 800055e:	fb00 f60e 	mul.w	r6, r0, lr
 8000562:	429e      	cmp	r6, r3
 8000564:	fa04 f402 	lsl.w	r4, r4, r2
 8000568:	d908      	bls.n	800057c <__udivmoddi4+0x260>
 800056a:	eb1c 0303 	adds.w	r3, ip, r3
 800056e:	f100 38ff 	add.w	r8, r0, #4294967295	; 0xffffffff
 8000572:	d22f      	bcs.n	80005d4 <__udivmoddi4+0x2b8>
 8000574:	429e      	cmp	r6, r3
 8000576:	d92d      	bls.n	80005d4 <__udivmoddi4+0x2b8>
 8000578:	3802      	subs	r0, #2
 800057a:	4463      	add	r3, ip
 800057c:	1b9b      	subs	r3, r3, r6
 800057e:	b289      	uxth	r1, r1
 8000580:	fbb3 f6f7 	udiv	r6, r3, r7
 8000584:	fb07 3316 	mls	r3, r7, r6, r3
 8000588:	ea41 4103 	orr.w	r1, r1, r3, lsl #16
 800058c:	fb06 f30e 	mul.w	r3, r6, lr
 8000590:	428b      	cmp	r3, r1
 8000592:	d908      	bls.n	80005a6 <__udivmoddi4+0x28a>
 8000594:	eb1c 0101 	adds.w	r1, ip, r1
 8000598:	f106 38ff 	add.w	r8, r6, #4294967295	; 0xffffffff
 800059c:	d216      	bcs.n	80005cc <__udivmoddi4+0x2b0>
 800059e:	428b      	cmp	r3, r1
 80005a0:	d914      	bls.n	80005cc <__udivmoddi4+0x2b0>
 80005a2:	3e02      	subs	r6, #2
 80005a4:	4461      	add	r1, ip
 80005a6:	1ac9      	subs	r1, r1, r3
 80005a8:	ea46 4600 	orr.w	r6, r6, r0, lsl #16
 80005ac:	e738      	b.n	8000420 <__udivmoddi4+0x104>
 80005ae:	462e      	mov	r6, r5
 80005b0:	4628      	mov	r0, r5
 80005b2:	e705      	b.n	80003c0 <__udivmoddi4+0xa4>
 80005b4:	4606      	mov	r6, r0
 80005b6:	e6e3      	b.n	8000380 <__udivmoddi4+0x64>
 80005b8:	4618      	mov	r0, r3
 80005ba:	e6f8      	b.n	80003ae <__udivmoddi4+0x92>
 80005bc:	454b      	cmp	r3, r9
 80005be:	d2a9      	bcs.n	8000514 <__udivmoddi4+0x1f8>
 80005c0:	ebb9 0802 	subs.w	r8, r9, r2
 80005c4:	eb64 0e0c 	sbc.w	lr, r4, ip
 80005c8:	3801      	subs	r0, #1
 80005ca:	e7a3      	b.n	8000514 <__udivmoddi4+0x1f8>
 80005cc:	4646      	mov	r6, r8
 80005ce:	e7ea      	b.n	80005a6 <__udivmoddi4+0x28a>
 80005d0:	4620      	mov	r0, r4
 80005d2:	e794      	b.n	80004fe <__udivmoddi4+0x1e2>
 80005d4:	4640      	mov	r0, r8
 80005d6:	e7d1      	b.n	800057c <__udivmoddi4+0x260>
 80005d8:	46d0      	mov	r8, sl
 80005da:	e77b      	b.n	80004d4 <__udivmoddi4+0x1b8>
 80005dc:	3b02      	subs	r3, #2
 80005de:	4461      	add	r1, ip
 80005e0:	e732      	b.n	8000448 <__udivmoddi4+0x12c>
 80005e2:	4630      	mov	r0, r6
 80005e4:	e709      	b.n	80003fa <__udivmoddi4+0xde>
 80005e6:	4464      	add	r4, ip
 80005e8:	3802      	subs	r0, #2
 80005ea:	e742      	b.n	8000472 <__udivmoddi4+0x156>

080005ec <__aeabi_idiv0>:
 80005ec:	4770      	bx	lr
 80005ee:	bf00      	nop

080005f0 <MX_DCMI_Init>:
 80005f0:	b508      	push	{r3, lr}
 80005f2:	480d      	ldr	r0, [pc, #52]	; (8000628 <MX_DCMI_Init+0x38>)
 80005f4:	2300      	movs	r3, #0
 80005f6:	4a0d      	ldr	r2, [pc, #52]	; (800062c <MX_DCMI_Init+0x3c>)
 80005f8:	2120      	movs	r1, #32
 80005fa:	6183      	str	r3, [r0, #24]
 80005fc:	6303      	str	r3, [r0, #48]	; 0x30
 80005fe:	e9c0 2300 	strd	r2, r3, [r0]
 8000602:	2280      	movs	r2, #128	; 0x80
 8000604:	e9c0 1202 	strd	r1, r2, [r0, #8]
 8000608:	2240      	movs	r2, #64	; 0x40
 800060a:	e9c0 3308 	strd	r3, r3, [r0, #32]
 800060e:	e9c0 2304 	strd	r2, r3, [r0, #16]
 8000612:	e9c0 330a 	strd	r3, r3, [r0, #40]	; 0x28
 8000616:	f002 fb05 	bl	8002c24 <HAL_DCMI_Init>
 800061a:	b118      	cbz	r0, 8000624 <MX_DCMI_Init+0x34>
 800061c:	e8bd 4008 	ldmia.w	sp!, {r3, lr}
 8000620:	f000 bdbc 	b.w	800119c <Error_Handler>
 8000624:	bd08      	pop	{r3, pc}
 8000626:	bf00      	nop
 8000628:	240000d4 	.word	0x240000d4
 800062c:	48020000 	.word	0x48020000

08000630 <HAL_DCMI_MspInit>:
 8000630:	e92d 41f0 	stmdb	sp!, {r4, r5, r6, r7, r8, lr}
 8000634:	b08c      	sub	sp, #48	; 0x30
 8000636:	4606      	mov	r6, r0
 8000638:	2214      	movs	r2, #20
 800063a:	2100      	movs	r1, #0
 800063c:	a807      	add	r0, sp, #28
 800063e:	f007 fd5b 	bl	80080f8 <memset>
 8000642:	6832      	ldr	r2, [r6, #0]
 8000644:	4b54      	ldr	r3, [pc, #336]	; (8000798 <HAL_DCMI_MspInit+0x168>)
 8000646:	429a      	cmp	r2, r3
 8000648:	f040 80a3 	bne.w	8000792 <HAL_DCMI_MspInit+0x162>
 800064c:	4b53      	ldr	r3, [pc, #332]	; (800079c <HAL_DCMI_MspInit+0x16c>)
 800064e:	240d      	movs	r4, #13
 8000650:	2702      	movs	r7, #2
 8000652:	2500      	movs	r5, #0
 8000654:	f8d3 213c 	ldr.w	r2, [r3, #316]	; 0x13c
 8000658:	a907      	add	r1, sp, #28
 800065a:	4851      	ldr	r0, [pc, #324]	; (80007a0 <HAL_DCMI_MspInit+0x170>)
 800065c:	f44f 6880 	mov.w	r8, #1024	; 0x400
 8000660:	f042 0201 	orr.w	r2, r2, #1
 8000664:	f8c3 213c 	str.w	r2, [r3, #316]	; 0x13c
 8000668:	f8d3 213c 	ldr.w	r2, [r3, #316]	; 0x13c
 800066c:	f002 0201 	and.w	r2, r2, #1
 8000670:	9201      	str	r2, [sp, #4]
 8000672:	9a01      	ldr	r2, [sp, #4]
 8000674:	f8d3 2140 	ldr.w	r2, [r3, #320]	; 0x140
 8000678:	f042 0202 	orr.w	r2, r2, #2
 800067c:	f8c3 2140 	str.w	r2, [r3, #320]	; 0x140
 8000680:	f8d3 2140 	ldr.w	r2, [r3, #320]	; 0x140
 8000684:	f002 0202 	and.w	r2, r2, #2
 8000688:	9202      	str	r2, [sp, #8]
 800068a:	9a02      	ldr	r2, [sp, #8]
 800068c:	f8d3 2140 	ldr.w	r2, [r3, #320]	; 0x140
 8000690:	f042 0240 	orr.w	r2, r2, #64	; 0x40
 8000694:	f8c3 2140 	str.w	r2, [r3, #320]	; 0x140
 8000698:	f8d3 2140 	ldr.w	r2, [r3, #320]	; 0x140
 800069c:	f002 0240 	and.w	r2, r2, #64	; 0x40
 80006a0:	9203      	str	r2, [sp, #12]
 80006a2:	9a03      	ldr	r2, [sp, #12]
 80006a4:	f8d3 2140 	ldr.w	r2, [r3, #320]	; 0x140
 80006a8:	f042 0208 	orr.w	r2, r2, #8
 80006ac:	f8c3 2140 	str.w	r2, [r3, #320]	; 0x140
 80006b0:	f8d3 2140 	ldr.w	r2, [r3, #320]	; 0x140
 80006b4:	f002 0208 	and.w	r2, r2, #8
 80006b8:	9204      	str	r2, [sp, #16]
 80006ba:	9a04      	ldr	r2, [sp, #16]
 80006bc:	f8d3 2140 	ldr.w	r2, [r3, #320]	; 0x140
 80006c0:	f042 0204 	orr.w	r2, r2, #4
 80006c4:	f8c3 2140 	str.w	r2, [r3, #320]	; 0x140
 80006c8:	f8d3 2140 	ldr.w	r2, [r3, #320]	; 0x140
 80006cc:	f002 0204 	and.w	r2, r2, #4
 80006d0:	9205      	str	r2, [sp, #20]
 80006d2:	9a05      	ldr	r2, [sp, #20]
 80006d4:	f8d3 2140 	ldr.w	r2, [r3, #320]	; 0x140
 80006d8:	f042 0201 	orr.w	r2, r2, #1
 80006dc:	f8c3 2140 	str.w	r2, [r3, #320]	; 0x140
 80006e0:	f8d3 3140 	ldr.w	r3, [r3, #320]	; 0x140
 80006e4:	f003 0301 	and.w	r3, r3, #1
 80006e8:	9306      	str	r3, [sp, #24]
 80006ea:	9b06      	ldr	r3, [sp, #24]
 80006ec:	f44f 7360 	mov.w	r3, #896	; 0x380
 80006f0:	e9cd 3707 	strd	r3, r7, [sp, #28]
 80006f4:	940b      	str	r4, [sp, #44]	; 0x2c
 80006f6:	f004 f9c5 	bl	8004a84 <HAL_GPIO_Init>
 80006fa:	a907      	add	r1, sp, #28
 80006fc:	4829      	ldr	r0, [pc, #164]	; (80007a4 <HAL_DCMI_MspInit+0x174>)
 80006fe:	940b      	str	r4, [sp, #44]	; 0x2c
 8000700:	e9cd 8707 	strd	r8, r7, [sp, #28]
 8000704:	e9cd 5509 	strd	r5, r5, [sp, #36]	; 0x24
 8000708:	f004 f9bc 	bl	8004a84 <HAL_GPIO_Init>
 800070c:	2308      	movs	r3, #8
 800070e:	a907      	add	r1, sp, #28
 8000710:	4825      	ldr	r0, [pc, #148]	; (80007a8 <HAL_DCMI_MspInit+0x178>)
 8000712:	940b      	str	r4, [sp, #44]	; 0x2c
 8000714:	e9cd 3707 	strd	r3, r7, [sp, #28]
 8000718:	e9cd 5509 	strd	r5, r5, [sp, #36]	; 0x24
 800071c:	f004 f9b2 	bl	8004a84 <HAL_GPIO_Init>
 8000720:	f44f 632c 	mov.w	r3, #2752	; 0xac0
 8000724:	a907      	add	r1, sp, #28
 8000726:	4821      	ldr	r0, [pc, #132]	; (80007ac <HAL_DCMI_MspInit+0x17c>)
 8000728:	940b      	str	r4, [sp, #44]	; 0x2c
 800072a:	e9cd 3707 	strd	r3, r7, [sp, #28]
 800072e:	e9cd 5509 	strd	r5, r5, [sp, #36]	; 0x24
 8000732:	f004 f9a7 	bl	8004a84 <HAL_GPIO_Init>
 8000736:	2350      	movs	r3, #80	; 0x50
 8000738:	a907      	add	r1, sp, #28
 800073a:	481d      	ldr	r0, [pc, #116]	; (80007b0 <HAL_DCMI_MspInit+0x180>)
 800073c:	940b      	str	r4, [sp, #44]	; 0x2c
 800073e:	4c1d      	ldr	r4, [pc, #116]	; (80007b4 <HAL_DCMI_MspInit+0x184>)
 8000740:	e9cd 3707 	strd	r3, r7, [sp, #28]
 8000744:	e9cd 5509 	strd	r5, r5, [sp, #36]	; 0x24
 8000748:	f004 f99c 	bl	8004a84 <HAL_GPIO_Init>
 800074c:	234b      	movs	r3, #75	; 0x4b
 800074e:	4a1a      	ldr	r2, [pc, #104]	; (80007b8 <HAL_DCMI_MspInit+0x188>)
 8000750:	f44f 5180 	mov.w	r1, #4096	; 0x1000
 8000754:	4620      	mov	r0, r4
 8000756:	f8c4 8010 	str.w	r8, [r4, #16]
 800075a:	61e5      	str	r5, [r4, #28]
 800075c:	e9c4 2300 	strd	r2, r3, [r4]
 8000760:	f44f 4380 	mov.w	r3, #16384	; 0x4000
 8000764:	e9c4 1305 	strd	r1, r3, [r4, #20]
 8000768:	f44f 3300 	mov.w	r3, #131072	; 0x20000
 800076c:	e9c4 5502 	strd	r5, r5, [r4, #8]
 8000770:	e9c4 3508 	strd	r3, r5, [r4, #32]
 8000774:	f002 fd4c 	bl	8003210 <HAL_DMA_Init>
 8000778:	b108      	cbz	r0, 800077e <HAL_DCMI_MspInit+0x14e>
 800077a:	f000 fd0f 	bl	800119c <Error_Handler>
 800077e:	2200      	movs	r2, #0
 8000780:	204e      	movs	r0, #78	; 0x4e
 8000782:	64b4      	str	r4, [r6, #72]	; 0x48
 8000784:	4611      	mov	r1, r2
 8000786:	63a6      	str	r6, [r4, #56]	; 0x38
 8000788:	f002 f9ba 	bl	8002b00 <HAL_NVIC_SetPriority>
 800078c:	204e      	movs	r0, #78	; 0x4e
 800078e:	f002 f9e9 	bl	8002b64 <HAL_NVIC_EnableIRQ>
 8000792:	b00c      	add	sp, #48	; 0x30
 8000794:	e8bd 81f0 	ldmia.w	sp!, {r4, r5, r6, r7, r8, pc}
 8000798:	48020000 	.word	0x48020000
 800079c:	58024400 	.word	0x58024400
 80007a0:	58020400 	.word	0x58020400
 80007a4:	58021800 	.word	0x58021800
 80007a8:	58020c00 	.word	0x58020c00
 80007ac:	58020800 	.word	0x58020800
 80007b0:	58020000 	.word	0x58020000
 80007b4:	24000124 	.word	0x24000124
 80007b8:	40020428 	.word	0x40020428

080007bc <MX_DMA_Init>:
 80007bc:	4b0c      	ldr	r3, [pc, #48]	; (80007f0 <MX_DMA_Init+0x34>)
 80007be:	b507      	push	{r0, r1, r2, lr}
 80007c0:	f8d3 2138 	ldr.w	r2, [r3, #312]	; 0x138
 80007c4:	2039      	movs	r0, #57	; 0x39
 80007c6:	f042 0202 	orr.w	r2, r2, #2
 80007ca:	f8c3 2138 	str.w	r2, [r3, #312]	; 0x138
 80007ce:	2200      	movs	r2, #0
 80007d0:	f8d3 3138 	ldr.w	r3, [r3, #312]	; 0x138
 80007d4:	4611      	mov	r1, r2
 80007d6:	f003 0302 	and.w	r3, r3, #2
 80007da:	9301      	str	r3, [sp, #4]
 80007dc:	9b01      	ldr	r3, [sp, #4]
 80007de:	f002 f98f 	bl	8002b00 <HAL_NVIC_SetPriority>
 80007e2:	2039      	movs	r0, #57	; 0x39
 80007e4:	b003      	add	sp, #12
 80007e6:	f85d eb04 	ldr.w	lr, [sp], #4
 80007ea:	f002 b9bb 	b.w	8002b64 <HAL_NVIC_EnableIRQ>
 80007ee:	bf00      	nop
 80007f0:	58024400 	.word	0x58024400

080007f4 <MX_DMA2D_Init>:
 80007f4:	b508      	push	{r3, lr}
 80007f6:	4810      	ldr	r0, [pc, #64]	; (8000838 <MX_DMA2D_Init+0x44>)
 80007f8:	f44f 3380 	mov.w	r3, #65536	; 0x10000
 80007fc:	4a0f      	ldr	r2, [pc, #60]	; (800083c <MX_DMA2D_Init+0x48>)
 80007fe:	e9c0 2300 	strd	r2, r3, [r0]
 8000802:	2300      	movs	r3, #0
 8000804:	2201      	movs	r2, #1
 8000806:	e9c0 3313 	strd	r3, r3, [r0, #76]	; 0x4c
 800080a:	e9c0 3211 	strd	r3, r2, [r0, #68]	; 0x44
 800080e:	e9c0 3315 	strd	r3, r3, [r0, #84]	; 0x54
 8000812:	65c3      	str	r3, [r0, #92]	; 0x5c
 8000814:	e9c0 2302 	strd	r2, r3, [r0, #8]
 8000818:	f003 fd5f 	bl	80042da <HAL_DMA2D_Init>
 800081c:	b108      	cbz	r0, 8000822 <MX_DMA2D_Init+0x2e>
 800081e:	f000 fcbd 	bl	800119c <Error_Handler>
 8000822:	2101      	movs	r1, #1
 8000824:	4804      	ldr	r0, [pc, #16]	; (8000838 <MX_DMA2D_Init+0x44>)
 8000826:	f003 febd 	bl	80045a4 <HAL_DMA2D_ConfigLayer>
 800082a:	b118      	cbz	r0, 8000834 <MX_DMA2D_Init+0x40>
 800082c:	e8bd 4008 	ldmia.w	sp!, {r3, lr}
 8000830:	f000 bcb4 	b.w	800119c <Error_Handler>
 8000834:	bd08      	pop	{r3, pc}
 8000836:	bf00      	nop
 8000838:	2400019c 	.word	0x2400019c
 800083c:	52001000 	.word	0x52001000

08000840 <HAL_DMA2D_MspInit>:
 8000840:	4b0f      	ldr	r3, [pc, #60]	; (8000880 <HAL_DMA2D_MspInit+0x40>)
 8000842:	b507      	push	{r0, r1, r2, lr}
 8000844:	6802      	ldr	r2, [r0, #0]
 8000846:	429a      	cmp	r2, r3
 8000848:	d117      	bne.n	800087a <HAL_DMA2D_MspInit+0x3a>
 800084a:	4b0e      	ldr	r3, [pc, #56]	; (8000884 <HAL_DMA2D_MspInit+0x44>)
 800084c:	205a      	movs	r0, #90	; 0x5a
 800084e:	f8d3 2134 	ldr.w	r2, [r3, #308]	; 0x134
 8000852:	f042 0210 	orr.w	r2, r2, #16
 8000856:	f8c3 2134 	str.w	r2, [r3, #308]	; 0x134
 800085a:	2200      	movs	r2, #0
 800085c:	f8d3 3134 	ldr.w	r3, [r3, #308]	; 0x134
 8000860:	4611      	mov	r1, r2
 8000862:	f003 0310 	and.w	r3, r3, #16
 8000866:	9301      	str	r3, [sp, #4]
 8000868:	9b01      	ldr	r3, [sp, #4]
 800086a:	f002 f949 	bl	8002b00 <HAL_NVIC_SetPriority>
 800086e:	205a      	movs	r0, #90	; 0x5a
 8000870:	b003      	add	sp, #12
 8000872:	f85d eb04 	ldr.w	lr, [sp], #4
 8000876:	f002 b975 	b.w	8002b64 <HAL_NVIC_EnableIRQ>
 800087a:	b003      	add	sp, #12
 800087c:	f85d fb04 	ldr.w	pc, [sp], #4
 8000880:	52001000 	.word	0x52001000
 8000884:	58024400 	.word	0x58024400

08000888 <DMA2D_Convert>:
 8000888:	f44f 7388 	mov.w	r3, #272	; 0x110
 800088c:	b507      	push	{r0, r1, r2, lr}
 800088e:	460a      	mov	r2, r1
 8000890:	9300      	str	r3, [sp, #0]
 8000892:	4601      	mov	r1, r0
 8000894:	f44f 73f0 	mov.w	r3, #480	; 0x1e0
 8000898:	4809      	ldr	r0, [pc, #36]	; (80008c0 <DMA2D_Convert+0x38>)
 800089a:	f003 fd5b 	bl	8004354 <HAL_DMA2D_Start>
 800089e:	b108      	cbz	r0, 80008a4 <DMA2D_Convert+0x1c>
 80008a0:	f000 fc7c 	bl	800119c <Error_Handler>
 80008a4:	f44f 717a 	mov.w	r1, #1000	; 0x3e8
 80008a8:	4805      	ldr	r0, [pc, #20]	; (80008c0 <DMA2D_Convert+0x38>)
 80008aa:	f003 fd6d 	bl	8004388 <HAL_DMA2D_PollForTransfer>
 80008ae:	b120      	cbz	r0, 80008ba <DMA2D_Convert+0x32>
 80008b0:	b003      	add	sp, #12
 80008b2:	f85d eb04 	ldr.w	lr, [sp], #4
 80008b6:	f000 bc71 	b.w	800119c <Error_Handler>
 80008ba:	b003      	add	sp, #12
 80008bc:	f85d fb04 	ldr.w	pc, [sp], #4
 80008c0:	2400019c 	.word	0x2400019c

080008c4 <MX_FMC_Init>:
 80008c4:	b510      	push	{r4, lr}
 80008c6:	4830      	ldr	r0, [pc, #192]	; (8000988 <MX_FMC_Init+0xc4>)
 80008c8:	2401      	movs	r4, #1
 80008ca:	4b30      	ldr	r3, [pc, #192]	; (800098c <MX_FMC_Init+0xc8>)
 80008cc:	2104      	movs	r1, #4
 80008ce:	f04f 0c40 	mov.w	ip, #64	; 0x40
 80008d2:	f04f 0e00 	mov.w	lr, #0
 80008d6:	f44f 5280 	mov.w	r2, #4096	; 0x1000
 80008da:	b08c      	sub	sp, #48	; 0x30
 80008dc:	6084      	str	r4, [r0, #8]
 80008de:	e9c0 3400 	strd	r3, r4, [r0]
 80008e2:	2310      	movs	r3, #16
 80008e4:	e9c0 1303 	strd	r1, r3, [r0, #12]
 80008e8:	f44f 7380 	mov.w	r3, #256	; 0x100
 80008ec:	2105      	movs	r1, #5
 80008ee:	e9c0 c305 	strd	ip, r3, [r0, #20]
 80008f2:	f44f 6300 	mov.w	r3, #2048	; 0x800
 80008f6:	e9c0 e307 	strd	lr, r3, [r0, #28]
 80008fa:	f44f 4380 	mov.w	r3, #16384	; 0x4000
 80008fe:	e9c0 2309 	strd	r2, r3, [r0, #36]	; 0x24
 8000902:	2302      	movs	r3, #2
 8000904:	2207      	movs	r2, #7
 8000906:	e9cd 3205 	strd	r3, r2, [sp, #20]
 800090a:	2206      	movs	r2, #6
 800090c:	930b      	str	r3, [sp, #44]	; 0x2c
 800090e:	e9cd 1207 	strd	r1, r2, [sp, #28]
 8000912:	2203      	movs	r2, #3
 8000914:	a905      	add	r1, sp, #20
 8000916:	e9cd 2309 	strd	r2, r3, [sp, #36]	; 0x24
 800091a:	f006 fc99 	bl	8007250 <HAL_SDRAM_Init>
 800091e:	b108      	cbz	r0, 8000924 <MX_FMC_Init+0x60>
 8000920:	f000 fc3c 	bl	800119c <Error_Handler>
 8000924:	2308      	movs	r3, #8
 8000926:	a901      	add	r1, sp, #4
 8000928:	f640 72ff 	movw	r2, #4095	; 0xfff
 800092c:	4816      	ldr	r0, [pc, #88]	; (8000988 <MX_FMC_Init+0xc4>)
 800092e:	9401      	str	r4, [sp, #4]
 8000930:	e9cd 3402 	strd	r3, r4, [sp, #8]
 8000934:	2300      	movs	r3, #0
 8000936:	2402      	movs	r4, #2
 8000938:	9304      	str	r3, [sp, #16]
 800093a:	f006 fcb1 	bl	80072a0 <HAL_SDRAM_SendCommand>
 800093e:	2001      	movs	r0, #1
 8000940:	f002 f8ba 	bl	8002ab8 <HAL_Delay>
 8000944:	a901      	add	r1, sp, #4
 8000946:	f640 72ff 	movw	r2, #4095	; 0xfff
 800094a:	480f      	ldr	r0, [pc, #60]	; (8000988 <MX_FMC_Init+0xc4>)
 800094c:	9401      	str	r4, [sp, #4]
 800094e:	f006 fca7 	bl	80072a0 <HAL_SDRAM_SendCommand>
 8000952:	2303      	movs	r3, #3
 8000954:	a901      	add	r1, sp, #4
 8000956:	f640 72ff 	movw	r2, #4095	; 0xfff
 800095a:	480b      	ldr	r0, [pc, #44]	; (8000988 <MX_FMC_Init+0xc4>)
 800095c:	9301      	str	r3, [sp, #4]
 800095e:	9403      	str	r4, [sp, #12]
 8000960:	f006 fc9e 	bl	80072a0 <HAL_SDRAM_SendCommand>
 8000964:	2304      	movs	r3, #4
 8000966:	f640 72ff 	movw	r2, #4095	; 0xfff
 800096a:	a901      	add	r1, sp, #4
 800096c:	4806      	ldr	r0, [pc, #24]	; (8000988 <MX_FMC_Init+0xc4>)
 800096e:	9301      	str	r3, [sp, #4]
 8000970:	f44f 7308 	mov.w	r3, #544	; 0x220
 8000974:	9304      	str	r3, [sp, #16]
 8000976:	f006 fc93 	bl	80072a0 <HAL_SDRAM_SendCommand>
 800097a:	f640 412b 	movw	r1, #3115	; 0xc2b
 800097e:	4802      	ldr	r0, [pc, #8]	; (8000988 <MX_FMC_Init+0xc4>)
 8000980:	f006 fcad 	bl	80072de <HAL_SDRAM_ProgramRefreshRate>
 8000984:	b00c      	add	sp, #48	; 0x30
 8000986:	bd10      	pop	{r4, pc}
 8000988:	24000208 	.word	0x24000208
 800098c:	52004140 	.word	0x52004140

08000990 <HAL_SDRAM_MspInit>:
 8000990:	b5f0      	push	{r4, r5, r6, r7, lr}
 8000992:	b0b7      	sub	sp, #220	; 0xdc
 8000994:	2100      	movs	r1, #0
 8000996:	2214      	movs	r2, #20
 8000998:	a801      	add	r0, sp, #4
 800099a:	f007 fbad 	bl	80080f8 <memset>
 800099e:	4b33      	ldr	r3, [pc, #204]	; (8000a6c <HAL_SDRAM_MspInit+0xdc>)
 80009a0:	6819      	ldr	r1, [r3, #0]
 80009a2:	2900      	cmp	r1, #0
 80009a4:	d160      	bne.n	8000a68 <HAL_SDRAM_MspInit+0xd8>
 80009a6:	2401      	movs	r4, #1
 80009a8:	22a4      	movs	r2, #164	; 0xa4
 80009aa:	a80d      	add	r0, sp, #52	; 0x34
 80009ac:	601c      	str	r4, [r3, #0]
 80009ae:	f007 fba3 	bl	80080f8 <memset>
 80009b2:	f04f 7280 	mov.w	r2, #16777216	; 0x1000000
 80009b6:	2300      	movs	r3, #0
 80009b8:	a806      	add	r0, sp, #24
 80009ba:	940c      	str	r4, [sp, #48]	; 0x30
 80009bc:	e9cd 2306 	strd	r2, r3, [sp, #24]
 80009c0:	23c8      	movs	r3, #200	; 0xc8
 80009c2:	2218      	movs	r2, #24
 80009c4:	e9cd 2308 	strd	r2, r3, [sp, #32]
 80009c8:	2302      	movs	r3, #2
 80009ca:	e9cd 330a 	strd	r3, r3, [sp, #40]	; 0x28
 80009ce:	9318      	str	r3, [sp, #96]	; 0x60
 80009d0:	f005 fd50 	bl	8006474 <HAL_RCCEx_PeriphCLKConfig>
 80009d4:	b108      	cbz	r0, 80009da <HAL_SDRAM_MspInit+0x4a>
 80009d6:	f000 fbe1 	bl	800119c <Error_Handler>
 80009da:	4b25      	ldr	r3, [pc, #148]	; (8000a70 <HAL_SDRAM_MspInit+0xe0>)
 80009dc:	2702      	movs	r7, #2
 80009de:	2600      	movs	r6, #0
 80009e0:	2503      	movs	r5, #3
 80009e2:	f8d3 2134 	ldr.w	r2, [r3, #308]	; 0x134
 80009e6:	240c      	movs	r4, #12
 80009e8:	a901      	add	r1, sp, #4
 80009ea:	4822      	ldr	r0, [pc, #136]	; (8000a74 <HAL_SDRAM_MspInit+0xe4>)
 80009ec:	f442 5280 	orr.w	r2, r2, #4096	; 0x1000
 80009f0:	f8c3 2134 	str.w	r2, [r3, #308]	; 0x134
 80009f4:	f8d3 3134 	ldr.w	r3, [r3, #308]	; 0x134
 80009f8:	9405      	str	r4, [sp, #20]
 80009fa:	f403 5380 	and.w	r3, r3, #4096	; 0x1000
 80009fe:	9300      	str	r3, [sp, #0]
 8000a00:	9b00      	ldr	r3, [sp, #0]
 8000a02:	f248 1333 	movw	r3, #33075	; 0x8133
 8000a06:	e9cd 6503 	strd	r6, r5, [sp, #12]
 8000a0a:	e9cd 3701 	strd	r3, r7, [sp, #4]
 8000a0e:	f004 f839 	bl	8004a84 <HAL_GPIO_Init>
 8000a12:	f24c 7303 	movw	r3, #50947	; 0xc703
 8000a16:	a901      	add	r1, sp, #4
 8000a18:	4817      	ldr	r0, [pc, #92]	; (8000a78 <HAL_SDRAM_MspInit+0xe8>)
 8000a1a:	9405      	str	r4, [sp, #20]
 8000a1c:	e9cd 3701 	strd	r3, r7, [sp, #4]
 8000a20:	e9cd 6503 	strd	r6, r5, [sp, #12]
 8000a24:	f004 f82e 	bl	8004a84 <HAL_GPIO_Init>
 8000a28:	f64f 7383 	movw	r3, #65411	; 0xff83
 8000a2c:	a901      	add	r1, sp, #4
 8000a2e:	4813      	ldr	r0, [pc, #76]	; (8000a7c <HAL_SDRAM_MspInit+0xec>)
 8000a30:	9405      	str	r4, [sp, #20]
 8000a32:	e9cd 3701 	strd	r3, r7, [sp, #4]
 8000a36:	e9cd 6503 	strd	r6, r5, [sp, #12]
 8000a3a:	f004 f823 	bl	8004a84 <HAL_GPIO_Init>
 8000a3e:	f64f 033f 	movw	r3, #63551	; 0xf83f
 8000a42:	a901      	add	r1, sp, #4
 8000a44:	480e      	ldr	r0, [pc, #56]	; (8000a80 <HAL_SDRAM_MspInit+0xf0>)
 8000a46:	9405      	str	r4, [sp, #20]
 8000a48:	e9cd 3701 	strd	r3, r7, [sp, #4]
 8000a4c:	e9cd 6503 	strd	r6, r5, [sp, #12]
 8000a50:	f004 f818 	bl	8004a84 <HAL_GPIO_Init>
 8000a54:	23e0      	movs	r3, #224	; 0xe0
 8000a56:	a901      	add	r1, sp, #4
 8000a58:	480a      	ldr	r0, [pc, #40]	; (8000a84 <HAL_SDRAM_MspInit+0xf4>)
 8000a5a:	9405      	str	r4, [sp, #20]
 8000a5c:	e9cd 3701 	strd	r3, r7, [sp, #4]
 8000a60:	e9cd 6503 	strd	r6, r5, [sp, #12]
 8000a64:	f004 f80e 	bl	8004a84 <HAL_GPIO_Init>
 8000a68:	b037      	add	sp, #220	; 0xdc
 8000a6a:	bdf0      	pop	{r4, r5, r6, r7, pc}
 8000a6c:	24000204 	.word	0x24000204
 8000a70:	58024400 	.word	0x58024400
 8000a74:	58021800 	.word	0x58021800
 8000a78:	58020c00 	.word	0x58020c00
 8000a7c:	58021000 	.word	0x58021000
 8000a80:	58021400 	.word	0x58021400
 8000a84:	58021c00 	.word	0x58021c00

08000a88 <MX_GPIO_Init>:
 8000a88:	e92d 4ff0 	stmdb	sp!, {r4, r5, r6, r7, r8, r9, sl, fp, lr}
 8000a8c:	b091      	sub	sp, #68	; 0x44
 8000a8e:	2214      	movs	r2, #20
 8000a90:	2100      	movs	r1, #0
 8000a92:	f8df a350 	ldr.w	sl, [pc, #848]	; 8000de4 <MX_GPIO_Init+0x35c>
 8000a96:	a80b      	add	r0, sp, #44	; 0x2c
 8000a98:	f8df 834c 	ldr.w	r8, [pc, #844]	; 8000de8 <MX_GPIO_Init+0x360>
 8000a9c:	f007 fb2c 	bl	80080f8 <memset>
 8000aa0:	4bcb      	ldr	r3, [pc, #812]	; (8000dd0 <MX_GPIO_Init+0x348>)
 8000aa2:	4fcc      	ldr	r7, [pc, #816]	; (8000dd4 <MX_GPIO_Init+0x34c>)
 8000aa4:	4650      	mov	r0, sl
 8000aa6:	f8d3 2140 	ldr.w	r2, [r3, #320]	; 0x140
 8000aaa:	210e      	movs	r1, #14
 8000aac:	2400      	movs	r4, #0
 8000aae:	2502      	movs	r5, #2
 8000ab0:	f442 7280 	orr.w	r2, r2, #256	; 0x100
 8000ab4:	2603      	movs	r6, #3
 8000ab6:	f8df b334 	ldr.w	fp, [pc, #820]	; 8000dec <MX_GPIO_Init+0x364>
 8000aba:	f04f 0901 	mov.w	r9, #1
 8000abe:	f8c3 2140 	str.w	r2, [r3, #320]	; 0x140
 8000ac2:	f8d3 2140 	ldr.w	r2, [r3, #320]	; 0x140
 8000ac6:	f402 7280 	and.w	r2, r2, #256	; 0x100
 8000aca:	9200      	str	r2, [sp, #0]
 8000acc:	9a00      	ldr	r2, [sp, #0]
 8000ace:	f8d3 2140 	ldr.w	r2, [r3, #320]	; 0x140
 8000ad2:	f042 0202 	orr.w	r2, r2, #2
 8000ad6:	f8c3 2140 	str.w	r2, [r3, #320]	; 0x140
 8000ada:	f8d3 2140 	ldr.w	r2, [r3, #320]	; 0x140
 8000ade:	f002 0202 	and.w	r2, r2, #2
 8000ae2:	9201      	str	r2, [sp, #4]
 8000ae4:	9a01      	ldr	r2, [sp, #4]
 8000ae6:	f8d3 2140 	ldr.w	r2, [r3, #320]	; 0x140
 8000aea:	f042 0240 	orr.w	r2, r2, #64	; 0x40
 8000aee:	f8c3 2140 	str.w	r2, [r3, #320]	; 0x140
 8000af2:	f8d3 2140 	ldr.w	r2, [r3, #320]	; 0x140
 8000af6:	f002 0240 	and.w	r2, r2, #64	; 0x40
 8000afa:	9202      	str	r2, [sp, #8]
 8000afc:	9a02      	ldr	r2, [sp, #8]
 8000afe:	f8d3 2140 	ldr.w	r2, [r3, #320]	; 0x140
 8000b02:	f442 6280 	orr.w	r2, r2, #1024	; 0x400
 8000b06:	f8c3 2140 	str.w	r2, [r3, #320]	; 0x140
 8000b0a:	f8d3 2140 	ldr.w	r2, [r3, #320]	; 0x140
 8000b0e:	f402 6280 	and.w	r2, r2, #1024	; 0x400
 8000b12:	9203      	str	r2, [sp, #12]
 8000b14:	9a03      	ldr	r2, [sp, #12]
 8000b16:	f8d3 2140 	ldr.w	r2, [r3, #320]	; 0x140
 8000b1a:	f042 0208 	orr.w	r2, r2, #8
 8000b1e:	f8c3 2140 	str.w	r2, [r3, #320]	; 0x140
 8000b22:	f8d3 2140 	ldr.w	r2, [r3, #320]	; 0x140
 8000b26:	f002 0208 	and.w	r2, r2, #8
 8000b2a:	9204      	str	r2, [sp, #16]
 8000b2c:	9a04      	ldr	r2, [sp, #16]
 8000b2e:	f8d3 2140 	ldr.w	r2, [r3, #320]	; 0x140
 8000b32:	f042 0204 	orr.w	r2, r2, #4
 8000b36:	f8c3 2140 	str.w	r2, [r3, #320]	; 0x140
 8000b3a:	f8d3 2140 	ldr.w	r2, [r3, #320]	; 0x140
 8000b3e:	f002 0204 	and.w	r2, r2, #4
 8000b42:	9205      	str	r2, [sp, #20]
 8000b44:	9a05      	ldr	r2, [sp, #20]
 8000b46:	f8d3 2140 	ldr.w	r2, [r3, #320]	; 0x140
 8000b4a:	f042 0210 	orr.w	r2, r2, #16
 8000b4e:	f8c3 2140 	str.w	r2, [r3, #320]	; 0x140
 8000b52:	f8d3 2140 	ldr.w	r2, [r3, #320]	; 0x140
 8000b56:	f002 0210 	and.w	r2, r2, #16
 8000b5a:	9206      	str	r2, [sp, #24]
 8000b5c:	9a06      	ldr	r2, [sp, #24]
 8000b5e:	f8d3 2140 	ldr.w	r2, [r3, #320]	; 0x140
 8000b62:	f442 7200 	orr.w	r2, r2, #512	; 0x200
 8000b66:	f8c3 2140 	str.w	r2, [r3, #320]	; 0x140
 8000b6a:	f8d3 2140 	ldr.w	r2, [r3, #320]	; 0x140
 8000b6e:	f402 7200 	and.w	r2, r2, #512	; 0x200
 8000b72:	9207      	str	r2, [sp, #28]
 8000b74:	9a07      	ldr	r2, [sp, #28]
 8000b76:	f8d3 2140 	ldr.w	r2, [r3, #320]	; 0x140
 8000b7a:	f042 0201 	orr.w	r2, r2, #1
 8000b7e:	f8c3 2140 	str.w	r2, [r3, #320]	; 0x140
 8000b82:	f8d3 2140 	ldr.w	r2, [r3, #320]	; 0x140
 8000b86:	f002 0201 	and.w	r2, r2, #1
 8000b8a:	9208      	str	r2, [sp, #32]
 8000b8c:	9a08      	ldr	r2, [sp, #32]
 8000b8e:	f8d3 2140 	ldr.w	r2, [r3, #320]	; 0x140
 8000b92:	f042 0220 	orr.w	r2, r2, #32
 8000b96:	f8c3 2140 	str.w	r2, [r3, #320]	; 0x140
 8000b9a:	f8d3 2140 	ldr.w	r2, [r3, #320]	; 0x140
 8000b9e:	f002 0220 	and.w	r2, r2, #32
 8000ba2:	9209      	str	r2, [sp, #36]	; 0x24
 8000ba4:	9a09      	ldr	r2, [sp, #36]	; 0x24
 8000ba6:	f8d3 2140 	ldr.w	r2, [r3, #320]	; 0x140
 8000baa:	f042 0280 	orr.w	r2, r2, #128	; 0x80
 8000bae:	f8c3 2140 	str.w	r2, [r3, #320]	; 0x140
 8000bb2:	2200      	movs	r2, #0
 8000bb4:	f8d3 3140 	ldr.w	r3, [r3, #320]	; 0x140
 8000bb8:	f003 0380 	and.w	r3, r3, #128	; 0x80
 8000bbc:	930a      	str	r3, [sp, #40]	; 0x28
 8000bbe:	9b0a      	ldr	r3, [sp, #40]	; 0x28
 8000bc0:	f004 f8ee 	bl	8004da0 <HAL_GPIO_WritePin>
 8000bc4:	4640      	mov	r0, r8
 8000bc6:	2200      	movs	r2, #0
 8000bc8:	f640 0104 	movw	r1, #2052	; 0x804
 8000bcc:	f004 f8e8 	bl	8004da0 <HAL_GPIO_WritePin>
 8000bd0:	4638      	mov	r0, r7
 8000bd2:	2200      	movs	r2, #0
 8000bd4:	f44f 6100 	mov.w	r1, #2048	; 0x800
 8000bd8:	f004 f8e2 	bl	8004da0 <HAL_GPIO_WritePin>
 8000bdc:	4640      	mov	r0, r8
 8000bde:	2201      	movs	r2, #1
 8000be0:	2108      	movs	r1, #8
 8000be2:	f004 f8dd 	bl	8004da0 <HAL_GPIO_WritePin>
 8000be6:	4638      	mov	r0, r7
 8000be8:	2201      	movs	r2, #1
 8000bea:	2106      	movs	r1, #6
 8000bec:	f004 f8d8 	bl	8004da0 <HAL_GPIO_WritePin>
 8000bf0:	2230      	movs	r2, #48	; 0x30
 8000bf2:	f44f 1388 	mov.w	r3, #1114112	; 0x110000
 8000bf6:	a90b      	add	r1, sp, #44	; 0x2c
 8000bf8:	4650      	mov	r0, sl
 8000bfa:	940d      	str	r4, [sp, #52]	; 0x34
 8000bfc:	e9cd 230b 	strd	r2, r3, [sp, #44]	; 0x2c
 8000c00:	f003 ff40 	bl	8004a84 <HAL_GPIO_Init>
 8000c04:	f44f 42e0 	mov.w	r2, #28672	; 0x7000
 8000c08:	2305      	movs	r3, #5
 8000c0a:	a90b      	add	r1, sp, #44	; 0x2c
 8000c0c:	4640      	mov	r0, r8
 8000c0e:	930f      	str	r3, [sp, #60]	; 0x3c
 8000c10:	e9cd 250b 	strd	r2, r5, [sp, #44]	; 0x2c
 8000c14:	e9cd 440d 	strd	r4, r4, [sp, #52]	; 0x34
 8000c18:	f003 ff34 	bl	8004a84 <HAL_GPIO_Init>
 8000c1c:	f44f 7200 	mov.w	r2, #512	; 0x200
 8000c20:	2309      	movs	r3, #9
 8000c22:	a90b      	add	r1, sp, #44	; 0x2c
 8000c24:	4640      	mov	r0, r8
 8000c26:	940d      	str	r4, [sp, #52]	; 0x34
 8000c28:	e9cd 250b 	strd	r2, r5, [sp, #44]	; 0x2c
 8000c2c:	e9cd 630e 	strd	r6, r3, [sp, #56]	; 0x38
 8000c30:	f003 ff28 	bl	8004a84 <HAL_GPIO_Init>
 8000c34:	2280      	movs	r2, #128	; 0x80
 8000c36:	230a      	movs	r3, #10
 8000c38:	a90b      	add	r1, sp, #44	; 0x2c
 8000c3a:	e9cd 250b 	strd	r2, r5, [sp, #44]	; 0x2c
 8000c3e:	4a66      	ldr	r2, [pc, #408]	; (8000dd8 <MX_GPIO_Init+0x350>)
 8000c40:	930f      	str	r3, [sp, #60]	; 0x3c
 8000c42:	4610      	mov	r0, r2
 8000c44:	e9cd 460d 	strd	r4, r6, [sp, #52]	; 0x34
 8000c48:	f003 ff1c 	bl	8004a84 <HAL_GPIO_Init>
 8000c4c:	f44f 51a8 	mov.w	r1, #5376	; 0x1500
 8000c50:	230c      	movs	r3, #12
 8000c52:	4658      	mov	r0, fp
 8000c54:	e9cd 150b 	strd	r1, r5, [sp, #44]	; 0x2c
 8000c58:	a90b      	add	r1, sp, #44	; 0x2c
 8000c5a:	930f      	str	r3, [sp, #60]	; 0x3c
 8000c5c:	e9cd 460d 	strd	r4, r6, [sp, #52]	; 0x34
 8000c60:	f003 ff10 	bl	8004a84 <HAL_GPIO_Init>
 8000c64:	210e      	movs	r1, #14
 8000c66:	4650      	mov	r0, sl
 8000c68:	e9cd 190b 	strd	r1, r9, [sp, #44]	; 0x2c
 8000c6c:	a90b      	add	r1, sp, #44	; 0x2c
 8000c6e:	e9cd 440d 	strd	r4, r4, [sp, #52]	; 0x34
 8000c72:	f003 ff07 	bl	8004a84 <HAL_GPIO_Init>
 8000c76:	f640 010c 	movw	r1, #2060	; 0x80c
 8000c7a:	4640      	mov	r0, r8
 8000c7c:	e9cd 190b 	strd	r1, r9, [sp, #44]	; 0x2c
 8000c80:	a90b      	add	r1, sp, #44	; 0x2c
 8000c82:	e9cd 440d 	strd	r4, r4, [sp, #52]	; 0x34
 8000c86:	f003 fefd 	bl	8004a84 <HAL_GPIO_Init>
 8000c8a:	2304      	movs	r3, #4
 8000c8c:	4a52      	ldr	r2, [pc, #328]	; (8000dd8 <MX_GPIO_Init+0x350>)
 8000c8e:	a90b      	add	r1, sp, #44	; 0x2c
 8000c90:	e9cd 350b 	strd	r3, r5, [sp, #44]	; 0x2c
 8000c94:	230c      	movs	r3, #12
 8000c96:	4610      	mov	r0, r2
 8000c98:	930f      	str	r3, [sp, #60]	; 0x3c
 8000c9a:	e9cd 460d 	strd	r4, r6, [sp, #52]	; 0x34
 8000c9e:	f003 fef1 	bl	8004a84 <HAL_GPIO_Init>
 8000ca2:	f44f 7280 	mov.w	r2, #256	; 0x100
 8000ca6:	f44f 1388 	mov.w	r3, #1114112	; 0x110000
 8000caa:	a90b      	add	r1, sp, #44	; 0x2c
 8000cac:	4650      	mov	r0, sl
 8000cae:	f8cd 9034 	str.w	r9, [sp, #52]	; 0x34
 8000cb2:	e9cd 230b 	strd	r2, r3, [sp, #44]	; 0x2c
 8000cb6:	f003 fee5 	bl	8004a84 <HAL_GPIO_Init>
 8000cba:	f44f 5380 	mov.w	r3, #4096	; 0x1000
 8000cbe:	a90b      	add	r1, sp, #44	; 0x2c
 8000cc0:	4638      	mov	r0, r7
 8000cc2:	e9cd 350b 	strd	r3, r5, [sp, #44]	; 0x2c
 8000cc6:	2305      	movs	r3, #5
 8000cc8:	e9cd 440d 	strd	r4, r4, [sp, #52]	; 0x34
 8000ccc:	930f      	str	r3, [sp, #60]	; 0x3c
 8000cce:	f003 fed9 	bl	8004a84 <HAL_GPIO_Init>
 8000cd2:	f640 0306 	movw	r3, #2054	; 0x806
 8000cd6:	a90b      	add	r1, sp, #44	; 0x2c
 8000cd8:	4638      	mov	r0, r7
 8000cda:	e9cd 390b 	strd	r3, r9, [sp, #44]	; 0x2c
 8000cde:	e9cd 440d 	strd	r4, r4, [sp, #52]	; 0x34
 8000ce2:	f003 fecf 	bl	8004a84 <HAL_GPIO_Init>
 8000ce6:	f44f 1388 	mov.w	r3, #1114112	; 0x110000
 8000cea:	f44f 5100 	mov.w	r1, #8192	; 0x2000
 8000cee:	4658      	mov	r0, fp
 8000cf0:	940d      	str	r4, [sp, #52]	; 0x34
 8000cf2:	e9cd 130b 	strd	r1, r3, [sp, #44]	; 0x2c
 8000cf6:	a90b      	add	r1, sp, #44	; 0x2c
 8000cf8:	f003 fec4 	bl	8004a84 <HAL_GPIO_Init>
 8000cfc:	f44f 7380 	mov.w	r3, #256	; 0x100
 8000d00:	a90b      	add	r1, sp, #44	; 0x2c
 8000d02:	4638      	mov	r0, r7
 8000d04:	940f      	str	r4, [sp, #60]	; 0x3c
 8000d06:	e9cd 350b 	strd	r3, r5, [sp, #44]	; 0x2c
 8000d0a:	e9cd 440d 	strd	r4, r4, [sp, #52]	; 0x34
 8000d0e:	f003 feb9 	bl	8004a84 <HAL_GPIO_Init>
 8000d12:	2340      	movs	r3, #64	; 0x40
 8000d14:	a90b      	add	r1, sp, #44	; 0x2c
 8000d16:	4640      	mov	r0, r8
 8000d18:	e9cd 350b 	strd	r3, r5, [sp, #44]	; 0x2c
 8000d1c:	230a      	movs	r3, #10
 8000d1e:	e9cd 460d 	strd	r4, r6, [sp, #52]	; 0x34
 8000d22:	930f      	str	r3, [sp, #60]	; 0x3c
 8000d24:	f003 feae 	bl	8004a84 <HAL_GPIO_Init>
 8000d28:	230c      	movs	r3, #12
 8000d2a:	a90b      	add	r1, sp, #44	; 0x2c
 8000d2c:	4658      	mov	r0, fp
 8000d2e:	e9cd 350b 	strd	r3, r5, [sp, #44]	; 0x2c
 8000d32:	2305      	movs	r3, #5
 8000d34:	e9cd 440d 	strd	r4, r4, [sp, #52]	; 0x34
 8000d38:	930f      	str	r3, [sp, #60]	; 0x3c
 8000d3a:	f003 fea3 	bl	8004a84 <HAL_GPIO_Init>
 8000d3e:	f44f 5040 	mov.w	r0, #12288	; 0x3000
 8000d42:	2312      	movs	r3, #18
 8000d44:	4a24      	ldr	r2, [pc, #144]	; (8000dd8 <MX_GPIO_Init+0x350>)
 8000d46:	a90b      	add	r1, sp, #44	; 0x2c
 8000d48:	e9cd 030b 	strd	r0, r3, [sp, #44]	; 0x2c
 8000d4c:	2304      	movs	r3, #4
 8000d4e:	4610      	mov	r0, r2
 8000d50:	930f      	str	r3, [sp, #60]	; 0x3c
 8000d52:	e9cd 940d 	strd	r9, r4, [sp, #52]	; 0x34
 8000d56:	f003 fe95 	bl	8004a84 <HAL_GPIO_Init>
 8000d5a:	2322      	movs	r3, #34	; 0x22
 8000d5c:	a90b      	add	r1, sp, #44	; 0x2c
 8000d5e:	4658      	mov	r0, fp
 8000d60:	e9cd 350b 	strd	r3, r5, [sp, #44]	; 0x2c
 8000d64:	230a      	movs	r3, #10
 8000d66:	e9cd 460d 	strd	r4, r6, [sp, #52]	; 0x34
 8000d6a:	930f      	str	r3, [sp, #60]	; 0x3c
 8000d6c:	f003 fe8a 	bl	8004a84 <HAL_GPIO_Init>
 8000d70:	f04f 0c04 	mov.w	ip, #4
 8000d74:	f44f 1388 	mov.w	r3, #1114112	; 0x110000
 8000d78:	a90b      	add	r1, sp, #44	; 0x2c
 8000d7a:	4818      	ldr	r0, [pc, #96]	; (8000ddc <MX_GPIO_Init+0x354>)
 8000d7c:	940d      	str	r4, [sp, #52]	; 0x34
 8000d7e:	e9cd c30b 	strd	ip, r3, [sp, #44]	; 0x2c
 8000d82:	f003 fe7f 	bl	8004a84 <HAL_GPIO_Init>
 8000d86:	2308      	movs	r3, #8
 8000d88:	a90b      	add	r1, sp, #44	; 0x2c
 8000d8a:	4814      	ldr	r0, [pc, #80]	; (8000ddc <MX_GPIO_Init+0x354>)
 8000d8c:	e9cd 350b 	strd	r3, r5, [sp, #44]	; 0x2c
 8000d90:	2309      	movs	r3, #9
 8000d92:	e9cd 460d 	strd	r4, r6, [sp, #52]	; 0x34
 8000d96:	930f      	str	r3, [sp, #60]	; 0x3c
 8000d98:	f003 fe74 	bl	8004a84 <HAL_GPIO_Init>
 8000d9c:	2309      	movs	r3, #9
 8000d9e:	a90b      	add	r1, sp, #44	; 0x2c
 8000da0:	4638      	mov	r0, r7
 8000da2:	e9cd 350b 	strd	r3, r5, [sp, #44]	; 0x2c
 8000da6:	2305      	movs	r3, #5
 8000da8:	e9cd 440d 	strd	r4, r4, [sp, #52]	; 0x34
 8000dac:	930f      	str	r3, [sp, #60]	; 0x3c
 8000dae:	f003 fe69 	bl	8004a84 <HAL_GPIO_Init>
 8000db2:	2304      	movs	r3, #4
 8000db4:	a90b      	add	r1, sp, #44	; 0x2c
 8000db6:	480a      	ldr	r0, [pc, #40]	; (8000de0 <MX_GPIO_Init+0x358>)
 8000db8:	e9cd 350b 	strd	r3, r5, [sp, #44]	; 0x2c
 8000dbc:	2309      	movs	r3, #9
 8000dbe:	e9cd 460d 	strd	r4, r6, [sp, #52]	; 0x34
 8000dc2:	930f      	str	r3, [sp, #60]	; 0x3c
 8000dc4:	f003 fe5e 	bl	8004a84 <HAL_GPIO_Init>
 8000dc8:	b011      	add	sp, #68	; 0x44
 8000dca:	e8bd 8ff0 	ldmia.w	sp!, {r4, r5, r6, r7, r8, r9, sl, fp, pc}
 8000dce:	bf00      	nop
 8000dd0:	58024400 	.word	0x58024400
 8000dd4:	58020000 	.word	0x58020000
 8000dd8:	58020c00 	.word	0x58020c00
 8000ddc:	58021c00 	.word	0x58021c00
 8000de0:	58020400 	.word	0x58020400
 8000de4:	58022000 	.word	0x58022000
 8000de8:	58021800 	.word	0x58021800
 8000dec:	58020800 	.word	0x58020800

08000df0 <MX_LTDC_Init>:
 8000df0:	b510      	push	{r4, lr}
 8000df2:	b08e      	sub	sp, #56	; 0x38
 8000df4:	2234      	movs	r2, #52	; 0x34
 8000df6:	2100      	movs	r1, #0
 8000df8:	2400      	movs	r4, #0
 8000dfa:	a801      	add	r0, sp, #4
 8000dfc:	f007 f97c 	bl	80080f8 <memset>
 8000e00:	4821      	ldr	r0, [pc, #132]	; (8000e88 <MX_LTDC_Init+0x98>)
 8000e02:	4b22      	ldr	r3, [pc, #136]	; (8000e8c <MX_LTDC_Init+0x9c>)
 8000e04:	2107      	movs	r1, #7
 8000e06:	f04f 0c0e 	mov.w	ip, #14
 8000e0a:	f240 2e8e 	movw	lr, #654	; 0x28e
 8000e0e:	f44f 7225 	mov.w	r2, #660	; 0x294
 8000e12:	8684      	strh	r4, [r0, #52]	; 0x34
 8000e14:	6084      	str	r4, [r0, #8]
 8000e16:	f880 4036 	strb.w	r4, [r0, #54]	; 0x36
 8000e1a:	e9c0 3400 	strd	r3, r4, [r0]
 8000e1e:	f04f 5300 	mov.w	r3, #536870912	; 0x20000000
 8000e22:	e9c0 3403 	strd	r3, r4, [r0, #12]
 8000e26:	2303      	movs	r3, #3
 8000e28:	e9c0 1305 	strd	r1, r3, [r0, #20]
 8000e2c:	2305      	movs	r3, #5
 8000e2e:	e9c0 c307 	strd	ip, r3, [r0, #28]
 8000e32:	f240 13e5 	movw	r3, #485	; 0x1e5
 8000e36:	e9c0 e309 	strd	lr, r3, [r0, #36]	; 0x24
 8000e3a:	f240 13e7 	movw	r3, #487	; 0x1e7
 8000e3e:	e9c0 230b 	strd	r2, r3, [r0, #44]	; 0x2c
 8000e42:	f004 fbe1 	bl	8005608 <HAL_LTDC_Init>
 8000e46:	b108      	cbz	r0, 8000e4c <MX_LTDC_Init+0x5c>
 8000e48:	f000 f9a8 	bl	800119c <Error_Handler>
 8000e4c:	2302      	movs	r3, #2
 8000e4e:	f44f 6280 	mov.w	r2, #1024	; 0x400
 8000e52:	a901      	add	r1, sp, #4
 8000e54:	480c      	ldr	r0, [pc, #48]	; (8000e88 <MX_LTDC_Init+0x98>)
 8000e56:	9407      	str	r4, [sp, #28]
 8000e58:	940c      	str	r4, [sp, #48]	; 0x30
 8000e5a:	f8ad 4034 	strh.w	r4, [sp, #52]	; 0x34
 8000e5e:	f88d 4036 	strb.w	r4, [sp, #54]	; 0x36
 8000e62:	e9cd 3405 	strd	r3, r4, [sp, #20]
 8000e66:	2305      	movs	r3, #5
 8000e68:	e9cd 2308 	strd	r2, r3, [sp, #32]
 8000e6c:	2200      	movs	r2, #0
 8000e6e:	e9cd 4401 	strd	r4, r4, [sp, #4]
 8000e72:	e9cd 4403 	strd	r4, r4, [sp, #12]
 8000e76:	e9cd 440a 	strd	r4, r4, [sp, #40]	; 0x28
 8000e7a:	f004 fc91 	bl	80057a0 <HAL_LTDC_ConfigLayer>
 8000e7e:	b108      	cbz	r0, 8000e84 <MX_LTDC_Init+0x94>
 8000e80:	f000 f98c 	bl	800119c <Error_Handler>
 8000e84:	b00e      	add	sp, #56	; 0x38
 8000e86:	bd10      	pop	{r4, pc}
 8000e88:	2400023c 	.word	0x2400023c
 8000e8c:	50001000 	.word	0x50001000

08000e90 <HAL_LTDC_MspInit>:
 8000e90:	b5f0      	push	{r4, r5, r6, r7, lr}
 8000e92:	2214      	movs	r2, #20
 8000e94:	b0bb      	sub	sp, #236	; 0xec
 8000e96:	25c0      	movs	r5, #192	; 0xc0
 8000e98:	4604      	mov	r4, r0
 8000e9a:	2100      	movs	r1, #0
 8000e9c:	eb0d 0002 	add.w	r0, sp, r2
 8000ea0:	f007 f92a 	bl	80080f8 <memset>
 8000ea4:	462a      	mov	r2, r5
 8000ea6:	2100      	movs	r1, #0
 8000ea8:	a80a      	add	r0, sp, #40	; 0x28
 8000eaa:	f007 f925 	bl	80080f8 <memset>
 8000eae:	6822      	ldr	r2, [r4, #0]
 8000eb0:	4b40      	ldr	r3, [pc, #256]	; (8000fb4 <HAL_LTDC_MspInit+0x124>)
 8000eb2:	429a      	cmp	r2, r3
 8000eb4:	d17b      	bne.n	8000fae <HAL_LTDC_MspInit+0x11e>
 8000eb6:	f04f 5200 	mov.w	r2, #536870912	; 0x20000000
 8000eba:	2300      	movs	r3, #0
 8000ebc:	a80a      	add	r0, sp, #40	; 0x28
 8000ebe:	e9cd 230a 	strd	r2, r3, [sp, #40]	; 0x28
 8000ec2:	2318      	movs	r3, #24
 8000ec4:	2211      	movs	r2, #17
 8000ec6:	e9cd 3514 	strd	r3, r5, [sp, #80]	; 0x50
 8000eca:	2302      	movs	r3, #2
 8000ecc:	e9cd 2316 	strd	r2, r3, [sp, #88]	; 0x58
 8000ed0:	2310      	movs	r3, #16
 8000ed2:	9318      	str	r3, [sp, #96]	; 0x60
 8000ed4:	f241 5356 	movw	r3, #5462	; 0x1556
 8000ed8:	931b      	str	r3, [sp, #108]	; 0x6c
 8000eda:	f005 facb 	bl	8006474 <HAL_RCCEx_PeriphCLKConfig>
 8000ede:	b108      	cbz	r0, 8000ee4 <HAL_LTDC_MspInit+0x54>
 8000ee0:	f000 f95c 	bl	800119c <Error_Handler>
 8000ee4:	4b34      	ldr	r3, [pc, #208]	; (8000fb8 <HAL_LTDC_MspInit+0x128>)
 8000ee6:	2400      	movs	r4, #0
 8000ee8:	2702      	movs	r7, #2
 8000eea:	2603      	movs	r6, #3
 8000eec:	f8d3 2144 	ldr.w	r2, [r3, #324]	; 0x144
 8000ef0:	250e      	movs	r5, #14
 8000ef2:	a905      	add	r1, sp, #20
 8000ef4:	4831      	ldr	r0, [pc, #196]	; (8000fbc <HAL_LTDC_MspInit+0x12c>)
 8000ef6:	f042 0208 	orr.w	r2, r2, #8
 8000efa:	f8c3 2144 	str.w	r2, [r3, #324]	; 0x144
 8000efe:	f8d3 2144 	ldr.w	r2, [r3, #324]	; 0x144
 8000f02:	f002 0208 	and.w	r2, r2, #8
 8000f06:	9201      	str	r2, [sp, #4]
 8000f08:	9a01      	ldr	r2, [sp, #4]
 8000f0a:	f8d3 2140 	ldr.w	r2, [r3, #320]	; 0x140
 8000f0e:	f442 6280 	orr.w	r2, r2, #1024	; 0x400
 8000f12:	f8c3 2140 	str.w	r2, [r3, #320]	; 0x140
 8000f16:	f8d3 2140 	ldr.w	r2, [r3, #320]	; 0x140
 8000f1a:	f402 6280 	and.w	r2, r2, #1024	; 0x400
 8000f1e:	9202      	str	r2, [sp, #8]
 8000f20:	9a02      	ldr	r2, [sp, #8]
 8000f22:	f8d3 2140 	ldr.w	r2, [r3, #320]	; 0x140
 8000f26:	f442 7200 	orr.w	r2, r2, #512	; 0x200
 8000f2a:	f8c3 2140 	str.w	r2, [r3, #320]	; 0x140
 8000f2e:	f8d3 2140 	ldr.w	r2, [r3, #320]	; 0x140
 8000f32:	f402 7200 	and.w	r2, r2, #512	; 0x200
 8000f36:	9203      	str	r2, [sp, #12]
 8000f38:	9a03      	ldr	r2, [sp, #12]
 8000f3a:	f8d3 2140 	ldr.w	r2, [r3, #320]	; 0x140
 8000f3e:	f442 7280 	orr.w	r2, r2, #256	; 0x100
 8000f42:	f8c3 2140 	str.w	r2, [r3, #320]	; 0x140
 8000f46:	f8d3 3140 	ldr.w	r3, [r3, #320]	; 0x140
 8000f4a:	9509      	str	r5, [sp, #36]	; 0x24
 8000f4c:	f403 7380 	and.w	r3, r3, #256	; 0x100
 8000f50:	9304      	str	r3, [sp, #16]
 8000f52:	9b04      	ldr	r3, [sp, #16]
 8000f54:	23ff      	movs	r3, #255	; 0xff
 8000f56:	e9cd 4607 	strd	r4, r6, [sp, #28]
 8000f5a:	e9cd 3705 	strd	r3, r7, [sp, #20]
 8000f5e:	f003 fd91 	bl	8004a84 <HAL_GPIO_Init>
 8000f62:	f64f 73ff 	movw	r3, #65535	; 0xffff
 8000f66:	a905      	add	r1, sp, #20
 8000f68:	4815      	ldr	r0, [pc, #84]	; (8000fc0 <HAL_LTDC_MspInit+0x130>)
 8000f6a:	9509      	str	r5, [sp, #36]	; 0x24
 8000f6c:	e9cd 3705 	strd	r3, r7, [sp, #20]
 8000f70:	e9cd 4607 	strd	r4, r6, [sp, #28]
 8000f74:	f003 fd86 	bl	8004a84 <HAL_GPIO_Init>
 8000f78:	f44f 4370 	mov.w	r3, #61440	; 0xf000
 8000f7c:	a905      	add	r1, sp, #20
 8000f7e:	4811      	ldr	r0, [pc, #68]	; (8000fc4 <HAL_LTDC_MspInit+0x134>)
 8000f80:	9509      	str	r5, [sp, #36]	; 0x24
 8000f82:	e9cd 3705 	strd	r3, r7, [sp, #20]
 8000f86:	e9cd 4607 	strd	r4, r6, [sp, #28]
 8000f8a:	f003 fd7b 	bl	8004a84 <HAL_GPIO_Init>
 8000f8e:	4622      	mov	r2, r4
 8000f90:	4621      	mov	r1, r4
 8000f92:	2058      	movs	r0, #88	; 0x58
 8000f94:	f001 fdb4 	bl	8002b00 <HAL_NVIC_SetPriority>
 8000f98:	2058      	movs	r0, #88	; 0x58
 8000f9a:	f001 fde3 	bl	8002b64 <HAL_NVIC_EnableIRQ>
 8000f9e:	2059      	movs	r0, #89	; 0x59
 8000fa0:	4622      	mov	r2, r4
 8000fa2:	4621      	mov	r1, r4
 8000fa4:	f001 fdac 	bl	8002b00 <HAL_NVIC_SetPriority>
 8000fa8:	2059      	movs	r0, #89	; 0x59
 8000faa:	f001 fddb 	bl	8002b64 <HAL_NVIC_EnableIRQ>
 8000fae:	b03b      	add	sp, #236	; 0xec
 8000fb0:	bdf0      	pop	{r4, r5, r6, r7, pc}
 8000fb2:	bf00      	nop
 8000fb4:	50001000 	.word	0x50001000
 8000fb8:	58024400 	.word	0x58024400
 8000fbc:	58022800 	.word	0x58022800
 8000fc0:	58022400 	.word	0x58022400
 8000fc4:	58022000 	.word	0x58022000

08000fc8 <LTDC_Init_from_buffer>:
 8000fc8:	b530      	push	{r4, r5, lr}
 8000fca:	251c      	movs	r5, #28
 8000fcc:	b08f      	sub	sp, #60	; 0x3c
 8000fce:	4604      	mov	r4, r0
 8000fd0:	2100      	movs	r1, #0
 8000fd2:	462a      	mov	r2, r5
 8000fd4:	eb0d 0005 	add.w	r0, sp, r5
 8000fd8:	f007 f88e 	bl	80080f8 <memset>
 8000fdc:	f44f 72fe 	mov.w	r2, #508	; 0x1fc
 8000fe0:	2306      	movs	r3, #6
 8000fe2:	f44f 718b 	mov.w	r1, #278	; 0x116
 8000fe6:	9501      	str	r5, [sp, #4]
 8000fe8:	f44f 6580 	mov.w	r5, #1024	; 0x400
 8000fec:	f44f 7cf0 	mov.w	ip, #480	; 0x1e0
 8000ff0:	480c      	ldr	r0, [pc, #48]	; (8001024 <LTDC_Init_from_buffer+0x5c>)
 8000ff2:	940a      	str	r4, [sp, #40]	; 0x28
 8000ff4:	e9cd 2302 	strd	r2, r3, [sp, #8]
 8000ff8:	2302      	movs	r3, #2
 8000ffa:	2200      	movs	r2, #0
 8000ffc:	e9cd 1304 	strd	r1, r3, [sp, #16]
 8001000:	23ff      	movs	r3, #255	; 0xff
 8001002:	a901      	add	r1, sp, #4
 8001004:	9306      	str	r3, [sp, #24]
 8001006:	2305      	movs	r3, #5
 8001008:	e9cd 5308 	strd	r5, r3, [sp, #32]
 800100c:	f44f 7388 	mov.w	r3, #272	; 0x110
 8001010:	e9cd c30b 	strd	ip, r3, [sp, #44]	; 0x2c
 8001014:	f004 fbc4 	bl	80057a0 <HAL_LTDC_ConfigLayer>
 8001018:	b108      	cbz	r0, 800101e <LTDC_Init_from_buffer+0x56>
 800101a:	f000 f8bf 	bl	800119c <Error_Handler>
 800101e:	b00f      	add	sp, #60	; 0x3c
 8001020:	bd30      	pop	{r4, r5, pc}
 8001022:	bf00      	nop
 8001024:	2400023c 	.word	0x2400023c

08001028 <SystemClock_Config>:
 8001028:	b510      	push	{r4, lr}
 800102a:	b09c      	sub	sp, #112	; 0x70
 800102c:	224c      	movs	r2, #76	; 0x4c
 800102e:	2100      	movs	r1, #0
 8001030:	4c2f      	ldr	r4, [pc, #188]	; (80010f0 <SystemClock_Config+0xc8>)
 8001032:	a809      	add	r0, sp, #36	; 0x24
 8001034:	f007 f860 	bl	80080f8 <memset>
 8001038:	2220      	movs	r2, #32
 800103a:	2100      	movs	r1, #0
 800103c:	a801      	add	r0, sp, #4
 800103e:	f007 f85b 	bl	80080f8 <memset>
 8001042:	f04f 33ff 	mov.w	r3, #4294967295	; 0xffffffff
 8001046:	2004      	movs	r0, #4
 8001048:	f8c4 30b0 	str.w	r3, [r4, #176]	; 0xb0
 800104c:	f004 fbde 	bl	800580c <HAL_PWREx_ConfigSupply>
 8001050:	2300      	movs	r3, #0
 8001052:	9300      	str	r3, [sp, #0]
 8001054:	4b27      	ldr	r3, [pc, #156]	; (80010f4 <SystemClock_Config+0xcc>)
 8001056:	699a      	ldr	r2, [r3, #24]
 8001058:	f442 4240 	orr.w	r2, r2, #49152	; 0xc000
 800105c:	619a      	str	r2, [r3, #24]
 800105e:	699a      	ldr	r2, [r3, #24]
 8001060:	f402 4240 	and.w	r2, r2, #49152	; 0xc000
 8001064:	9200      	str	r2, [sp, #0]
 8001066:	9a00      	ldr	r2, [sp, #0]
 8001068:	699a      	ldr	r2, [r3, #24]
 800106a:	0492      	lsls	r2, r2, #18
 800106c:	d5fc      	bpl.n	8001068 <SystemClock_Config+0x40>
 800106e:	f004 fbc5 	bl	80057fc <HAL_PWR_EnableBkUpAccess>
 8001072:	6f23      	ldr	r3, [r4, #112]	; 0x70
 8001074:	2205      	movs	r2, #5
 8001076:	2000      	movs	r0, #0
 8001078:	f023 0318 	bic.w	r3, r3, #24
 800107c:	6723      	str	r3, [r4, #112]	; 0x70
 800107e:	f44f 3380 	mov.w	r3, #65536	; 0x10000
 8001082:	2403      	movs	r4, #3
 8001084:	e9cd 2309 	strd	r2, r3, [sp, #36]	; 0x24
 8001088:	2301      	movs	r3, #1
 800108a:	2245      	movs	r2, #69	; 0x45
 800108c:	930b      	str	r3, [sp, #44]	; 0x2c
 800108e:	2302      	movs	r3, #2
 8001090:	e9cd 4214 	strd	r4, r2, [sp, #80]	; 0x50
 8001094:	e9cd 3312 	strd	r3, r3, [sp, #72]	; 0x48
 8001098:	2210      	movs	r2, #16
 800109a:	9316      	str	r3, [sp, #88]	; 0x58
 800109c:	230c      	movs	r3, #12
 800109e:	e9cd 3217 	strd	r3, r2, [sp, #92]	; 0x5c
 80010a2:	9319      	str	r3, [sp, #100]	; 0x64
 80010a4:	f241 5356 	movw	r3, #5462	; 0x1556
 80010a8:	e9cd 031a 	strd	r0, r3, [sp, #104]	; 0x68
 80010ac:	a809      	add	r0, sp, #36	; 0x24
 80010ae:	f004 fbe9 	bl	8005884 <HAL_RCC_OscConfig>
 80010b2:	b108      	cbz	r0, 80010b8 <SystemClock_Config+0x90>
 80010b4:	b672      	cpsid	i
 80010b6:	e7fe      	b.n	80010b6 <SystemClock_Config+0x8e>
 80010b8:	233f      	movs	r3, #63	; 0x3f
 80010ba:	f44f 6280 	mov.w	r2, #1024	; 0x400
 80010be:	2107      	movs	r1, #7
 80010c0:	e9cd 3401 	strd	r3, r4, [sp, #4]
 80010c4:	2340      	movs	r3, #64	; 0x40
 80010c6:	e9cd 0003 	strd	r0, r0, [sp, #12]
 80010ca:	a801      	add	r0, sp, #4
 80010cc:	e9cd 3305 	strd	r3, r3, [sp, #20]
 80010d0:	e9cd 2307 	strd	r2, r3, [sp, #28]
 80010d4:	f004 ff72 	bl	8005fbc <HAL_RCC_ClockConfig>
 80010d8:	b108      	cbz	r0, 80010de <SystemClock_Config+0xb6>
 80010da:	b672      	cpsid	i
 80010dc:	e7fe      	b.n	80010dc <SystemClock_Config+0xb4>
 80010de:	f44f 2280 	mov.w	r2, #262144	; 0x40000
 80010e2:	f44f 0100 	mov.w	r1, #8388608	; 0x800000
 80010e6:	f004 fe7b 	bl	8005de0 <HAL_RCC_MCOConfig>
 80010ea:	b01c      	add	sp, #112	; 0x70
 80010ec:	bd10      	pop	{r4, pc}
 80010ee:	bf00      	nop
 80010f0:	58024400 	.word	0x58024400
 80010f4:	58024800 	.word	0x58024800

080010f8 <main>:
 80010f8:	b508      	push	{r3, lr}
 80010fa:	f001 fc9d 	bl	8002a38 <HAL_Init>
 80010fe:	f7ff ff93 	bl	8001028 <SystemClock_Config>
 8001102:	f7ff fcc1 	bl	8000a88 <MX_GPIO_Init>
 8001106:	f7ff fb59 	bl	80007bc <MX_DMA_Init>
 800110a:	f001 fbc1 	bl	8002890 <MX_USART1_UART_Init>
 800110e:	f7ff fb71 	bl	80007f4 <MX_DMA2D_Init>
 8001112:	f7ff fe6d 	bl	8000df0 <MX_LTDC_Init>
 8001116:	f7ff fa6b 	bl	80005f0 <MX_DCMI_Init>
 800111a:	f001 f829 	bl	8002170 <MX_RTC_Init>
 800111e:	f7ff fbd1 	bl	80008c4 <MX_FMC_Init>
 8001122:	4814      	ldr	r0, [pc, #80]	; (8001174 <main+0x7c>)
 8001124:	f000 ffca 	bl	80020bc <RetargetInit>
 8001128:	2000      	movs	r0, #0
 800112a:	f001 fae3 	bl	80026f4 <BSP_CAMERA_PwrDown>
 800112e:	2200      	movs	r2, #0
 8001130:	2102      	movs	r1, #2
 8001132:	4610      	mov	r0, r2
 8001134:	f001 fa36 	bl	80025a4 <BSP_CAMERA_Init>
 8001138:	b108      	cbz	r0, 800113e <main+0x46>
 800113a:	b672      	cpsid	i
 800113c:	e7fe      	b.n	800113c <main+0x44>
 800113e:	f44f 707a 	mov.w	r0, #1000	; 0x3e8
 8001142:	4d0d      	ldr	r5, [pc, #52]	; (8001178 <main+0x80>)
 8001144:	4c0d      	ldr	r4, [pc, #52]	; (800117c <main+0x84>)
 8001146:	f001 fcb7 	bl	8002ab8 <HAL_Delay>
 800114a:	480d      	ldr	r0, [pc, #52]	; (8001180 <main+0x88>)
 800114c:	f7ff ff3c 	bl	8000fc8 <LTDC_Init_from_buffer>
 8001150:	2202      	movs	r2, #2
 8001152:	f04f 4150 	mov.w	r1, #3489660928	; 0xd0000000
 8001156:	2000      	movs	r0, #0
 8001158:	f001 fa86 	bl	8002668 <BSP_CAMERA_Start>
 800115c:	682b      	ldr	r3, [r5, #0]
 800115e:	2b00      	cmp	r3, #0
 8001160:	d0fc      	beq.n	800115c <main+0x64>
 8001162:	2000      	movs	r0, #0
 8001164:	f001 fab6 	bl	80026d4 <BSP_CAMERA_Stop>
 8001168:	f44f 6100 	mov.w	r1, #2048	; 0x800
 800116c:	4620      	mov	r0, r4
 800116e:	f003 fe1c 	bl	8004daa <HAL_GPIO_TogglePin>
 8001172:	e7ed      	b.n	8001150 <main+0x58>
 8001174:	24000dd4 	.word	0x24000dd4
 8001178:	240002e4 	.word	0x240002e4
 800117c:	58021800 	.word	0x58021800
 8001180:	d005fa00 	.word	0xd005fa00

08001184 <BSP_CAMERA_FrameEventCallback>:
 8001184:	4b03      	ldr	r3, [pc, #12]	; (8001194 <BSP_CAMERA_FrameEventCallback+0x10>)
 8001186:	2201      	movs	r2, #1
 8001188:	4903      	ldr	r1, [pc, #12]	; (8001198 <BSP_CAMERA_FrameEventCallback+0x14>)
 800118a:	f04f 4050 	mov.w	r0, #3489660928	; 0xd0000000
 800118e:	601a      	str	r2, [r3, #0]
 8001190:	f7ff bb7a 	b.w	8000888 <DMA2D_Convert>
 8001194:	240002e4 	.word	0x240002e4
 8001198:	d005fa00 	.word	0xd005fa00

0800119c <Error_Handler>:
 800119c:	b672      	cpsid	i
 800119e:	e7fe      	b.n	800119e <Error_Handler+0x2>

080011a0 <OV5640_DeInit>:
 80011a0:	f890 3024 	ldrb.w	r3, [r0, #36]	; 0x24
 80011a4:	2b01      	cmp	r3, #1
 80011a6:	bf04      	itt	eq
 80011a8:	2300      	moveq	r3, #0
 80011aa:	f880 3024 	strbeq.w	r3, [r0, #36]	; 0x24
 80011ae:	2000      	movs	r0, #0
 80011b0:	4770      	bx	lr

080011b2 <OV5640_GetPixelFormat>:
 80011b2:	f04f 30ff 	mov.w	r0, #4294967295	; 0xffffffff
 80011b6:	4770      	bx	lr

080011b8 <OV5640_GetCapabilities>:
 80011b8:	b160      	cbz	r0, 80011d4 <OV5640_GetCapabilities+0x1c>
 80011ba:	2301      	movs	r3, #1
 80011bc:	2000      	movs	r0, #0
 80011be:	60cb      	str	r3, [r1, #12]
 80011c0:	604b      	str	r3, [r1, #4]
 80011c2:	61cb      	str	r3, [r1, #28]
 80011c4:	624b      	str	r3, [r1, #36]	; 0x24
 80011c6:	600b      	str	r3, [r1, #0]
 80011c8:	610b      	str	r3, [r1, #16]
 80011ca:	608b      	str	r3, [r1, #8]
 80011cc:	620b      	str	r3, [r1, #32]
 80011ce:	e9c1 3305 	strd	r3, r3, [r1, #20]
 80011d2:	4770      	bx	lr
 80011d4:	f04f 30ff 	mov.w	r0, #4294967295	; 0xffffffff
 80011d8:	4770      	bx	lr

080011da <OV5640_ReadRegWrap>:
 80011da:	b410      	push	{r4}
 80011dc:	6904      	ldr	r4, [r0, #16]
 80011de:	8900      	ldrh	r0, [r0, #8]
 80011e0:	46a4      	mov	ip, r4
 80011e2:	f85d 4b04 	ldr.w	r4, [sp], #4
 80011e6:	4760      	bx	ip

080011e8 <OV5640_WriteRegWrap>:
 80011e8:	b410      	push	{r4}
 80011ea:	68c4      	ldr	r4, [r0, #12]
 80011ec:	8900      	ldrh	r0, [r0, #8]
 80011ee:	46a4      	mov	ip, r4
 80011f0:	f85d 4b04 	ldr.w	r4, [sp], #4
 80011f4:	4760      	bx	ip
	...

080011f8 <OV5640_SetResolution>:
 80011f8:	2904      	cmp	r1, #4
 80011fa:	b573      	push	{r0, r1, r4, r5, r6, lr}
 80011fc:	f200 8086 	bhi.w	800130c <OV5640_SetResolution+0x114>
 8001200:	3901      	subs	r1, #1
 8001202:	2903      	cmp	r1, #3
 8001204:	d803      	bhi.n	800120e <OV5640_SetResolution+0x16>
 8001206:	e8df f001 	tbb	[pc, r1]
 800120a:	361d      	.short	0x361d
 800120c:	684f      	.short	0x684f
 800120e:	2500      	movs	r5, #0
 8001210:	4e40      	ldr	r6, [pc, #256]	; (8001314 <OV5640_SetResolution+0x11c>)
 8001212:	f100 0418 	add.w	r4, r0, #24
 8001216:	462b      	mov	r3, r5
 8001218:	b96b      	cbnz	r3, 8001236 <OV5640_SetResolution+0x3e>
 800121a:	8873      	ldrh	r3, [r6, #2]
 800121c:	f10d 0207 	add.w	r2, sp, #7
 8001220:	8831      	ldrh	r1, [r6, #0]
 8001222:	4620      	mov	r0, r4
 8001224:	f88d 3007 	strb.w	r3, [sp, #7]
 8001228:	2301      	movs	r3, #1
 800122a:	f000 ff40 	bl	80020ae <ov5640_write_reg>
 800122e:	3800      	subs	r0, #0
 8001230:	bf18      	it	ne
 8001232:	2001      	movne	r0, #1
 8001234:	4243      	negs	r3, r0
 8001236:	3501      	adds	r5, #1
 8001238:	3604      	adds	r6, #4
 800123a:	2d04      	cmp	r5, #4
 800123c:	d1ec      	bne.n	8001218 <OV5640_SetResolution+0x20>
 800123e:	4618      	mov	r0, r3
 8001240:	b002      	add	sp, #8
 8001242:	bd70      	pop	{r4, r5, r6, pc}
 8001244:	2500      	movs	r5, #0
 8001246:	4e34      	ldr	r6, [pc, #208]	; (8001318 <OV5640_SetResolution+0x120>)
 8001248:	f100 0418 	add.w	r4, r0, #24
 800124c:	462b      	mov	r3, r5
 800124e:	b96b      	cbnz	r3, 800126c <OV5640_SetResolution+0x74>
 8001250:	8873      	ldrh	r3, [r6, #2]
 8001252:	f10d 0207 	add.w	r2, sp, #7
 8001256:	8831      	ldrh	r1, [r6, #0]
 8001258:	4620      	mov	r0, r4
 800125a:	f88d 3007 	strb.w	r3, [sp, #7]
 800125e:	2301      	movs	r3, #1
 8001260:	f000 ff25 	bl	80020ae <ov5640_write_reg>
 8001264:	3800      	subs	r0, #0
 8001266:	bf18      	it	ne
 8001268:	2001      	movne	r0, #1
 800126a:	4243      	negs	r3, r0
 800126c:	3501      	adds	r5, #1
 800126e:	3604      	adds	r6, #4
 8001270:	2d04      	cmp	r5, #4
 8001272:	d1ec      	bne.n	800124e <OV5640_SetResolution+0x56>
 8001274:	e7e3      	b.n	800123e <OV5640_SetResolution+0x46>
 8001276:	2500      	movs	r5, #0
 8001278:	4e28      	ldr	r6, [pc, #160]	; (800131c <OV5640_SetResolution+0x124>)
 800127a:	f100 0418 	add.w	r4, r0, #24
 800127e:	462b      	mov	r3, r5
 8001280:	b96b      	cbnz	r3, 800129e <OV5640_SetResolution+0xa6>
 8001282:	8873      	ldrh	r3, [r6, #2]
 8001284:	f10d 0207 	add.w	r2, sp, #7
 8001288:	8831      	ldrh	r1, [r6, #0]
 800128a:	4620      	mov	r0, r4
 800128c:	f88d 3007 	strb.w	r3, [sp, #7]
 8001290:	2301      	movs	r3, #1
 8001292:	f000 ff0c 	bl	80020ae <ov5640_write_reg>
 8001296:	3800      	subs	r0, #0
 8001298:	bf18      	it	ne
 800129a:	2001      	movne	r0, #1
 800129c:	4243      	negs	r3, r0
 800129e:	3501      	adds	r5, #1
 80012a0:	3604      	adds	r6, #4
 80012a2:	2d04      	cmp	r5, #4
 80012a4:	d1ec      	bne.n	8001280 <OV5640_SetResolution+0x88>
 80012a6:	e7ca      	b.n	800123e <OV5640_SetResolution+0x46>
 80012a8:	2500      	movs	r5, #0
 80012aa:	4e1d      	ldr	r6, [pc, #116]	; (8001320 <OV5640_SetResolution+0x128>)
 80012ac:	f100 0418 	add.w	r4, r0, #24
 80012b0:	462b      	mov	r3, r5
 80012b2:	b96b      	cbnz	r3, 80012d0 <OV5640_SetResolution+0xd8>
 80012b4:	8873      	ldrh	r3, [r6, #2]
 80012b6:	f10d 0207 	add.w	r2, sp, #7
 80012ba:	8831      	ldrh	r1, [r6, #0]
 80012bc:	4620      	mov	r0, r4
 80012be:	f88d 3007 	strb.w	r3, [sp, #7]
 80012c2:	2301      	movs	r3, #1
 80012c4:	f000 fef3 	bl	80020ae <ov5640_write_reg>
 80012c8:	3800      	subs	r0, #0
 80012ca:	bf18      	it	ne
 80012cc:	2001      	movne	r0, #1
 80012ce:	4243      	negs	r3, r0
 80012d0:	3501      	adds	r5, #1
 80012d2:	3604      	adds	r6, #4
 80012d4:	2d04      	cmp	r5, #4
 80012d6:	d1ec      	bne.n	80012b2 <OV5640_SetResolution+0xba>
 80012d8:	e7b1      	b.n	800123e <OV5640_SetResolution+0x46>
 80012da:	2500      	movs	r5, #0
 80012dc:	4e11      	ldr	r6, [pc, #68]	; (8001324 <OV5640_SetResolution+0x12c>)
 80012de:	f100 0418 	add.w	r4, r0, #24
 80012e2:	462b      	mov	r3, r5
 80012e4:	b96b      	cbnz	r3, 8001302 <OV5640_SetResolution+0x10a>
 80012e6:	8873      	ldrh	r3, [r6, #2]
 80012e8:	f10d 0207 	add.w	r2, sp, #7
 80012ec:	8831      	ldrh	r1, [r6, #0]
 80012ee:	4620      	mov	r0, r4
 80012f0:	f88d 3007 	strb.w	r3, [sp, #7]
 80012f4:	2301      	movs	r3, #1
 80012f6:	f000 feda 	bl	80020ae <ov5640_write_reg>
 80012fa:	3800      	subs	r0, #0
 80012fc:	bf18      	it	ne
 80012fe:	2001      	movne	r0, #1
 8001300:	4243      	negs	r3, r0
 8001302:	3501      	adds	r5, #1
 8001304:	3604      	adds	r6, #4
 8001306:	2d04      	cmp	r5, #4
 8001308:	d1ec      	bne.n	80012e4 <OV5640_SetResolution+0xec>
 800130a:	e798      	b.n	800123e <OV5640_SetResolution+0x46>
 800130c:	f04f 33ff 	mov.w	r3, #4294967295	; 0xffffffff
 8001310:	e795      	b.n	800123e <OV5640_SetResolution+0x46>
 8001312:	bf00      	nop
 8001314:	08008e82 	.word	0x08008e82
 8001318:	08008e92 	.word	0x08008e92
 800131c:	080089ee 	.word	0x080089ee
 8001320:	08008ea2 	.word	0x08008ea2
 8001324:	08008eb2 	.word	0x08008eb2

08001328 <OV5640_SetLightMode>:
 8001328:	b573      	push	{r0, r1, r4, r5, r6, lr}
 800132a:	2300      	movs	r3, #0
 800132c:	f100 0418 	add.w	r4, r0, #24
 8001330:	460d      	mov	r5, r1
 8001332:	f10d 0207 	add.w	r2, sp, #7
 8001336:	f88d 3007 	strb.w	r3, [sp, #7]
 800133a:	f243 4106 	movw	r1, #13318	; 0x3406
 800133e:	2301      	movs	r3, #1
 8001340:	4620      	mov	r0, r4
 8001342:	f000 feb4 	bl	80020ae <ov5640_write_reg>
 8001346:	2800      	cmp	r0, #0
 8001348:	d143      	bne.n	80013d2 <OV5640_SetLightMode+0xaa>
 800134a:	2346      	movs	r3, #70	; 0x46
 800134c:	f10d 0207 	add.w	r2, sp, #7
 8001350:	f245 1190 	movw	r1, #20880	; 0x5190
 8001354:	4620      	mov	r0, r4
 8001356:	f88d 3007 	strb.w	r3, [sp, #7]
 800135a:	2301      	movs	r3, #1
 800135c:	f000 fea7 	bl	80020ae <ov5640_write_reg>
 8001360:	2800      	cmp	r0, #0
 8001362:	d136      	bne.n	80013d2 <OV5640_SetLightMode+0xaa>
 8001364:	23f8      	movs	r3, #248	; 0xf8
 8001366:	f10d 0207 	add.w	r2, sp, #7
 800136a:	f245 1191 	movw	r1, #20881	; 0x5191
 800136e:	4620      	mov	r0, r4
 8001370:	f88d 3007 	strb.w	r3, [sp, #7]
 8001374:	2301      	movs	r3, #1
 8001376:	f000 fe9a 	bl	80020ae <ov5640_write_reg>
 800137a:	bb50      	cbnz	r0, 80013d2 <OV5640_SetLightMode+0xaa>
 800137c:	2304      	movs	r3, #4
 800137e:	f10d 0207 	add.w	r2, sp, #7
 8001382:	f245 1192 	movw	r1, #20882	; 0x5192
 8001386:	4620      	mov	r0, r4
 8001388:	f88d 3007 	strb.w	r3, [sp, #7]
 800138c:	2301      	movs	r3, #1
 800138e:	f000 fe8e 	bl	80020ae <ov5640_write_reg>
 8001392:	b9f0      	cbnz	r0, 80013d2 <OV5640_SetLightMode+0xaa>
 8001394:	1e69      	subs	r1, r5, #1
 8001396:	2907      	cmp	r1, #7
 8001398:	d862      	bhi.n	8001460 <OV5640_SetLightMode+0x138>
 800139a:	e8df f001 	tbb	[pc, r1]
 800139e:	1c04      	.short	0x1c04
 80013a0:	61614a61 	.word	0x61614a61
 80013a4:	3361      	.short	0x3361
 80013a6:	4d3a      	ldr	r5, [pc, #232]	; (8001490 <OV5640_SetLightMode+0x168>)
 80013a8:	2600      	movs	r6, #0
 80013aa:	1c42      	adds	r2, r0, #1
 80013ac:	d00d      	beq.n	80013ca <OV5640_SetLightMode+0xa2>
 80013ae:	886b      	ldrh	r3, [r5, #2]
 80013b0:	f10d 0207 	add.w	r2, sp, #7
 80013b4:	8829      	ldrh	r1, [r5, #0]
 80013b6:	4620      	mov	r0, r4
 80013b8:	f88d 3007 	strb.w	r3, [sp, #7]
 80013bc:	2301      	movs	r3, #1
 80013be:	f000 fe76 	bl	80020ae <ov5640_write_reg>
 80013c2:	3800      	subs	r0, #0
 80013c4:	bf18      	it	ne
 80013c6:	2001      	movne	r0, #1
 80013c8:	4240      	negs	r0, r0
 80013ca:	3601      	adds	r6, #1
 80013cc:	3504      	adds	r5, #4
 80013ce:	2e07      	cmp	r6, #7
 80013d0:	d1eb      	bne.n	80013aa <OV5640_SetLightMode+0x82>
 80013d2:	b002      	add	sp, #8
 80013d4:	bd70      	pop	{r4, r5, r6, pc}
 80013d6:	4d2f      	ldr	r5, [pc, #188]	; (8001494 <OV5640_SetLightMode+0x16c>)
 80013d8:	2600      	movs	r6, #0
 80013da:	1c43      	adds	r3, r0, #1
 80013dc:	d00d      	beq.n	80013fa <OV5640_SetLightMode+0xd2>
 80013de:	886b      	ldrh	r3, [r5, #2]
 80013e0:	f10d 0207 	add.w	r2, sp, #7
 80013e4:	8829      	ldrh	r1, [r5, #0]
 80013e6:	4620      	mov	r0, r4
 80013e8:	f88d 3007 	strb.w	r3, [sp, #7]
 80013ec:	2301      	movs	r3, #1
 80013ee:	f000 fe5e 	bl	80020ae <ov5640_write_reg>
 80013f2:	3800      	subs	r0, #0
 80013f4:	bf18      	it	ne
 80013f6:	2001      	movne	r0, #1
 80013f8:	4240      	negs	r0, r0
 80013fa:	3601      	adds	r6, #1
 80013fc:	3504      	adds	r5, #4
 80013fe:	2e07      	cmp	r6, #7
 8001400:	d1eb      	bne.n	80013da <OV5640_SetLightMode+0xb2>
 8001402:	e7e6      	b.n	80013d2 <OV5640_SetLightMode+0xaa>
 8001404:	4d24      	ldr	r5, [pc, #144]	; (8001498 <OV5640_SetLightMode+0x170>)
 8001406:	2600      	movs	r6, #0
 8001408:	1c41      	adds	r1, r0, #1
 800140a:	d00d      	beq.n	8001428 <OV5640_SetLightMode+0x100>
 800140c:	886b      	ldrh	r3, [r5, #2]
 800140e:	f10d 0207 	add.w	r2, sp, #7
 8001412:	8829      	ldrh	r1, [r5, #0]
 8001414:	4620      	mov	r0, r4
 8001416:	f88d 3007 	strb.w	r3, [sp, #7]
 800141a:	2301      	movs	r3, #1
 800141c:	f000 fe47 	bl	80020ae <ov5640_write_reg>
 8001420:	3800      	subs	r0, #0
 8001422:	bf18      	it	ne
 8001424:	2001      	movne	r0, #1
 8001426:	4240      	negs	r0, r0
 8001428:	3601      	adds	r6, #1
 800142a:	3504      	adds	r5, #4
 800142c:	2e07      	cmp	r6, #7
 800142e:	d1eb      	bne.n	8001408 <OV5640_SetLightMode+0xe0>
 8001430:	e7cf      	b.n	80013d2 <OV5640_SetLightMode+0xaa>
 8001432:	4d1a      	ldr	r5, [pc, #104]	; (800149c <OV5640_SetLightMode+0x174>)
 8001434:	2600      	movs	r6, #0
 8001436:	1c42      	adds	r2, r0, #1
 8001438:	d00d      	beq.n	8001456 <OV5640_SetLightMode+0x12e>
 800143a:	886b      	ldrh	r3, [r5, #2]
 800143c:	f10d 0207 	add.w	r2, sp, #7
 8001440:	8829      	ldrh	r1, [r5, #0]
 8001442:	4620      	mov	r0, r4
 8001444:	f88d 3007 	strb.w	r3, [sp, #7]
 8001448:	2301      	movs	r3, #1
 800144a:	f000 fe30 	bl	80020ae <ov5640_write_reg>
 800144e:	3800      	subs	r0, #0
 8001450:	bf18      	it	ne
 8001452:	2001      	movne	r0, #1
 8001454:	4240      	negs	r0, r0
 8001456:	3601      	adds	r6, #1
 8001458:	3504      	adds	r5, #4
 800145a:	2e07      	cmp	r6, #7
 800145c:	d1eb      	bne.n	8001436 <OV5640_SetLightMode+0x10e>
 800145e:	e7b8      	b.n	80013d2 <OV5640_SetLightMode+0xaa>
 8001460:	4d0f      	ldr	r5, [pc, #60]	; (80014a0 <OV5640_SetLightMode+0x178>)
 8001462:	2600      	movs	r6, #0
 8001464:	1c43      	adds	r3, r0, #1
 8001466:	d00d      	beq.n	8001484 <OV5640_SetLightMode+0x15c>
 8001468:	886b      	ldrh	r3, [r5, #2]
 800146a:	f10d 0207 	add.w	r2, sp, #7
 800146e:	8829      	ldrh	r1, [r5, #0]
 8001470:	4620      	mov	r0, r4
 8001472:	f88d 3007 	strb.w	r3, [sp, #7]
 8001476:	2301      	movs	r3, #1
 8001478:	f000 fe19 	bl	80020ae <ov5640_write_reg>
 800147c:	3800      	subs	r0, #0
 800147e:	bf18      	it	ne
 8001480:	2001      	movne	r0, #1
 8001482:	4240      	negs	r0, r0
 8001484:	3601      	adds	r6, #1
 8001486:	3504      	adds	r5, #4
 8001488:	2e07      	cmp	r6, #7
 800148a:	d1eb      	bne.n	8001464 <OV5640_SetLightMode+0x13c>
 800148c:	e7a1      	b.n	80013d2 <OV5640_SetLightMode+0xaa>
 800148e:	bf00      	nop
 8001490:	08008e66 	.word	0x08008e66
 8001494:	08008e4a 	.word	0x08008e4a
 8001498:	08008e12 	.word	0x08008e12
 800149c:	08008e2e 	.word	0x08008e2e
 80014a0:	08008df6 	.word	0x08008df6

080014a4 <OV5640_SetColorEffect>:
 80014a4:	2908      	cmp	r1, #8
 80014a6:	b537      	push	{r0, r1, r2, r4, r5, lr}
 80014a8:	f100 0418 	add.w	r4, r0, #24
 80014ac:	d809      	bhi.n	80014c2 <OV5640_SetColorEffect+0x1e>
 80014ae:	b171      	cbz	r1, 80014ce <OV5640_SetColorEffect+0x2a>
 80014b0:	3901      	subs	r1, #1
 80014b2:	2907      	cmp	r1, #7
 80014b4:	d80b      	bhi.n	80014ce <OV5640_SetColorEffect+0x2a>
 80014b6:	e8df f001 	tbb	[pc, r1]
 80014ba:	4719      	.short	0x4719
 80014bc:	0a0a700a 	.word	0x0a0a700a
 80014c0:	a60a      	.short	0xa60a
 80014c2:	2910      	cmp	r1, #16
 80014c4:	f000 80bd 	beq.w	8001642 <OV5640_SetColorEffect+0x19e>
 80014c8:	2920      	cmp	r1, #32
 80014ca:	f000 80e6 	beq.w	800169a <OV5640_SetColorEffect+0x1f6>
 80014ce:	237f      	movs	r3, #127	; 0x7f
 80014d0:	f10d 0207 	add.w	r2, sp, #7
 80014d4:	f245 0101 	movw	r1, #20481	; 0x5001
 80014d8:	4620      	mov	r0, r4
 80014da:	f88d 3007 	strb.w	r3, [sp, #7]
 80014de:	2301      	movs	r3, #1
 80014e0:	f000 fde5 	bl	80020ae <ov5640_write_reg>
 80014e4:	b970      	cbnz	r0, 8001504 <OV5640_SetColorEffect+0x60>
 80014e6:	f88d 0007 	strb.w	r0, [sp, #7]
 80014ea:	e0e7      	b.n	80016bc <OV5640_SetColorEffect+0x218>
 80014ec:	23ff      	movs	r3, #255	; 0xff
 80014ee:	f10d 0207 	add.w	r2, sp, #7
 80014f2:	f245 0101 	movw	r1, #20481	; 0x5001
 80014f6:	4620      	mov	r0, r4
 80014f8:	f88d 3007 	strb.w	r3, [sp, #7]
 80014fc:	2301      	movs	r3, #1
 80014fe:	f000 fdd6 	bl	80020ae <ov5640_write_reg>
 8001502:	b118      	cbz	r0, 800150c <OV5640_SetColorEffect+0x68>
 8001504:	f04f 30ff 	mov.w	r0, #4294967295	; 0xffffffff
 8001508:	b003      	add	sp, #12
 800150a:	bd30      	pop	{r4, r5, pc}
 800150c:	2318      	movs	r3, #24
 800150e:	f10d 0207 	add.w	r2, sp, #7
 8001512:	f44f 41ab 	mov.w	r1, #21888	; 0x5580
 8001516:	4620      	mov	r0, r4
 8001518:	f88d 3007 	strb.w	r3, [sp, #7]
 800151c:	2301      	movs	r3, #1
 800151e:	f000 fdc6 	bl	80020ae <ov5640_write_reg>
 8001522:	2800      	cmp	r0, #0
 8001524:	d1ee      	bne.n	8001504 <OV5640_SetColorEffect+0x60>
 8001526:	23a0      	movs	r3, #160	; 0xa0
 8001528:	f10d 0207 	add.w	r2, sp, #7
 800152c:	f245 5183 	movw	r1, #21891	; 0x5583
 8001530:	4620      	mov	r0, r4
 8001532:	f88d 3007 	strb.w	r3, [sp, #7]
 8001536:	2301      	movs	r3, #1
 8001538:	f000 fdb9 	bl	80020ae <ov5640_write_reg>
 800153c:	2800      	cmp	r0, #0
 800153e:	d1e1      	bne.n	8001504 <OV5640_SetColorEffect+0x60>
 8001540:	2340      	movs	r3, #64	; 0x40
 8001542:	f88d 3007 	strb.w	r3, [sp, #7]
 8001546:	e051      	b.n	80015ec <OV5640_SetColorEffect+0x148>
 8001548:	23ff      	movs	r3, #255	; 0xff
 800154a:	f10d 0207 	add.w	r2, sp, #7
 800154e:	f245 0101 	movw	r1, #20481	; 0x5001
 8001552:	4620      	mov	r0, r4
 8001554:	f88d 3007 	strb.w	r3, [sp, #7]
 8001558:	2301      	movs	r3, #1
 800155a:	f000 fda8 	bl	80020ae <ov5640_write_reg>
 800155e:	2800      	cmp	r0, #0
 8001560:	d1d0      	bne.n	8001504 <OV5640_SetColorEffect+0x60>
 8001562:	2318      	movs	r3, #24
 8001564:	f10d 0207 	add.w	r2, sp, #7
 8001568:	f44f 41ab 	mov.w	r1, #21888	; 0x5580
 800156c:	4620      	mov	r0, r4
 800156e:	f88d 3007 	strb.w	r3, [sp, #7]
 8001572:	2301      	movs	r3, #1
 8001574:	f000 fd9b 	bl	80020ae <ov5640_write_reg>
 8001578:	2800      	cmp	r0, #0
 800157a:	d1c3      	bne.n	8001504 <OV5640_SetColorEffect+0x60>
 800157c:	2380      	movs	r3, #128	; 0x80
 800157e:	f10d 0207 	add.w	r2, sp, #7
 8001582:	f245 5183 	movw	r1, #21891	; 0x5583
 8001586:	4620      	mov	r0, r4
 8001588:	f88d 3007 	strb.w	r3, [sp, #7]
 800158c:	2301      	movs	r3, #1
 800158e:	f000 fd8e 	bl	80020ae <ov5640_write_reg>
 8001592:	2800      	cmp	r0, #0
 8001594:	d1b6      	bne.n	8001504 <OV5640_SetColorEffect+0x60>
 8001596:	23c0      	movs	r3, #192	; 0xc0
 8001598:	e7d3      	b.n	8001542 <OV5640_SetColorEffect+0x9e>
 800159a:	23ff      	movs	r3, #255	; 0xff
 800159c:	f10d 0207 	add.w	r2, sp, #7
 80015a0:	f245 0101 	movw	r1, #20481	; 0x5001
 80015a4:	4620      	mov	r0, r4
 80015a6:	f88d 3007 	strb.w	r3, [sp, #7]
 80015aa:	2301      	movs	r3, #1
 80015ac:	f000 fd7f 	bl	80020ae <ov5640_write_reg>
 80015b0:	2800      	cmp	r0, #0
 80015b2:	d1a7      	bne.n	8001504 <OV5640_SetColorEffect+0x60>
 80015b4:	2318      	movs	r3, #24
 80015b6:	f10d 0207 	add.w	r2, sp, #7
 80015ba:	f44f 41ab 	mov.w	r1, #21888	; 0x5580
 80015be:	4620      	mov	r0, r4
 80015c0:	f88d 3007 	strb.w	r3, [sp, #7]
 80015c4:	2301      	movs	r3, #1
 80015c6:	f000 fd72 	bl	80020ae <ov5640_write_reg>
 80015ca:	2800      	cmp	r0, #0
 80015cc:	d19a      	bne.n	8001504 <OV5640_SetColorEffect+0x60>
 80015ce:	2560      	movs	r5, #96	; 0x60
 80015d0:	2301      	movs	r3, #1
 80015d2:	f10d 0207 	add.w	r2, sp, #7
 80015d6:	f245 5183 	movw	r1, #21891	; 0x5583
 80015da:	4620      	mov	r0, r4
 80015dc:	f88d 5007 	strb.w	r5, [sp, #7]
 80015e0:	f000 fd65 	bl	80020ae <ov5640_write_reg>
 80015e4:	2800      	cmp	r0, #0
 80015e6:	d18d      	bne.n	8001504 <OV5640_SetColorEffect+0x60>
 80015e8:	f88d 5007 	strb.w	r5, [sp, #7]
 80015ec:	2301      	movs	r3, #1
 80015ee:	f10d 0207 	add.w	r2, sp, #7
 80015f2:	f245 5184 	movw	r1, #21892	; 0x5584
 80015f6:	4620      	mov	r0, r4
 80015f8:	f000 fd59 	bl	80020ae <ov5640_write_reg>
 80015fc:	3800      	subs	r0, #0
 80015fe:	bf18      	it	ne
 8001600:	2001      	movne	r0, #1
 8001602:	4240      	negs	r0, r0
 8001604:	e780      	b.n	8001508 <OV5640_SetColorEffect+0x64>
 8001606:	23ff      	movs	r3, #255	; 0xff
 8001608:	f10d 0207 	add.w	r2, sp, #7
 800160c:	f245 0101 	movw	r1, #20481	; 0x5001
 8001610:	4620      	mov	r0, r4
 8001612:	f88d 3007 	strb.w	r3, [sp, #7]
 8001616:	2301      	movs	r3, #1
 8001618:	f000 fd49 	bl	80020ae <ov5640_write_reg>
 800161c:	2800      	cmp	r0, #0
 800161e:	f47f af71 	bne.w	8001504 <OV5640_SetColorEffect+0x60>
 8001622:	2318      	movs	r3, #24
 8001624:	f10d 0207 	add.w	r2, sp, #7
 8001628:	f44f 41ab 	mov.w	r1, #21888	; 0x5580
 800162c:	4620      	mov	r0, r4
 800162e:	f88d 3007 	strb.w	r3, [sp, #7]
 8001632:	2301      	movs	r3, #1
 8001634:	f000 fd3b 	bl	80020ae <ov5640_write_reg>
 8001638:	2800      	cmp	r0, #0
 800163a:	f47f af63 	bne.w	8001504 <OV5640_SetColorEffect+0x60>
 800163e:	2580      	movs	r5, #128	; 0x80
 8001640:	e7c6      	b.n	80015d0 <OV5640_SetColorEffect+0x12c>
 8001642:	23ff      	movs	r3, #255	; 0xff
 8001644:	f10d 0207 	add.w	r2, sp, #7
 8001648:	f245 0101 	movw	r1, #20481	; 0x5001
 800164c:	4620      	mov	r0, r4
 800164e:	f88d 3007 	strb.w	r3, [sp, #7]
 8001652:	2301      	movs	r3, #1
 8001654:	f000 fd2b 	bl	80020ae <ov5640_write_reg>
 8001658:	2800      	cmp	r0, #0
 800165a:	f47f af53 	bne.w	8001504 <OV5640_SetColorEffect+0x60>
 800165e:	2318      	movs	r3, #24
 8001660:	f10d 0207 	add.w	r2, sp, #7
 8001664:	f44f 41ab 	mov.w	r1, #21888	; 0x5580
 8001668:	4620      	mov	r0, r4
 800166a:	f88d 3007 	strb.w	r3, [sp, #7]
 800166e:	2301      	movs	r3, #1
 8001670:	f000 fd1d 	bl	80020ae <ov5640_write_reg>
 8001674:	2800      	cmp	r0, #0
 8001676:	f47f af45 	bne.w	8001504 <OV5640_SetColorEffect+0x60>
 800167a:	2340      	movs	r3, #64	; 0x40
 800167c:	f10d 0207 	add.w	r2, sp, #7
 8001680:	f245 5183 	movw	r1, #21891	; 0x5583
 8001684:	4620      	mov	r0, r4
 8001686:	f88d 3007 	strb.w	r3, [sp, #7]
 800168a:	2301      	movs	r3, #1
 800168c:	f000 fd0f 	bl	80020ae <ov5640_write_reg>
 8001690:	2800      	cmp	r0, #0
 8001692:	f47f af37 	bne.w	8001504 <OV5640_SetColorEffect+0x60>
 8001696:	23a0      	movs	r3, #160	; 0xa0
 8001698:	e753      	b.n	8001542 <OV5640_SetColorEffect+0x9e>
 800169a:	23ff      	movs	r3, #255	; 0xff
 800169c:	f10d 0207 	add.w	r2, sp, #7
 80016a0:	f245 0101 	movw	r1, #20481	; 0x5001
 80016a4:	4620      	mov	r0, r4
 80016a6:	f88d 3007 	strb.w	r3, [sp, #7]
 80016aa:	2301      	movs	r3, #1
 80016ac:	f000 fcff 	bl	80020ae <ov5640_write_reg>
 80016b0:	2800      	cmp	r0, #0
 80016b2:	f47f af27 	bne.w	8001504 <OV5640_SetColorEffect+0x60>
 80016b6:	2340      	movs	r3, #64	; 0x40
 80016b8:	f88d 3007 	strb.w	r3, [sp, #7]
 80016bc:	2301      	movs	r3, #1
 80016be:	f10d 0207 	add.w	r2, sp, #7
 80016c2:	f44f 41ab 	mov.w	r1, #21888	; 0x5580
 80016c6:	e796      	b.n	80015f6 <OV5640_SetColorEffect+0x152>

080016c8 <OV5640_SetBrightness>:
 80016c8:	b530      	push	{r4, r5, lr}
 80016ca:	4a25      	ldr	r2, [pc, #148]	; (8001760 <OV5640_SetBrightness+0x98>)
 80016cc:	b085      	sub	sp, #20
 80016ce:	4604      	mov	r4, r0
 80016d0:	460d      	mov	r5, r1
 80016d2:	6810      	ldr	r0, [r2, #0]
 80016d4:	ab01      	add	r3, sp, #4
 80016d6:	6851      	ldr	r1, [r2, #4]
 80016d8:	3418      	adds	r4, #24
 80016da:	7a12      	ldrb	r2, [r2, #8]
 80016dc:	c303      	stmia	r3!, {r0, r1}
 80016de:	701a      	strb	r2, [r3, #0]
 80016e0:	23ff      	movs	r3, #255	; 0xff
 80016e2:	f10d 0203 	add.w	r2, sp, #3
 80016e6:	f245 0101 	movw	r1, #20481	; 0x5001
 80016ea:	f88d 3003 	strb.w	r3, [sp, #3]
 80016ee:	4620      	mov	r0, r4
 80016f0:	2301      	movs	r3, #1
 80016f2:	f000 fcdc 	bl	80020ae <ov5640_write_reg>
 80016f6:	bb80      	cbnz	r0, 800175a <OV5640_SetBrightness+0x92>
 80016f8:	f105 0310 	add.w	r3, r5, #16
 80016fc:	f10d 0203 	add.w	r2, sp, #3
 8001700:	f245 5187 	movw	r1, #21895	; 0x5587
 8001704:	4620      	mov	r0, r4
 8001706:	446b      	add	r3, sp
 8001708:	f813 3c08 	ldrb.w	r3, [r3, #-8]
 800170c:	f88d 3003 	strb.w	r3, [sp, #3]
 8001710:	2301      	movs	r3, #1
 8001712:	f000 fccc 	bl	80020ae <ov5640_write_reg>
 8001716:	bb00      	cbnz	r0, 800175a <OV5640_SetBrightness+0x92>
 8001718:	2304      	movs	r3, #4
 800171a:	f10d 0203 	add.w	r2, sp, #3
 800171e:	f44f 41ab 	mov.w	r1, #21888	; 0x5580
 8001722:	4620      	mov	r0, r4
 8001724:	f88d 3003 	strb.w	r3, [sp, #3]
 8001728:	2301      	movs	r3, #1
 800172a:	f000 fcc0 	bl	80020ae <ov5640_write_reg>
 800172e:	b9a0      	cbnz	r0, 800175a <OV5640_SetBrightness+0x92>
 8001730:	2d00      	cmp	r5, #0
 8001732:	f10d 0203 	add.w	r2, sp, #3
 8001736:	f245 5188 	movw	r1, #21896	; 0x5588
 800173a:	4620      	mov	r0, r4
 800173c:	bfa9      	itett	ge
 800173e:	2309      	movge	r3, #9
 8001740:	2301      	movlt	r3, #1
 8001742:	f88d 3003 	strbge.w	r3, [sp, #3]
 8001746:	2301      	movge	r3, #1
 8001748:	bfb8      	it	lt
 800174a:	f88d 3003 	strblt.w	r3, [sp, #3]
 800174e:	f000 fcae 	bl	80020ae <ov5640_write_reg>
 8001752:	3800      	subs	r0, #0
 8001754:	bf18      	it	ne
 8001756:	2001      	movne	r0, #1
 8001758:	4240      	negs	r0, r0
 800175a:	b005      	add	sp, #20
 800175c:	bd30      	pop	{r4, r5, pc}
 800175e:	bf00      	nop
 8001760:	080089ac 	.word	0x080089ac

08001764 <OV5640_SetSaturation>:
 8001764:	b530      	push	{r4, r5, lr}
 8001766:	4a2b      	ldr	r2, [pc, #172]	; (8001814 <OV5640_SetSaturation+0xb0>)
 8001768:	b085      	sub	sp, #20
 800176a:	4604      	mov	r4, r0
 800176c:	460d      	mov	r5, r1
 800176e:	f8d2 0009 	ldr.w	r0, [r2, #9]
 8001772:	ab01      	add	r3, sp, #4
 8001774:	f8d2 100d 	ldr.w	r1, [r2, #13]
 8001778:	3418      	adds	r4, #24
 800177a:	7c52      	ldrb	r2, [r2, #17]
 800177c:	c303      	stmia	r3!, {r0, r1}
 800177e:	701a      	strb	r2, [r3, #0]
 8001780:	23ff      	movs	r3, #255	; 0xff
 8001782:	f10d 0203 	add.w	r2, sp, #3
 8001786:	f245 0101 	movw	r1, #20481	; 0x5001
 800178a:	f88d 3003 	strb.w	r3, [sp, #3]
 800178e:	4620      	mov	r0, r4
 8001790:	2301      	movs	r3, #1
 8001792:	f000 fc8c 	bl	80020ae <ov5640_write_reg>
 8001796:	b118      	cbz	r0, 80017a0 <OV5640_SetSaturation+0x3c>
 8001798:	f04f 30ff 	mov.w	r0, #4294967295	; 0xffffffff
 800179c:	b005      	add	sp, #20
 800179e:	bd30      	pop	{r4, r5, pc}
 80017a0:	f105 0310 	add.w	r3, r5, #16
 80017a4:	f10d 0203 	add.w	r2, sp, #3
 80017a8:	f245 5183 	movw	r1, #21891	; 0x5583
 80017ac:	4620      	mov	r0, r4
 80017ae:	eb0d 0503 	add.w	r5, sp, r3
 80017b2:	f815 3c08 	ldrb.w	r3, [r5, #-8]
 80017b6:	f88d 3003 	strb.w	r3, [sp, #3]
 80017ba:	2301      	movs	r3, #1
 80017bc:	f000 fc77 	bl	80020ae <ov5640_write_reg>
 80017c0:	2800      	cmp	r0, #0
 80017c2:	d1e9      	bne.n	8001798 <OV5640_SetSaturation+0x34>
 80017c4:	2301      	movs	r3, #1
 80017c6:	f10d 0203 	add.w	r2, sp, #3
 80017ca:	f245 5184 	movw	r1, #21892	; 0x5584
 80017ce:	4620      	mov	r0, r4
 80017d0:	f000 fc6d 	bl	80020ae <ov5640_write_reg>
 80017d4:	2800      	cmp	r0, #0
 80017d6:	d1df      	bne.n	8001798 <OV5640_SetSaturation+0x34>
 80017d8:	2302      	movs	r3, #2
 80017da:	f10d 0203 	add.w	r2, sp, #3
 80017de:	f44f 41ab 	mov.w	r1, #21888	; 0x5580
 80017e2:	4620      	mov	r0, r4
 80017e4:	f88d 3003 	strb.w	r3, [sp, #3]
 80017e8:	2301      	movs	r3, #1
 80017ea:	f000 fc60 	bl	80020ae <ov5640_write_reg>
 80017ee:	2800      	cmp	r0, #0
 80017f0:	d1d2      	bne.n	8001798 <OV5640_SetSaturation+0x34>
 80017f2:	2341      	movs	r3, #65	; 0x41
 80017f4:	f10d 0203 	add.w	r2, sp, #3
 80017f8:	f245 5188 	movw	r1, #21896	; 0x5588
 80017fc:	4620      	mov	r0, r4
 80017fe:	f88d 3003 	strb.w	r3, [sp, #3]
 8001802:	2301      	movs	r3, #1
 8001804:	f000 fc53 	bl	80020ae <ov5640_write_reg>
 8001808:	3800      	subs	r0, #0
 800180a:	bf18      	it	ne
 800180c:	2001      	movne	r0, #1
 800180e:	4240      	negs	r0, r0
 8001810:	e7c4      	b.n	800179c <OV5640_SetSaturation+0x38>
 8001812:	bf00      	nop
 8001814:	080089ac 	.word	0x080089ac

08001818 <OV5640_SetContrast>:
 8001818:	b530      	push	{r4, r5, lr}
 800181a:	4a2a      	ldr	r2, [pc, #168]	; (80018c4 <OV5640_SetContrast+0xac>)
 800181c:	b085      	sub	sp, #20
 800181e:	4604      	mov	r4, r0
 8001820:	460d      	mov	r5, r1
 8001822:	6810      	ldr	r0, [r2, #0]
 8001824:	ab01      	add	r3, sp, #4
 8001826:	6851      	ldr	r1, [r2, #4]
 8001828:	3418      	adds	r4, #24
 800182a:	7a12      	ldrb	r2, [r2, #8]
 800182c:	c303      	stmia	r3!, {r0, r1}
 800182e:	701a      	strb	r2, [r3, #0]
 8001830:	23ff      	movs	r3, #255	; 0xff
 8001832:	f10d 0203 	add.w	r2, sp, #3
 8001836:	f245 0101 	movw	r1, #20481	; 0x5001
 800183a:	f88d 3003 	strb.w	r3, [sp, #3]
 800183e:	4620      	mov	r0, r4
 8001840:	2301      	movs	r3, #1
 8001842:	f000 fc34 	bl	80020ae <ov5640_write_reg>
 8001846:	b118      	cbz	r0, 8001850 <OV5640_SetContrast+0x38>
 8001848:	f04f 30ff 	mov.w	r0, #4294967295	; 0xffffffff
 800184c:	b005      	add	sp, #20
 800184e:	bd30      	pop	{r4, r5, pc}
 8001850:	2304      	movs	r3, #4
 8001852:	f10d 0203 	add.w	r2, sp, #3
 8001856:	f44f 41ab 	mov.w	r1, #21888	; 0x5580
 800185a:	4620      	mov	r0, r4
 800185c:	f88d 3003 	strb.w	r3, [sp, #3]
 8001860:	2301      	movs	r3, #1
 8001862:	f000 fc24 	bl	80020ae <ov5640_write_reg>
 8001866:	2800      	cmp	r0, #0
 8001868:	d1ee      	bne.n	8001848 <OV5640_SetContrast+0x30>
 800186a:	f105 0310 	add.w	r3, r5, #16
 800186e:	f10d 0203 	add.w	r2, sp, #3
 8001872:	f245 5186 	movw	r1, #21894	; 0x5586
 8001876:	4620      	mov	r0, r4
 8001878:	eb0d 0503 	add.w	r5, sp, r3
 800187c:	f815 3c08 	ldrb.w	r3, [r5, #-8]
 8001880:	f88d 3003 	strb.w	r3, [sp, #3]
 8001884:	2301      	movs	r3, #1
 8001886:	f000 fc12 	bl	80020ae <ov5640_write_reg>
 800188a:	2800      	cmp	r0, #0
 800188c:	d1dc      	bne.n	8001848 <OV5640_SetContrast+0x30>
 800188e:	2301      	movs	r3, #1
 8001890:	f10d 0203 	add.w	r2, sp, #3
 8001894:	f245 5185 	movw	r1, #21893	; 0x5585
 8001898:	4620      	mov	r0, r4
 800189a:	f000 fc08 	bl	80020ae <ov5640_write_reg>
 800189e:	2800      	cmp	r0, #0
 80018a0:	d1d2      	bne.n	8001848 <OV5640_SetContrast+0x30>
 80018a2:	2341      	movs	r3, #65	; 0x41
 80018a4:	f10d 0203 	add.w	r2, sp, #3
 80018a8:	f245 5188 	movw	r1, #21896	; 0x5588
 80018ac:	4620      	mov	r0, r4
 80018ae:	f88d 3003 	strb.w	r3, [sp, #3]
 80018b2:	2301      	movs	r3, #1
 80018b4:	f000 fbfb 	bl	80020ae <ov5640_write_reg>
 80018b8:	3800      	subs	r0, #0
 80018ba:	bf18      	it	ne
 80018bc:	2001      	movne	r0, #1
 80018be:	4240      	negs	r0, r0
 80018c0:	e7c4      	b.n	800184c <OV5640_SetContrast+0x34>
 80018c2:	bf00      	nop
 80018c4:	080089d6 	.word	0x080089d6

080018c8 <OV5640_SetHueDegree>:
 80018c8:	b570      	push	{r4, r5, r6, lr}
 80018ca:	4b36      	ldr	r3, [pc, #216]	; (80019a4 <OV5640_SetHueDegree+0xdc>)
 80018cc:	b08a      	sub	sp, #40	; 0x28
 80018ce:	4605      	mov	r5, r0
 80018d0:	460c      	mov	r4, r1
 80018d2:	f8d3 0012 	ldr.w	r0, [r3, #18]
 80018d6:	aa01      	add	r2, sp, #4
 80018d8:	f8d3 1016 	ldr.w	r1, [r3, #22]
 80018dc:	3518      	adds	r5, #24
 80018de:	c203      	stmia	r2!, {r0, r1}
 80018e0:	f8d3 001a 	ldr.w	r0, [r3, #26]
 80018e4:	f8d3 1022 	ldr.w	r1, [r3, #34]	; 0x22
 80018e8:	6010      	str	r0, [r2, #0]
 80018ea:	aa04      	add	r2, sp, #16
 80018ec:	f8d3 001e 	ldr.w	r0, [r3, #30]
 80018f0:	c203      	stmia	r2!, {r0, r1}
 80018f2:	f8d3 0026 	ldr.w	r0, [r3, #38]	; 0x26
 80018f6:	ab07      	add	r3, sp, #28
 80018f8:	6010      	str	r0, [r2, #0]
 80018fa:	4a2b      	ldr	r2, [pc, #172]	; (80019a8 <OV5640_SetHueDegree+0xe0>)
 80018fc:	6810      	ldr	r0, [r2, #0]
 80018fe:	6851      	ldr	r1, [r2, #4]
 8001900:	c303      	stmia	r3!, {r0, r1}
 8001902:	6890      	ldr	r0, [r2, #8]
 8001904:	f245 0101 	movw	r1, #20481	; 0x5001
 8001908:	f10d 0203 	add.w	r2, sp, #3
 800190c:	6018      	str	r0, [r3, #0]
 800190e:	23ff      	movs	r3, #255	; 0xff
 8001910:	4628      	mov	r0, r5
 8001912:	f88d 3003 	strb.w	r3, [sp, #3]
 8001916:	2301      	movs	r3, #1
 8001918:	f000 fbc9 	bl	80020ae <ov5640_write_reg>
 800191c:	b118      	cbz	r0, 8001926 <OV5640_SetHueDegree+0x5e>
 800191e:	f04f 30ff 	mov.w	r0, #4294967295	; 0xffffffff
 8001922:	b00a      	add	sp, #40	; 0x28
 8001924:	bd70      	pop	{r4, r5, r6, pc}
 8001926:	2601      	movs	r6, #1
 8001928:	f10d 0203 	add.w	r2, sp, #3
 800192c:	f44f 41ab 	mov.w	r1, #21888	; 0x5580
 8001930:	4628      	mov	r0, r5
 8001932:	4633      	mov	r3, r6
 8001934:	f88d 6003 	strb.w	r6, [sp, #3]
 8001938:	f000 fbb9 	bl	80020ae <ov5640_write_reg>
 800193c:	2800      	cmp	r0, #0
 800193e:	d1ee      	bne.n	800191e <OV5640_SetHueDegree+0x56>
 8001940:	f104 032e 	add.w	r3, r4, #46	; 0x2e
 8001944:	f10d 0203 	add.w	r2, sp, #3
 8001948:	f245 5181 	movw	r1, #21889	; 0x5581
 800194c:	4628      	mov	r0, r5
 800194e:	eb0d 0403 	add.w	r4, sp, r3
 8001952:	f814 3c24 	ldrb.w	r3, [r4, #-36]
 8001956:	f88d 3003 	strb.w	r3, [sp, #3]
 800195a:	4633      	mov	r3, r6
 800195c:	f000 fba7 	bl	80020ae <ov5640_write_reg>
 8001960:	2800      	cmp	r0, #0
 8001962:	d1dc      	bne.n	800191e <OV5640_SetHueDegree+0x56>
 8001964:	f814 3c18 	ldrb.w	r3, [r4, #-24]
 8001968:	f10d 0203 	add.w	r2, sp, #3
 800196c:	f245 5182 	movw	r1, #21890	; 0x5582
 8001970:	4628      	mov	r0, r5
 8001972:	f88d 3003 	strb.w	r3, [sp, #3]
 8001976:	4633      	mov	r3, r6
 8001978:	f000 fb99 	bl	80020ae <ov5640_write_reg>
 800197c:	2800      	cmp	r0, #0
 800197e:	d1ce      	bne.n	800191e <OV5640_SetHueDegree+0x56>
 8001980:	f814 3c0c 	ldrb.w	r3, [r4, #-12]
 8001984:	f10d 0203 	add.w	r2, sp, #3
 8001988:	f245 5188 	movw	r1, #21896	; 0x5588
 800198c:	4628      	mov	r0, r5
 800198e:	f88d 3003 	strb.w	r3, [sp, #3]
 8001992:	4633      	mov	r3, r6
 8001994:	f000 fb8b 	bl	80020ae <ov5640_write_reg>
 8001998:	3800      	subs	r0, #0
 800199a:	bf18      	it	ne
 800199c:	2001      	movne	r0, #1
 800199e:	4240      	negs	r0, r0
 80019a0:	e7bf      	b.n	8001922 <OV5640_SetHueDegree+0x5a>
 80019a2:	bf00      	nop
 80019a4:	080089ac 	.word	0x080089ac
 80019a8:	080089e0 	.word	0x080089e0

080019ac <OV5640_GetResolution>:
 80019ac:	b5f7      	push	{r0, r1, r2, r4, r5, r6, r7, lr}
 80019ae:	f100 0718 	add.w	r7, r0, #24
 80019b2:	460e      	mov	r6, r1
 80019b4:	2301      	movs	r3, #1
 80019b6:	f10d 0207 	add.w	r2, sp, #7
 80019ba:	f643 0108 	movw	r1, #14344	; 0x3808
 80019be:	4638      	mov	r0, r7
 80019c0:	f000 fb6e 	bl	80020a0 <ov5640_read_reg>
 80019c4:	b118      	cbz	r0, 80019ce <OV5640_GetResolution+0x22>
 80019c6:	f04f 30ff 	mov.w	r0, #4294967295	; 0xffffffff
 80019ca:	b003      	add	sp, #12
 80019cc:	bdf0      	pop	{r4, r5, r6, r7, pc}
 80019ce:	f89d 5007 	ldrb.w	r5, [sp, #7]
 80019d2:	2301      	movs	r3, #1
 80019d4:	f10d 0207 	add.w	r2, sp, #7
 80019d8:	f643 0109 	movw	r1, #14345	; 0x3809
 80019dc:	4638      	mov	r0, r7
 80019de:	022d      	lsls	r5, r5, #8
 80019e0:	f000 fb5e 	bl	80020a0 <ov5640_read_reg>
 80019e4:	2800      	cmp	r0, #0
 80019e6:	d1ee      	bne.n	80019c6 <OV5640_GetResolution+0x1a>
 80019e8:	f89d 3007 	ldrb.w	r3, [sp, #7]
 80019ec:	f10d 0207 	add.w	r2, sp, #7
 80019f0:	f643 010a 	movw	r1, #14346	; 0x380a
 80019f4:	4638      	mov	r0, r7
 80019f6:	431d      	orrs	r5, r3
 80019f8:	2301      	movs	r3, #1
 80019fa:	f000 fb51 	bl	80020a0 <ov5640_read_reg>
 80019fe:	2800      	cmp	r0, #0
 8001a00:	d1e1      	bne.n	80019c6 <OV5640_GetResolution+0x1a>
 8001a02:	f89d 3007 	ldrb.w	r3, [sp, #7]
 8001a06:	f10d 0207 	add.w	r2, sp, #7
 8001a0a:	f643 010b 	movw	r1, #14347	; 0x380b
 8001a0e:	4638      	mov	r0, r7
 8001a10:	021c      	lsls	r4, r3, #8
 8001a12:	2301      	movs	r3, #1
 8001a14:	f000 fb44 	bl	80020a0 <ov5640_read_reg>
 8001a18:	2800      	cmp	r0, #0
 8001a1a:	d1d4      	bne.n	80019c6 <OV5640_GetResolution+0x1a>
 8001a1c:	f89d 3007 	ldrb.w	r3, [sp, #7]
 8001a20:	f5b5 7f48 	cmp.w	r5, #800	; 0x320
 8001a24:	ea43 0304 	orr.w	r3, r3, r4
 8001a28:	d105      	bne.n	8001a36 <OV5640_GetResolution+0x8a>
 8001a2a:	f5b3 7ff0 	cmp.w	r3, #480	; 0x1e0
 8001a2e:	d1ca      	bne.n	80019c6 <OV5640_GetResolution+0x1a>
 8001a30:	2304      	movs	r3, #4
 8001a32:	6033      	str	r3, [r6, #0]
 8001a34:	e7c9      	b.n	80019ca <OV5640_GetResolution+0x1e>
 8001a36:	f5b5 7f20 	cmp.w	r5, #640	; 0x280
 8001a3a:	d104      	bne.n	8001a46 <OV5640_GetResolution+0x9a>
 8001a3c:	f5b3 7ff0 	cmp.w	r3, #480	; 0x1e0
 8001a40:	d1c1      	bne.n	80019c6 <OV5640_GetResolution+0x1a>
 8001a42:	2303      	movs	r3, #3
 8001a44:	e7f5      	b.n	8001a32 <OV5640_GetResolution+0x86>
 8001a46:	f5b5 7ff0 	cmp.w	r5, #480	; 0x1e0
 8001a4a:	d104      	bne.n	8001a56 <OV5640_GetResolution+0xaa>
 8001a4c:	f5b3 7f88 	cmp.w	r3, #272	; 0x110
 8001a50:	d1b9      	bne.n	80019c6 <OV5640_GetResolution+0x1a>
 8001a52:	2302      	movs	r3, #2
 8001a54:	e7ed      	b.n	8001a32 <OV5640_GetResolution+0x86>
 8001a56:	f5b5 7fa0 	cmp.w	r5, #320	; 0x140
 8001a5a:	d103      	bne.n	8001a64 <OV5640_GetResolution+0xb8>
 8001a5c:	2bf0      	cmp	r3, #240	; 0xf0
 8001a5e:	d1b2      	bne.n	80019c6 <OV5640_GetResolution+0x1a>
 8001a60:	2301      	movs	r3, #1
 8001a62:	e7e6      	b.n	8001a32 <OV5640_GetResolution+0x86>
 8001a64:	2da0      	cmp	r5, #160	; 0xa0
 8001a66:	d1ae      	bne.n	80019c6 <OV5640_GetResolution+0x1a>
 8001a68:	2b78      	cmp	r3, #120	; 0x78
 8001a6a:	d1ac      	bne.n	80019c6 <OV5640_GetResolution+0x1a>
 8001a6c:	2300      	movs	r3, #0
 8001a6e:	e7e0      	b.n	8001a32 <OV5640_GetResolution+0x86>

08001a70 <OV5640_ZoomConfig>:
 8001a70:	b537      	push	{r0, r1, r2, r4, r5, lr}
 8001a72:	460c      	mov	r4, r1
 8001a74:	a901      	add	r1, sp, #4
 8001a76:	4605      	mov	r5, r0
 8001a78:	f7ff ff98 	bl	80019ac <OV5640_GetResolution>
 8001a7c:	b118      	cbz	r0, 8001a86 <OV5640_ZoomConfig+0x16>
 8001a7e:	f04f 30ff 	mov.w	r0, #4294967295	; 0xffffffff
 8001a82:	b003      	add	sp, #12
 8001a84:	bd30      	pop	{r4, r5, pc}
 8001a86:	2c44      	cmp	r4, #68	; 0x44
 8001a88:	f105 0518 	add.w	r5, r5, #24
 8001a8c:	d10f      	bne.n	8001aae <OV5640_ZoomConfig+0x3e>
 8001a8e:	2310      	movs	r3, #16
 8001a90:	f10d 0203 	add.w	r2, sp, #3
 8001a94:	f44f 41ac 	mov.w	r1, #22016	; 0x5600
 8001a98:	f88d 3003 	strb.w	r3, [sp, #3]
 8001a9c:	2301      	movs	r3, #1
 8001a9e:	4628      	mov	r0, r5
 8001aa0:	f000 fb05 	bl	80020ae <ov5640_write_reg>
 8001aa4:	3800      	subs	r0, #0
 8001aa6:	bf18      	it	ne
 8001aa8:	2001      	movne	r0, #1
 8001aaa:	4240      	negs	r0, r0
 8001aac:	e7e9      	b.n	8001a82 <OV5640_ZoomConfig+0x12>
 8001aae:	9b01      	ldr	r3, [sp, #4]
 8001ab0:	2b02      	cmp	r3, #2
 8001ab2:	d802      	bhi.n	8001aba <OV5640_ZoomConfig+0x4a>
 8001ab4:	b11b      	cbz	r3, 8001abe <OV5640_ZoomConfig+0x4e>
 8001ab6:	0864      	lsrs	r4, r4, #1
 8001ab8:	e001      	b.n	8001abe <OV5640_ZoomConfig+0x4e>
 8001aba:	2b03      	cmp	r3, #3
 8001abc:	d014      	beq.n	8001ae8 <OV5640_ZoomConfig+0x78>
 8001abe:	2300      	movs	r3, #0
 8001ac0:	f10d 0203 	add.w	r2, sp, #3
 8001ac4:	f44f 41ac 	mov.w	r1, #22016	; 0x5600
 8001ac8:	4628      	mov	r0, r5
 8001aca:	f88d 3003 	strb.w	r3, [sp, #3]
 8001ace:	2301      	movs	r3, #1
 8001ad0:	f000 faed 	bl	80020ae <ov5640_write_reg>
 8001ad4:	2800      	cmp	r0, #0
 8001ad6:	d1d2      	bne.n	8001a7e <OV5640_ZoomConfig+0xe>
 8001ad8:	2301      	movs	r3, #1
 8001ada:	f10d 0203 	add.w	r2, sp, #3
 8001ade:	f245 6101 	movw	r1, #22017	; 0x5601
 8001ae2:	f88d 4003 	strb.w	r4, [sp, #3]
 8001ae6:	e7da      	b.n	8001a9e <OV5640_ZoomConfig+0x2e>
 8001ae8:	08a4      	lsrs	r4, r4, #2
 8001aea:	e7e8      	b.n	8001abe <OV5640_ZoomConfig+0x4e>

08001aec <OV5640_MirrorFlipConfig>:
 8001aec:	b537      	push	{r0, r1, r2, r4, r5, lr}
 8001aee:	2300      	movs	r3, #0
 8001af0:	f100 0418 	add.w	r4, r0, #24
 8001af4:	460d      	mov	r5, r1
 8001af6:	f10d 0206 	add.w	r2, sp, #6
 8001afa:	f88d 3006 	strb.w	r3, [sp, #6]
 8001afe:	f643 0120 	movw	r1, #14368	; 0x3820
 8001b02:	2301      	movs	r3, #1
 8001b04:	4620      	mov	r0, r4
 8001b06:	f000 facb 	bl	80020a0 <ov5640_read_reg>
 8001b0a:	b118      	cbz	r0, 8001b14 <OV5640_MirrorFlipConfig+0x28>
 8001b0c:	f04f 30ff 	mov.w	r0, #4294967295	; 0xffffffff
 8001b10:	b003      	add	sp, #12
 8001b12:	bd30      	pop	{r4, r5, pc}
 8001b14:	f89d 3006 	ldrb.w	r3, [sp, #6]
 8001b18:	f10d 0207 	add.w	r2, sp, #7
 8001b1c:	f643 0121 	movw	r1, #14369	; 0x3821
 8001b20:	4620      	mov	r0, r4
 8001b22:	f023 0306 	bic.w	r3, r3, #6
 8001b26:	f88d 3006 	strb.w	r3, [sp, #6]
 8001b2a:	2301      	movs	r3, #1
 8001b2c:	f000 fab8 	bl	80020a0 <ov5640_read_reg>
 8001b30:	2800      	cmp	r0, #0
 8001b32:	d1eb      	bne.n	8001b0c <OV5640_MirrorFlipConfig+0x20>
 8001b34:	f89d 3007 	ldrb.w	r3, [sp, #7]
 8001b38:	2d02      	cmp	r5, #2
 8001b3a:	f023 0306 	bic.w	r3, r3, #6
 8001b3e:	f88d 3007 	strb.w	r3, [sp, #7]
 8001b42:	d019      	beq.n	8001b78 <OV5640_MirrorFlipConfig+0x8c>
 8001b44:	2d03      	cmp	r5, #3
 8001b46:	d011      	beq.n	8001b6c <OV5640_MirrorFlipConfig+0x80>
 8001b48:	2d01      	cmp	r5, #1
 8001b4a:	d105      	bne.n	8001b58 <OV5640_MirrorFlipConfig+0x6c>
 8001b4c:	f89d 3006 	ldrb.w	r3, [sp, #6]
 8001b50:	f043 0306 	orr.w	r3, r3, #6
 8001b54:	f88d 3006 	strb.w	r3, [sp, #6]
 8001b58:	2301      	movs	r3, #1
 8001b5a:	f10d 0206 	add.w	r2, sp, #6
 8001b5e:	f643 0120 	movw	r1, #14368	; 0x3820
 8001b62:	4620      	mov	r0, r4
 8001b64:	f000 faa3 	bl	80020ae <ov5640_write_reg>
 8001b68:	b1b0      	cbz	r0, 8001b98 <OV5640_MirrorFlipConfig+0xac>
 8001b6a:	e7cf      	b.n	8001b0c <OV5640_MirrorFlipConfig+0x20>
 8001b6c:	f89d 3006 	ldrb.w	r3, [sp, #6]
 8001b70:	f043 0306 	orr.w	r3, r3, #6
 8001b74:	f88d 3006 	strb.w	r3, [sp, #6]
 8001b78:	2301      	movs	r3, #1
 8001b7a:	f10d 0206 	add.w	r2, sp, #6
 8001b7e:	f643 0120 	movw	r1, #14368	; 0x3820
 8001b82:	4620      	mov	r0, r4
 8001b84:	f000 fa93 	bl	80020ae <ov5640_write_reg>
 8001b88:	2800      	cmp	r0, #0
 8001b8a:	d1bf      	bne.n	8001b0c <OV5640_MirrorFlipConfig+0x20>
 8001b8c:	f89d 3007 	ldrb.w	r3, [sp, #7]
 8001b90:	f043 0306 	orr.w	r3, r3, #6
 8001b94:	f88d 3007 	strb.w	r3, [sp, #7]
 8001b98:	2301      	movs	r3, #1
 8001b9a:	f10d 0207 	add.w	r2, sp, #7
 8001b9e:	f643 0121 	movw	r1, #14369	; 0x3821
 8001ba2:	4620      	mov	r0, r4
 8001ba4:	f000 fa83 	bl	80020ae <ov5640_write_reg>
 8001ba8:	3800      	subs	r0, #0
 8001baa:	bf18      	it	ne
 8001bac:	2001      	movne	r0, #1
 8001bae:	4240      	negs	r0, r0
 8001bb0:	e7ae      	b.n	8001b10 <OV5640_MirrorFlipConfig+0x24>

08001bb2 <OV5640_NightModeConfig>:
 8001bb2:	2300      	movs	r3, #0
 8001bb4:	2901      	cmp	r1, #1
 8001bb6:	b573      	push	{r0, r1, r4, r5, r6, lr}
 8001bb8:	460d      	mov	r5, r1
 8001bba:	f100 0418 	add.w	r4, r0, #24
 8001bbe:	f88d 3007 	strb.w	r3, [sp, #7]
 8001bc2:	f040 80a3 	bne.w	8001d0c <OV5640_NightModeConfig+0x15a>
 8001bc6:	460b      	mov	r3, r1
 8001bc8:	f10d 0207 	add.w	r2, sp, #7
 8001bcc:	f243 0138 	movw	r1, #12344	; 0x3038
 8001bd0:	4620      	mov	r0, r4
 8001bd2:	f000 fa6c 	bl	80020ae <ov5640_write_reg>
 8001bd6:	b118      	cbz	r0, 8001be0 <OV5640_NightModeConfig+0x2e>
 8001bd8:	f04f 30ff 	mov.w	r0, #4294967295	; 0xffffffff
 8001bdc:	b002      	add	sp, #8
 8001bde:	bd70      	pop	{r4, r5, r6, pc}
 8001be0:	462b      	mov	r3, r5
 8001be2:	f10d 0207 	add.w	r2, sp, #7
 8001be6:	f243 0139 	movw	r1, #12345	; 0x3039
 8001bea:	4620      	mov	r0, r4
 8001bec:	f000 fa5f 	bl	80020ae <ov5640_write_reg>
 8001bf0:	2800      	cmp	r0, #0
 8001bf2:	d1f1      	bne.n	8001bd8 <OV5640_NightModeConfig+0x26>
 8001bf4:	237c      	movs	r3, #124	; 0x7c
 8001bf6:	f10d 0207 	add.w	r2, sp, #7
 8001bfa:	f44f 5168 	mov.w	r1, #14848	; 0x3a00
 8001bfe:	4620      	mov	r0, r4
 8001c00:	f88d 3007 	strb.w	r3, [sp, #7]
 8001c04:	462b      	mov	r3, r5
 8001c06:	f000 fa52 	bl	80020ae <ov5640_write_reg>
 8001c0a:	2800      	cmp	r0, #0
 8001c0c:	d1e4      	bne.n	8001bd8 <OV5640_NightModeConfig+0x26>
 8001c0e:	462b      	mov	r3, r5
 8001c10:	f10d 0207 	add.w	r2, sp, #7
 8001c14:	f643 2108 	movw	r1, #14856	; 0x3a08
 8001c18:	4620      	mov	r0, r4
 8001c1a:	f88d 5007 	strb.w	r5, [sp, #7]
 8001c1e:	f000 fa46 	bl	80020ae <ov5640_write_reg>
 8001c22:	2800      	cmp	r0, #0
 8001c24:	d1d8      	bne.n	8001bd8 <OV5640_NightModeConfig+0x26>
 8001c26:	2327      	movs	r3, #39	; 0x27
 8001c28:	f10d 0207 	add.w	r2, sp, #7
 8001c2c:	f643 2109 	movw	r1, #14857	; 0x3a09
 8001c30:	4620      	mov	r0, r4
 8001c32:	f88d 3007 	strb.w	r3, [sp, #7]
 8001c36:	462b      	mov	r3, r5
 8001c38:	f000 fa39 	bl	80020ae <ov5640_write_reg>
 8001c3c:	2800      	cmp	r0, #0
 8001c3e:	d1cb      	bne.n	8001bd8 <OV5640_NightModeConfig+0x26>
 8001c40:	f88d 0007 	strb.w	r0, [sp, #7]
 8001c44:	462b      	mov	r3, r5
 8001c46:	f10d 0207 	add.w	r2, sp, #7
 8001c4a:	f643 210a 	movw	r1, #14858	; 0x3a0a
 8001c4e:	4620      	mov	r0, r4
 8001c50:	f000 fa2d 	bl	80020ae <ov5640_write_reg>
 8001c54:	2800      	cmp	r0, #0
 8001c56:	d1bf      	bne.n	8001bd8 <OV5640_NightModeConfig+0x26>
 8001c58:	23f6      	movs	r3, #246	; 0xf6
 8001c5a:	f10d 0207 	add.w	r2, sp, #7
 8001c5e:	f643 210b 	movw	r1, #14859	; 0x3a0b
 8001c62:	4620      	mov	r0, r4
 8001c64:	f88d 3007 	strb.w	r3, [sp, #7]
 8001c68:	462b      	mov	r3, r5
 8001c6a:	f000 fa20 	bl	80020ae <ov5640_write_reg>
 8001c6e:	2800      	cmp	r0, #0
 8001c70:	d1b2      	bne.n	8001bd8 <OV5640_NightModeConfig+0x26>
 8001c72:	2304      	movs	r3, #4
 8001c74:	f10d 0207 	add.w	r2, sp, #7
 8001c78:	f643 210d 	movw	r1, #14861	; 0x3a0d
 8001c7c:	4620      	mov	r0, r4
 8001c7e:	f88d 3007 	strb.w	r3, [sp, #7]
 8001c82:	462b      	mov	r3, r5
 8001c84:	f000 fa13 	bl	80020ae <ov5640_write_reg>
 8001c88:	2800      	cmp	r0, #0
 8001c8a:	d1a5      	bne.n	8001bd8 <OV5640_NightModeConfig+0x26>
 8001c8c:	462b      	mov	r3, r5
 8001c8e:	f10d 0207 	add.w	r2, sp, #7
 8001c92:	f643 210e 	movw	r1, #14862	; 0x3a0e
 8001c96:	4620      	mov	r0, r4
 8001c98:	f000 fa09 	bl	80020ae <ov5640_write_reg>
 8001c9c:	2800      	cmp	r0, #0
 8001c9e:	d19b      	bne.n	8001bd8 <OV5640_NightModeConfig+0x26>
 8001ca0:	260b      	movs	r6, #11
 8001ca2:	2301      	movs	r3, #1
 8001ca4:	f10d 0207 	add.w	r2, sp, #7
 8001ca8:	f643 2102 	movw	r1, #14850	; 0x3a02
 8001cac:	4620      	mov	r0, r4
 8001cae:	f88d 6007 	strb.w	r6, [sp, #7]
 8001cb2:	f000 f9fc 	bl	80020ae <ov5640_write_reg>
 8001cb6:	2800      	cmp	r0, #0
 8001cb8:	d18e      	bne.n	8001bd8 <OV5640_NightModeConfig+0x26>
 8001cba:	2588      	movs	r5, #136	; 0x88
 8001cbc:	2301      	movs	r3, #1
 8001cbe:	f10d 0207 	add.w	r2, sp, #7
 8001cc2:	f643 2103 	movw	r1, #14851	; 0x3a03
 8001cc6:	4620      	mov	r0, r4
 8001cc8:	f88d 5007 	strb.w	r5, [sp, #7]
 8001ccc:	f000 f9ef 	bl	80020ae <ov5640_write_reg>
 8001cd0:	2800      	cmp	r0, #0
 8001cd2:	d181      	bne.n	8001bd8 <OV5640_NightModeConfig+0x26>
 8001cd4:	2301      	movs	r3, #1
 8001cd6:	f10d 0207 	add.w	r2, sp, #7
 8001cda:	f643 2114 	movw	r1, #14868	; 0x3a14
 8001cde:	4620      	mov	r0, r4
 8001ce0:	f88d 6007 	strb.w	r6, [sp, #7]
 8001ce4:	f000 f9e3 	bl	80020ae <ov5640_write_reg>
 8001ce8:	2800      	cmp	r0, #0
 8001cea:	f47f af75 	bne.w	8001bd8 <OV5640_NightModeConfig+0x26>
 8001cee:	2301      	movs	r3, #1
 8001cf0:	f10d 0207 	add.w	r2, sp, #7
 8001cf4:	f643 2115 	movw	r1, #14869	; 0x3a15
 8001cf8:	f88d 5007 	strb.w	r5, [sp, #7]
 8001cfc:	4620      	mov	r0, r4
 8001cfe:	f000 f9d6 	bl	80020ae <ov5640_write_reg>
 8001d02:	3800      	subs	r0, #0
 8001d04:	bf18      	it	ne
 8001d06:	2001      	movne	r0, #1
 8001d08:	4240      	negs	r0, r0
 8001d0a:	e767      	b.n	8001bdc <OV5640_NightModeConfig+0x2a>
 8001d0c:	2301      	movs	r3, #1
 8001d0e:	f10d 0207 	add.w	r2, sp, #7
 8001d12:	f44f 5168 	mov.w	r1, #14848	; 0x3a00
 8001d16:	4620      	mov	r0, r4
 8001d18:	f000 f9c2 	bl	80020a0 <ov5640_read_reg>
 8001d1c:	2800      	cmp	r0, #0
 8001d1e:	f47f af5b 	bne.w	8001bd8 <OV5640_NightModeConfig+0x26>
 8001d22:	f89d 3007 	ldrb.w	r3, [sp, #7]
 8001d26:	f10d 0207 	add.w	r2, sp, #7
 8001d2a:	f44f 5168 	mov.w	r1, #14848	; 0x3a00
 8001d2e:	f023 0304 	bic.w	r3, r3, #4
 8001d32:	f88d 3007 	strb.w	r3, [sp, #7]
 8001d36:	2301      	movs	r3, #1
 8001d38:	e7e0      	b.n	8001cfc <OV5640_NightModeConfig+0x14a>

08001d3a <OV5640_Delay.isra.0>:
 8001d3a:	b570      	push	{r4, r5, r6, lr}
 8001d3c:	6943      	ldr	r3, [r0, #20]
 8001d3e:	4604      	mov	r4, r0
 8001d40:	460d      	mov	r5, r1
 8001d42:	4798      	blx	r3
 8001d44:	4606      	mov	r6, r0
 8001d46:	6963      	ldr	r3, [r4, #20]
 8001d48:	4798      	blx	r3
 8001d4a:	1b83      	subs	r3, r0, r6
 8001d4c:	42ab      	cmp	r3, r5
 8001d4e:	d3fa      	bcc.n	8001d46 <OV5640_Delay.isra.0+0xc>
 8001d50:	bd70      	pop	{r4, r5, r6, pc}

08001d52 <OV5640_ReadID>:
 8001d52:	b573      	push	{r0, r1, r4, r5, r6, lr}
 8001d54:	4605      	mov	r5, r0
 8001d56:	460c      	mov	r4, r1
 8001d58:	4606      	mov	r6, r0
 8001d5a:	f855 3b18 	ldr.w	r3, [r5], #24
 8001d5e:	4798      	blx	r3
 8001d60:	2380      	movs	r3, #128	; 0x80
 8001d62:	f10d 0207 	add.w	r2, sp, #7
 8001d66:	f243 0108 	movw	r1, #12296	; 0x3008
 8001d6a:	f88d 3007 	strb.w	r3, [sp, #7]
 8001d6e:	4628      	mov	r0, r5
 8001d70:	2301      	movs	r3, #1
 8001d72:	f000 f99c 	bl	80020ae <ov5640_write_reg>
 8001d76:	b118      	cbz	r0, 8001d80 <OV5640_ReadID+0x2e>
 8001d78:	f04f 30ff 	mov.w	r0, #4294967295	; 0xffffffff
 8001d7c:	b002      	add	sp, #8
 8001d7e:	bd70      	pop	{r4, r5, r6, pc}
 8001d80:	f44f 71fa 	mov.w	r1, #500	; 0x1f4
 8001d84:	4630      	mov	r0, r6
 8001d86:	f7ff ffd8 	bl	8001d3a <OV5640_Delay.isra.0>
 8001d8a:	2301      	movs	r3, #1
 8001d8c:	f10d 0207 	add.w	r2, sp, #7
 8001d90:	f243 010a 	movw	r1, #12298	; 0x300a
 8001d94:	4628      	mov	r0, r5
 8001d96:	f000 f983 	bl	80020a0 <ov5640_read_reg>
 8001d9a:	2800      	cmp	r0, #0
 8001d9c:	d1ec      	bne.n	8001d78 <OV5640_ReadID+0x26>
 8001d9e:	f89d 3007 	ldrb.w	r3, [sp, #7]
 8001da2:	f10d 0207 	add.w	r2, sp, #7
 8001da6:	f243 010b 	movw	r1, #12299	; 0x300b
 8001daa:	4628      	mov	r0, r5
 8001dac:	021b      	lsls	r3, r3, #8
 8001dae:	6023      	str	r3, [r4, #0]
 8001db0:	2301      	movs	r3, #1
 8001db2:	f000 f975 	bl	80020a0 <ov5640_read_reg>
 8001db6:	2800      	cmp	r0, #0
 8001db8:	d1de      	bne.n	8001d78 <OV5640_ReadID+0x26>
 8001dba:	6823      	ldr	r3, [r4, #0]
 8001dbc:	f89d 2007 	ldrb.w	r2, [sp, #7]
 8001dc0:	4313      	orrs	r3, r2
 8001dc2:	6023      	str	r3, [r4, #0]
 8001dc4:	e7da      	b.n	8001d7c <OV5640_ReadID+0x2a>

08001dc6 <OV5640_SetPixelFormat>:
 8001dc6:	b573      	push	{r0, r1, r4, r5, r6, lr}
 8001dc8:	4604      	mov	r4, r0
 8001dca:	460d      	mov	r5, r1
 8001dcc:	2900      	cmp	r1, #0
 8001dce:	f000 80ba 	beq.w	8001f46 <OV5640_SetPixelFormat+0x180>
 8001dd2:	2902      	cmp	r1, #2
 8001dd4:	f000 80a3 	beq.w	8001f1e <OV5640_SetPixelFormat+0x158>
 8001dd8:	2901      	cmp	r1, #1
 8001dda:	f000 80a2 	beq.w	8001f22 <OV5640_SetPixelFormat+0x15c>
 8001dde:	2907      	cmp	r1, #7
 8001de0:	d077      	beq.n	8001ed2 <OV5640_SetPixelFormat+0x10c>
 8001de2:	2908      	cmp	r1, #8
 8001de4:	f040 80ac 	bne.w	8001f40 <OV5640_SetPixelFormat+0x17a>
 8001de8:	2330      	movs	r3, #48	; 0x30
 8001dea:	f100 0518 	add.w	r5, r0, #24
 8001dee:	f10d 0207 	add.w	r2, sp, #7
 8001df2:	f44f 4186 	mov.w	r1, #17152	; 0x4300
 8001df6:	f88d 3007 	strb.w	r3, [sp, #7]
 8001dfa:	4628      	mov	r0, r5
 8001dfc:	2301      	movs	r3, #1
 8001dfe:	f000 f956 	bl	80020ae <ov5640_write_reg>
 8001e02:	4606      	mov	r6, r0
 8001e04:	2800      	cmp	r0, #0
 8001e06:	f040 80ba 	bne.w	8001f7e <OV5640_SetPixelFormat+0x1b8>
 8001e0a:	2101      	movs	r1, #1
 8001e0c:	4620      	mov	r0, r4
 8001e0e:	f7ff ff94 	bl	8001d3a <OV5640_Delay.isra.0>
 8001e12:	2301      	movs	r3, #1
 8001e14:	f10d 0207 	add.w	r2, sp, #7
 8001e18:	f245 011f 	movw	r1, #20511	; 0x501f
 8001e1c:	4628      	mov	r0, r5
 8001e1e:	f88d 6007 	strb.w	r6, [sp, #7]
 8001e22:	f000 f944 	bl	80020ae <ov5640_write_reg>
 8001e26:	4606      	mov	r6, r0
 8001e28:	2800      	cmp	r0, #0
 8001e2a:	f040 80a8 	bne.w	8001f7e <OV5640_SetPixelFormat+0x1b8>
 8001e2e:	2101      	movs	r1, #1
 8001e30:	4620      	mov	r0, r4
 8001e32:	f7ff ff82 	bl	8001d3a <OV5640_Delay.isra.0>
 8001e36:	2301      	movs	r3, #1
 8001e38:	f10d 0207 	add.w	r2, sp, #7
 8001e3c:	f643 0121 	movw	r1, #14369	; 0x3821
 8001e40:	4628      	mov	r0, r5
 8001e42:	f000 f92d 	bl	80020a0 <ov5640_read_reg>
 8001e46:	2800      	cmp	r0, #0
 8001e48:	d17a      	bne.n	8001f40 <OV5640_SetPixelFormat+0x17a>
 8001e4a:	f89d 3007 	ldrb.w	r3, [sp, #7]
 8001e4e:	f10d 0207 	add.w	r2, sp, #7
 8001e52:	f643 0121 	movw	r1, #14369	; 0x3821
 8001e56:	4628      	mov	r0, r5
 8001e58:	f043 0320 	orr.w	r3, r3, #32
 8001e5c:	f88d 3007 	strb.w	r3, [sp, #7]
 8001e60:	2301      	movs	r3, #1
 8001e62:	f000 f924 	bl	80020ae <ov5640_write_reg>
 8001e66:	2800      	cmp	r0, #0
 8001e68:	d16a      	bne.n	8001f40 <OV5640_SetPixelFormat+0x17a>
 8001e6a:	2301      	movs	r3, #1
 8001e6c:	f10d 0207 	add.w	r2, sp, #7
 8001e70:	f243 0102 	movw	r1, #12290	; 0x3002
 8001e74:	4628      	mov	r0, r5
 8001e76:	f000 f913 	bl	80020a0 <ov5640_read_reg>
 8001e7a:	2800      	cmp	r0, #0
 8001e7c:	d160      	bne.n	8001f40 <OV5640_SetPixelFormat+0x17a>
 8001e7e:	f89d 3007 	ldrb.w	r3, [sp, #7]
 8001e82:	f10d 0207 	add.w	r2, sp, #7
 8001e86:	f243 0102 	movw	r1, #12290	; 0x3002
 8001e8a:	4628      	mov	r0, r5
 8001e8c:	f023 031c 	bic.w	r3, r3, #28
 8001e90:	f88d 3007 	strb.w	r3, [sp, #7]
 8001e94:	2301      	movs	r3, #1
 8001e96:	f000 f90a 	bl	80020ae <ov5640_write_reg>
 8001e9a:	2800      	cmp	r0, #0
 8001e9c:	d150      	bne.n	8001f40 <OV5640_SetPixelFormat+0x17a>
 8001e9e:	2301      	movs	r3, #1
 8001ea0:	f10d 0207 	add.w	r2, sp, #7
 8001ea4:	f243 0106 	movw	r1, #12294	; 0x3006
 8001ea8:	4628      	mov	r0, r5
 8001eaa:	f000 f8f9 	bl	80020a0 <ov5640_read_reg>
 8001eae:	2800      	cmp	r0, #0
 8001eb0:	d146      	bne.n	8001f40 <OV5640_SetPixelFormat+0x17a>
 8001eb2:	f89d 3007 	ldrb.w	r3, [sp, #7]
 8001eb6:	f10d 0207 	add.w	r2, sp, #7
 8001eba:	f243 0106 	movw	r1, #12294	; 0x3006
 8001ebe:	4628      	mov	r0, r5
 8001ec0:	f043 0328 	orr.w	r3, r3, #40	; 0x28
 8001ec4:	f88d 3007 	strb.w	r3, [sp, #7]
 8001ec8:	2301      	movs	r3, #1
 8001eca:	f000 f8f0 	bl	80020ae <ov5640_write_reg>
 8001ece:	b318      	cbz	r0, 8001f18 <OV5640_SetPixelFormat+0x152>
 8001ed0:	e036      	b.n	8001f40 <OV5640_SetPixelFormat+0x17a>
 8001ed2:	2310      	movs	r3, #16
 8001ed4:	f104 0618 	add.w	r6, r4, #24
 8001ed8:	f88d 3007 	strb.w	r3, [sp, #7]
 8001edc:	f10d 0207 	add.w	r2, sp, #7
 8001ee0:	2301      	movs	r3, #1
 8001ee2:	f44f 4186 	mov.w	r1, #17152	; 0x4300
 8001ee6:	4630      	mov	r0, r6
 8001ee8:	f000 f8e1 	bl	80020ae <ov5640_write_reg>
 8001eec:	4605      	mov	r5, r0
 8001eee:	bb38      	cbnz	r0, 8001f40 <OV5640_SetPixelFormat+0x17a>
 8001ef0:	2101      	movs	r1, #1
 8001ef2:	4620      	mov	r0, r4
 8001ef4:	f7ff ff21 	bl	8001d3a <OV5640_Delay.isra.0>
 8001ef8:	2301      	movs	r3, #1
 8001efa:	f10d 0207 	add.w	r2, sp, #7
 8001efe:	f245 011f 	movw	r1, #20511	; 0x501f
 8001f02:	4630      	mov	r0, r6
 8001f04:	f88d 5007 	strb.w	r5, [sp, #7]
 8001f08:	f000 f8d1 	bl	80020ae <ov5640_write_reg>
 8001f0c:	b9c0      	cbnz	r0, 8001f40 <OV5640_SetPixelFormat+0x17a>
 8001f0e:	2600      	movs	r6, #0
 8001f10:	2101      	movs	r1, #1
 8001f12:	4620      	mov	r0, r4
 8001f14:	f7ff ff11 	bl	8001d3a <OV5640_Delay.isra.0>
 8001f18:	4630      	mov	r0, r6
 8001f1a:	b002      	add	sp, #8
 8001f1c:	bd70      	pop	{r4, r5, r6, pc}
 8001f1e:	2330      	movs	r3, #48	; 0x30
 8001f20:	e7d8      	b.n	8001ed4 <OV5640_SetPixelFormat+0x10e>
 8001f22:	2323      	movs	r3, #35	; 0x23
 8001f24:	f100 0618 	add.w	r6, r0, #24
 8001f28:	f10d 0207 	add.w	r2, sp, #7
 8001f2c:	f88d 3007 	strb.w	r3, [sp, #7]
 8001f30:	4630      	mov	r0, r6
 8001f32:	460b      	mov	r3, r1
 8001f34:	f44f 4186 	mov.w	r1, #17152	; 0x4300
 8001f38:	f000 f8b9 	bl	80020ae <ov5640_write_reg>
 8001f3c:	2800      	cmp	r0, #0
 8001f3e:	d0d7      	beq.n	8001ef0 <OV5640_SetPixelFormat+0x12a>
 8001f40:	f04f 36ff 	mov.w	r6, #4294967295	; 0xffffffff
 8001f44:	e7e8      	b.n	8001f18 <OV5640_SetPixelFormat+0x152>
 8001f46:	236f      	movs	r3, #111	; 0x6f
 8001f48:	f100 0518 	add.w	r5, r0, #24
 8001f4c:	f10d 0207 	add.w	r2, sp, #7
 8001f50:	f44f 4186 	mov.w	r1, #17152	; 0x4300
 8001f54:	f88d 3007 	strb.w	r3, [sp, #7]
 8001f58:	4628      	mov	r0, r5
 8001f5a:	2301      	movs	r3, #1
 8001f5c:	f000 f8a7 	bl	80020ae <ov5640_write_reg>
 8001f60:	2800      	cmp	r0, #0
 8001f62:	d1ed      	bne.n	8001f40 <OV5640_SetPixelFormat+0x17a>
 8001f64:	2101      	movs	r1, #1
 8001f66:	4620      	mov	r0, r4
 8001f68:	f7ff fee7 	bl	8001d3a <OV5640_Delay.isra.0>
 8001f6c:	2301      	movs	r3, #1
 8001f6e:	f10d 0207 	add.w	r2, sp, #7
 8001f72:	f245 011f 	movw	r1, #20511	; 0x501f
 8001f76:	4628      	mov	r0, r5
 8001f78:	f88d 3007 	strb.w	r3, [sp, #7]
 8001f7c:	e7c4      	b.n	8001f08 <OV5640_SetPixelFormat+0x142>
 8001f7e:	f04f 36ff 	mov.w	r6, #4294967295	; 0xffffffff
 8001f82:	e758      	b.n	8001e36 <OV5640_SetPixelFormat+0x70>

08001f84 <OV5640_RegisterBusIO>:
 8001f84:	b190      	cbz	r0, 8001fac <OV5640_RegisterBusIO+0x28>
 8001f86:	684a      	ldr	r2, [r1, #4]
 8001f88:	680b      	ldr	r3, [r1, #0]
 8001f8a:	6042      	str	r2, [r0, #4]
 8001f8c:	890a      	ldrh	r2, [r1, #8]
 8001f8e:	6003      	str	r3, [r0, #0]
 8001f90:	8102      	strh	r2, [r0, #8]
 8001f92:	68ca      	ldr	r2, [r1, #12]
 8001f94:	60c2      	str	r2, [r0, #12]
 8001f96:	690a      	ldr	r2, [r1, #16]
 8001f98:	6102      	str	r2, [r0, #16]
 8001f9a:	694a      	ldr	r2, [r1, #20]
 8001f9c:	6200      	str	r0, [r0, #32]
 8001f9e:	6142      	str	r2, [r0, #20]
 8001fa0:	4a04      	ldr	r2, [pc, #16]	; (8001fb4 <OV5640_RegisterBusIO+0x30>)
 8001fa2:	61c2      	str	r2, [r0, #28]
 8001fa4:	4a04      	ldr	r2, [pc, #16]	; (8001fb8 <OV5640_RegisterBusIO+0x34>)
 8001fa6:	6182      	str	r2, [r0, #24]
 8001fa8:	b103      	cbz	r3, 8001fac <OV5640_RegisterBusIO+0x28>
 8001faa:	4718      	bx	r3
 8001fac:	f04f 30ff 	mov.w	r0, #4294967295	; 0xffffffff
 8001fb0:	4770      	bx	lr
 8001fb2:	bf00      	nop
 8001fb4:	080011db 	.word	0x080011db
 8001fb8:	080011e9 	.word	0x080011e9

08001fbc <OV5640_SetPolarities>:
 8001fbc:	b507      	push	{r0, r1, r2, lr}
 8001fbe:	b1d0      	cbz	r0, 8001ff6 <OV5640_SetPolarities+0x3a>
 8001fc0:	2901      	cmp	r1, #1
 8001fc2:	d818      	bhi.n	8001ff6 <OV5640_SetPolarities+0x3a>
 8001fc4:	2a01      	cmp	r2, #1
 8001fc6:	d816      	bhi.n	8001ff6 <OV5640_SetPolarities+0x3a>
 8001fc8:	2b01      	cmp	r3, #1
 8001fca:	d814      	bhi.n	8001ff6 <OV5640_SetPolarities+0x3a>
 8001fcc:	ea43 0342 	orr.w	r3, r3, r2, lsl #1
 8001fd0:	3018      	adds	r0, #24
 8001fd2:	f10d 0207 	add.w	r2, sp, #7
 8001fd6:	ea43 1341 	orr.w	r3, r3, r1, lsl #5
 8001fda:	f244 7140 	movw	r1, #18240	; 0x4740
 8001fde:	f88d 3007 	strb.w	r3, [sp, #7]
 8001fe2:	2301      	movs	r3, #1
 8001fe4:	f000 f863 	bl	80020ae <ov5640_write_reg>
 8001fe8:	3800      	subs	r0, #0
 8001fea:	bf18      	it	ne
 8001fec:	2001      	movne	r0, #1
 8001fee:	4240      	negs	r0, r0
 8001ff0:	b003      	add	sp, #12
 8001ff2:	f85d fb04 	ldr.w	pc, [sp], #4
 8001ff6:	f04f 30ff 	mov.w	r0, #4294967295	; 0xffffffff
 8001ffa:	e7f9      	b.n	8001ff0 <OV5640_SetPolarities+0x34>

08001ffc <OV5640_Init>:
 8001ffc:	e92d 47f3 	stmdb	sp!, {r0, r1, r4, r5, r6, r7, r8, r9, sl, lr}
 8002000:	f890 3024 	ldrb.w	r3, [r0, #36]	; 0x24
 8002004:	4604      	mov	r4, r0
 8002006:	460f      	mov	r7, r1
 8002008:	4616      	mov	r6, r2
 800200a:	2b00      	cmp	r3, #0
 800200c:	d144      	bne.n	8002098 <OV5640_Init+0x9c>
 800200e:	2904      	cmp	r1, #4
 8002010:	d821      	bhi.n	8002056 <OV5640_Init+0x5a>
 8002012:	2a02      	cmp	r2, #2
 8002014:	d83c      	bhi.n	8002090 <OV5640_Init+0x94>
 8002016:	f04f 0800 	mov.w	r8, #0
 800201a:	f8df 9080 	ldr.w	r9, [pc, #128]	; 800209c <OV5640_Init+0xa0>
 800201e:	f104 0a18 	add.w	sl, r4, #24
 8002022:	4645      	mov	r5, r8
 8002024:	b97d      	cbnz	r5, 8002046 <OV5640_Init+0x4a>
 8002026:	f8b9 3002 	ldrh.w	r3, [r9, #2]
 800202a:	f10d 0207 	add.w	r2, sp, #7
 800202e:	f8b9 1000 	ldrh.w	r1, [r9]
 8002032:	4650      	mov	r0, sl
 8002034:	f88d 3007 	strb.w	r3, [sp, #7]
 8002038:	2301      	movs	r3, #1
 800203a:	f000 f838 	bl	80020ae <ov5640_write_reg>
 800203e:	3800      	subs	r0, #0
 8002040:	bf18      	it	ne
 8002042:	2001      	movne	r0, #1
 8002044:	4245      	negs	r5, r0
 8002046:	f108 0801 	add.w	r8, r8, #1
 800204a:	f109 0904 	add.w	r9, r9, #4
 800204e:	f1b8 0ffe 	cmp.w	r8, #254	; 0xfe
 8002052:	d1e7      	bne.n	8002024 <OV5640_Init+0x28>
 8002054:	b115      	cbz	r5, 800205c <OV5640_Init+0x60>
 8002056:	f04f 30ff 	mov.w	r0, #4294967295	; 0xffffffff
 800205a:	e016      	b.n	800208a <OV5640_Init+0x8e>
 800205c:	4639      	mov	r1, r7
 800205e:	4620      	mov	r0, r4
 8002060:	f7ff f8ca 	bl	80011f8 <OV5640_SetResolution>
 8002064:	2800      	cmp	r0, #0
 8002066:	d1f6      	bne.n	8002056 <OV5640_Init+0x5a>
 8002068:	4631      	mov	r1, r6
 800206a:	4620      	mov	r0, r4
 800206c:	f7ff feab 	bl	8001dc6 <OV5640_SetPixelFormat>
 8002070:	2800      	cmp	r0, #0
 8002072:	d1f0      	bne.n	8002056 <OV5640_Init+0x5a>
 8002074:	2201      	movs	r2, #1
 8002076:	462b      	mov	r3, r5
 8002078:	4620      	mov	r0, r4
 800207a:	4611      	mov	r1, r2
 800207c:	f7ff ff9e 	bl	8001fbc <OV5640_SetPolarities>
 8002080:	2800      	cmp	r0, #0
 8002082:	d1e8      	bne.n	8002056 <OV5640_Init+0x5a>
 8002084:	2301      	movs	r3, #1
 8002086:	f884 3024 	strb.w	r3, [r4, #36]	; 0x24
 800208a:	b002      	add	sp, #8
 800208c:	e8bd 87f0 	ldmia.w	sp!, {r4, r5, r6, r7, r8, r9, sl, pc}
 8002090:	1fd3      	subs	r3, r2, #7
 8002092:	2b01      	cmp	r3, #1
 8002094:	d8df      	bhi.n	8002056 <OV5640_Init+0x5a>
 8002096:	e7be      	b.n	8002016 <OV5640_Init+0x1a>
 8002098:	2000      	movs	r0, #0
 800209a:	e7f6      	b.n	800208a <OV5640_Init+0x8e>
 800209c:	080089fe 	.word	0x080089fe

080020a0 <ov5640_read_reg>:
 80020a0:	b410      	push	{r4}
 80020a2:	e9d0 4001 	ldrd	r4, r0, [r0, #4]
 80020a6:	46a4      	mov	ip, r4
 80020a8:	f85d 4b04 	ldr.w	r4, [sp], #4
 80020ac:	4760      	bx	ip

080020ae <ov5640_write_reg>:
 80020ae:	b410      	push	{r4}
 80020b0:	6804      	ldr	r4, [r0, #0]
 80020b2:	6880      	ldr	r0, [r0, #8]
 80020b4:	46a4      	mov	ip, r4
 80020b6:	f85d 4b04 	ldr.w	r4, [sp], #4
 80020ba:	4760      	bx	ip

080020bc <RetargetInit>:
 80020bc:	4b04      	ldr	r3, [pc, #16]	; (80020d0 <RetargetInit+0x14>)
 80020be:	2202      	movs	r2, #2
 80020c0:	6018      	str	r0, [r3, #0]
 80020c2:	4b04      	ldr	r3, [pc, #16]	; (80020d4 <RetargetInit+0x18>)
 80020c4:	6818      	ldr	r0, [r3, #0]
 80020c6:	2300      	movs	r3, #0
 80020c8:	6880      	ldr	r0, [r0, #8]
 80020ca:	4619      	mov	r1, r3
 80020cc:	f006 b81c 	b.w	8008108 <setvbuf>
 80020d0:	240002e8 	.word	0x240002e8
 80020d4:	24000054 	.word	0x24000054

080020d8 <_write>:
 80020d8:	3801      	subs	r0, #1
 80020da:	2801      	cmp	r0, #1
 80020dc:	b510      	push	{r4, lr}
 80020de:	4614      	mov	r4, r2
 80020e0:	d80b      	bhi.n	80020fa <_write+0x22>
 80020e2:	4809      	ldr	r0, [pc, #36]	; (8002108 <_write+0x30>)
 80020e4:	f04f 33ff 	mov.w	r3, #4294967295	; 0xffffffff
 80020e8:	b292      	uxth	r2, r2
 80020ea:	6800      	ldr	r0, [r0, #0]
 80020ec:	f005 fd6f 	bl	8007bce <HAL_UART_Transmit>
 80020f0:	2800      	cmp	r0, #0
 80020f2:	bf18      	it	ne
 80020f4:	2405      	movne	r4, #5
 80020f6:	4620      	mov	r0, r4
 80020f8:	bd10      	pop	{r4, pc}
 80020fa:	f005 ffd3 	bl	80080a4 <__errno>
 80020fe:	2309      	movs	r3, #9
 8002100:	f04f 34ff 	mov.w	r4, #4294967295	; 0xffffffff
 8002104:	6003      	str	r3, [r0, #0]
 8002106:	e7f6      	b.n	80020f6 <_write+0x1e>
 8002108:	240002e8 	.word	0x240002e8

0800210c <_close>:
 800210c:	2802      	cmp	r0, #2
 800210e:	b508      	push	{r3, lr}
 8002110:	d906      	bls.n	8002120 <_close+0x14>
 8002112:	f005 ffc7 	bl	80080a4 <__errno>
 8002116:	2309      	movs	r3, #9
 8002118:	6003      	str	r3, [r0, #0]
 800211a:	f04f 30ff 	mov.w	r0, #4294967295	; 0xffffffff
 800211e:	bd08      	pop	{r3, pc}
 8002120:	2000      	movs	r0, #0
 8002122:	e7fc      	b.n	800211e <_close+0x12>

08002124 <_read>:
 8002124:	b508      	push	{r3, lr}
 8002126:	b958      	cbnz	r0, 8002140 <_read+0x1c>
 8002128:	4809      	ldr	r0, [pc, #36]	; (8002150 <_read+0x2c>)
 800212a:	f04f 33ff 	mov.w	r3, #4294967295	; 0xffffffff
 800212e:	2201      	movs	r2, #1
 8002130:	6800      	ldr	r0, [r0, #0]
 8002132:	f005 fda2 	bl	8007c7a <HAL_UART_Receive>
 8002136:	2800      	cmp	r0, #0
 8002138:	bf0c      	ite	eq
 800213a:	2001      	moveq	r0, #1
 800213c:	2005      	movne	r0, #5
 800213e:	bd08      	pop	{r3, pc}
 8002140:	f005 ffb0 	bl	80080a4 <__errno>
 8002144:	2309      	movs	r3, #9
 8002146:	6003      	str	r3, [r0, #0]
 8002148:	f04f 30ff 	mov.w	r0, #4294967295	; 0xffffffff
 800214c:	e7f7      	b.n	800213e <_read+0x1a>
 800214e:	bf00      	nop
 8002150:	240002e8 	.word	0x240002e8

08002154 <_fstat>:
 8002154:	2802      	cmp	r0, #2
 8002156:	b508      	push	{r3, lr}
 8002158:	d804      	bhi.n	8002164 <_fstat+0x10>
 800215a:	f44f 5300 	mov.w	r3, #8192	; 0x2000
 800215e:	604b      	str	r3, [r1, #4]
 8002160:	2000      	movs	r0, #0
 8002162:	bd08      	pop	{r3, pc}
 8002164:	f005 ff9e 	bl	80080a4 <__errno>
 8002168:	2309      	movs	r3, #9
 800216a:	6003      	str	r3, [r0, #0]
 800216c:	e7f8      	b.n	8002160 <_fstat+0xc>
	...

08002170 <MX_RTC_Init>:
 8002170:	b508      	push	{r3, lr}
 8002172:	480b      	ldr	r0, [pc, #44]	; (80021a0 <MX_RTC_Init+0x30>)
 8002174:	2300      	movs	r3, #0
 8002176:	4a0b      	ldr	r2, [pc, #44]	; (80021a4 <MX_RTC_Init+0x34>)
 8002178:	217f      	movs	r1, #127	; 0x7f
 800217a:	6103      	str	r3, [r0, #16]
 800217c:	6183      	str	r3, [r0, #24]
 800217e:	6143      	str	r3, [r0, #20]
 8002180:	e9c0 2300 	strd	r2, r3, [r0]
 8002184:	22ff      	movs	r2, #255	; 0xff
 8002186:	e9c0 1202 	strd	r1, r2, [r0, #8]
 800218a:	f04f 4280 	mov.w	r2, #1073741824	; 0x40000000
 800218e:	61c2      	str	r2, [r0, #28]
 8002190:	f005 f810 	bl	80071b4 <HAL_RTC_Init>
 8002194:	b118      	cbz	r0, 800219e <MX_RTC_Init+0x2e>
 8002196:	e8bd 4008 	ldmia.w	sp!, {r3, lr}
 800219a:	f7fe bfff 	b.w	800119c <Error_Handler>
 800219e:	bd08      	pop	{r3, pc}
 80021a0:	240002ec 	.word	0x240002ec
 80021a4:	58004000 	.word	0x58004000

080021a8 <HAL_RTC_MspInit>:
 80021a8:	b510      	push	{r4, lr}
 80021aa:	b0b0      	sub	sp, #192	; 0xc0
 80021ac:	4604      	mov	r4, r0
 80021ae:	22c0      	movs	r2, #192	; 0xc0
 80021b0:	2100      	movs	r1, #0
 80021b2:	4668      	mov	r0, sp
 80021b4:	f005 ffa0 	bl	80080f8 <memset>
 80021b8:	6822      	ldr	r2, [r4, #0]
 80021ba:	4b0c      	ldr	r3, [pc, #48]	; (80021ec <HAL_RTC_MspInit+0x44>)
 80021bc:	429a      	cmp	r2, r3
 80021be:	d112      	bne.n	80021e6 <HAL_RTC_MspInit+0x3e>
 80021c0:	2300      	movs	r3, #0
 80021c2:	f44f 0280 	mov.w	r2, #4194304	; 0x400000
 80021c6:	4668      	mov	r0, sp
 80021c8:	e9cd 2300 	strd	r2, r3, [sp]
 80021cc:	f44f 7380 	mov.w	r3, #256	; 0x100
 80021d0:	932d      	str	r3, [sp, #180]	; 0xb4
 80021d2:	f004 f94f 	bl	8006474 <HAL_RCCEx_PeriphCLKConfig>
 80021d6:	b108      	cbz	r0, 80021dc <HAL_RTC_MspInit+0x34>
 80021d8:	f7fe ffe0 	bl	800119c <Error_Handler>
 80021dc:	4a04      	ldr	r2, [pc, #16]	; (80021f0 <HAL_RTC_MspInit+0x48>)
 80021de:	6f13      	ldr	r3, [r2, #112]	; 0x70
 80021e0:	f443 4300 	orr.w	r3, r3, #32768	; 0x8000
 80021e4:	6713      	str	r3, [r2, #112]	; 0x70
 80021e6:	b030      	add	sp, #192	; 0xc0
 80021e8:	bd10      	pop	{r4, pc}
 80021ea:	bf00      	nop
 80021ec:	58004000 	.word	0x58004000
 80021f0:	58024400 	.word	0x58024400

080021f4 <BSP_I2C4_DeInit>:
 80021f4:	4a10      	ldr	r2, [pc, #64]	; (8002238 <BSP_I2C4_DeInit+0x44>)
 80021f6:	b508      	push	{r3, lr}
 80021f8:	6813      	ldr	r3, [r2, #0]
 80021fa:	3b01      	subs	r3, #1
 80021fc:	6013      	str	r3, [r2, #0]
 80021fe:	b10b      	cbz	r3, 8002204 <BSP_I2C4_DeInit+0x10>
 8002200:	2000      	movs	r0, #0
 8002202:	bd08      	pop	{r3, pc}
 8002204:	f44f 5180 	mov.w	r1, #4096	; 0x1000
 8002208:	480c      	ldr	r0, [pc, #48]	; (800223c <BSP_I2C4_DeInit+0x48>)
 800220a:	f002 fd27 	bl	8004c5c <HAL_GPIO_DeInit>
 800220e:	480b      	ldr	r0, [pc, #44]	; (800223c <BSP_I2C4_DeInit+0x48>)
 8002210:	f44f 5100 	mov.w	r1, #8192	; 0x2000
 8002214:	f002 fd22 	bl	8004c5c <HAL_GPIO_DeInit>
 8002218:	4a09      	ldr	r2, [pc, #36]	; (8002240 <BSP_I2C4_DeInit+0x4c>)
 800221a:	480a      	ldr	r0, [pc, #40]	; (8002244 <BSP_I2C4_DeInit+0x50>)
 800221c:	f8d2 3154 	ldr.w	r3, [r2, #340]	; 0x154
 8002220:	f023 0380 	bic.w	r3, r3, #128	; 0x80
 8002224:	f8c2 3154 	str.w	r3, [r2, #340]	; 0x154
 8002228:	f002 ff47 	bl	80050ba <HAL_I2C_DeInit>
 800222c:	2800      	cmp	r0, #0
 800222e:	d0e7      	beq.n	8002200 <BSP_I2C4_DeInit+0xc>
 8002230:	f06f 0007 	mvn.w	r0, #7
 8002234:	e7e5      	b.n	8002202 <BSP_I2C4_DeInit+0xe>
 8002236:	bf00      	nop
 8002238:	24000314 	.word	0x24000314
 800223c:	58020c00 	.word	0x58020c00
 8002240:	58024400 	.word	0x58024400
 8002244:	24000d1c 	.word	0x24000d1c

08002248 <MX_I2C4_Init>:
 8002248:	2300      	movs	r3, #0
 800224a:	2201      	movs	r2, #1
 800224c:	b510      	push	{r4, lr}
 800224e:	6041      	str	r1, [r0, #4]
 8002250:	4604      	mov	r4, r0
 8002252:	6203      	str	r3, [r0, #32]
 8002254:	e9c0 3202 	strd	r3, r2, [r0, #8]
 8002258:	e9c0 3304 	strd	r3, r3, [r0, #16]
 800225c:	e9c0 3306 	strd	r3, r3, [r0, #24]
 8002260:	f002 fed9 	bl	8005016 <HAL_I2C_Init>
 8002264:	4601      	mov	r1, r0
 8002266:	b108      	cbz	r0, 800226c <MX_I2C4_Init+0x24>
 8002268:	2001      	movs	r0, #1
 800226a:	bd10      	pop	{r4, pc}
 800226c:	4620      	mov	r0, r4
 800226e:	f003 f8fa 	bl	8005466 <HAL_I2CEx_ConfigAnalogFilter>
 8002272:	4601      	mov	r1, r0
 8002274:	2800      	cmp	r0, #0
 8002276:	d1f7      	bne.n	8002268 <MX_I2C4_Init+0x20>
 8002278:	4620      	mov	r0, r4
 800227a:	f003 f91a 	bl	80054b2 <HAL_I2CEx_ConfigDigitalFilter>
 800227e:	3800      	subs	r0, #0
 8002280:	bf18      	it	ne
 8002282:	2001      	movne	r0, #1
 8002284:	e7f1      	b.n	800226a <MX_I2C4_Init+0x22>
	...

08002288 <BSP_I2C4_Init>:
 8002288:	4ba3      	ldr	r3, [pc, #652]	; (8002518 <BSP_I2C4_Init+0x290>)
 800228a:	48a4      	ldr	r0, [pc, #656]	; (800251c <BSP_I2C4_Init+0x294>)
 800228c:	e92d 4ff0 	stmdb	sp!, {r4, r5, r6, r7, r8, r9, sl, fp, lr}
 8002290:	6003      	str	r3, [r0, #0]
 8002292:	b093      	sub	sp, #76	; 0x4c
 8002294:	4ba2      	ldr	r3, [pc, #648]	; (8002520 <BSP_I2C4_Init+0x298>)
 8002296:	681a      	ldr	r2, [r3, #0]
 8002298:	9200      	str	r2, [sp, #0]
 800229a:	2a00      	cmp	r2, #0
 800229c:	f040 80cf 	bne.w	800243e <BSP_I2C4_Init+0x1b6>
 80022a0:	2201      	movs	r2, #1
 80022a2:	601a      	str	r2, [r3, #0]
 80022a4:	f003 f8da 	bl	800545c <HAL_I2C_GetState>
 80022a8:	2800      	cmp	r0, #0
 80022aa:	f040 80c8 	bne.w	800243e <BSP_I2C4_Init+0x1b6>
 80022ae:	4d9d      	ldr	r5, [pc, #628]	; (8002524 <BSP_I2C4_Init+0x29c>)
 80022b0:	f04f 0812 	mov.w	r8, #18
 80022b4:	2702      	movs	r7, #2
 80022b6:	2604      	movs	r6, #4
 80022b8:	f8d5 3140 	ldr.w	r3, [r5, #320]	; 0x140
 80022bc:	a90d      	add	r1, sp, #52	; 0x34
 80022be:	489a      	ldr	r0, [pc, #616]	; (8002528 <BSP_I2C4_Init+0x2a0>)
 80022c0:	f043 0308 	orr.w	r3, r3, #8
 80022c4:	f8c5 3140 	str.w	r3, [r5, #320]	; 0x140
 80022c8:	f8d5 3140 	ldr.w	r3, [r5, #320]	; 0x140
 80022cc:	f003 0308 	and.w	r3, r3, #8
 80022d0:	930a      	str	r3, [sp, #40]	; 0x28
 80022d2:	9b0a      	ldr	r3, [sp, #40]	; 0x28
 80022d4:	f8d5 3140 	ldr.w	r3, [r5, #320]	; 0x140
 80022d8:	f043 0308 	orr.w	r3, r3, #8
 80022dc:	f8c5 3140 	str.w	r3, [r5, #320]	; 0x140
 80022e0:	f8d5 3140 	ldr.w	r3, [r5, #320]	; 0x140
 80022e4:	f003 0308 	and.w	r3, r3, #8
 80022e8:	930b      	str	r3, [sp, #44]	; 0x2c
 80022ea:	9b0b      	ldr	r3, [sp, #44]	; 0x2c
 80022ec:	f44f 5380 	mov.w	r3, #4096	; 0x1000
 80022f0:	e9cd 380d 	strd	r3, r8, [sp, #52]	; 0x34
 80022f4:	9b00      	ldr	r3, [sp, #0]
 80022f6:	e9cd 7610 	strd	r7, r6, [sp, #64]	; 0x40
 80022fa:	930f      	str	r3, [sp, #60]	; 0x3c
 80022fc:	f002 fbc2 	bl	8004a84 <HAL_GPIO_Init>
 8002300:	f44f 5300 	mov.w	r3, #8192	; 0x2000
 8002304:	a90d      	add	r1, sp, #52	; 0x34
 8002306:	4888      	ldr	r0, [pc, #544]	; (8002528 <BSP_I2C4_Init+0x2a0>)
 8002308:	9611      	str	r6, [sp, #68]	; 0x44
 800230a:	e9cd 380d 	strd	r3, r8, [sp, #52]	; 0x34
 800230e:	9b00      	ldr	r3, [sp, #0]
 8002310:	e9cd 370f 	strd	r3, r7, [sp, #60]	; 0x3c
 8002314:	f002 fbb6 	bl	8004a84 <HAL_GPIO_Init>
 8002318:	f8d5 3154 	ldr.w	r3, [r5, #340]	; 0x154
 800231c:	f043 0380 	orr.w	r3, r3, #128	; 0x80
 8002320:	f8c5 3154 	str.w	r3, [r5, #340]	; 0x154
 8002324:	f8d5 3154 	ldr.w	r3, [r5, #340]	; 0x154
 8002328:	f003 0380 	and.w	r3, r3, #128	; 0x80
 800232c:	930c      	str	r3, [sp, #48]	; 0x30
 800232e:	9b0c      	ldr	r3, [sp, #48]	; 0x30
 8002330:	f8d5 309c 	ldr.w	r3, [r5, #156]	; 0x9c
 8002334:	f043 0380 	orr.w	r3, r3, #128	; 0x80
 8002338:	f8c5 309c 	str.w	r3, [r5, #156]	; 0x9c
 800233c:	f8d5 309c 	ldr.w	r3, [r5, #156]	; 0x9c
 8002340:	f023 0380 	bic.w	r3, r3, #128	; 0x80
 8002344:	f8c5 309c 	str.w	r3, [r5, #156]	; 0x9c
 8002348:	f003 ff92 	bl	8006270 <HAL_RCC_GetPCLK2Freq>
 800234c:	2800      	cmp	r0, #0
 800234e:	d070      	beq.n	8002432 <BSP_I2C4_Init+0x1aa>
 8002350:	4b76      	ldr	r3, [pc, #472]	; (800252c <BSP_I2C4_Init+0x2a4>)
 8002352:	f04f 0810 	mov.w	r8, #16
 8002356:	f8df 91dc 	ldr.w	r9, [pc, #476]	; 8002534 <BSP_I2C4_Init+0x2ac>
 800235a:	f04f 0a14 	mov.w	sl, #20
 800235e:	eb03 0350 	add.w	r3, r3, r0, lsr #1
 8002362:	fbb3 f0f0 	udiv	r0, r3, r0
 8002366:	eb00 0240 	add.w	r2, r0, r0, lsl #1
 800236a:	f640 13f6 	movw	r3, #2550	; 0x9f6
 800236e:	4601      	mov	r1, r0
 8002370:	f1c2 22ff 	rsb	r2, r2, #4278255360	; 0xff00ff00
 8002374:	eba3 0380 	sub.w	r3, r3, r0, lsl #2
 8002378:	f502 027f 	add.w	r2, r2, #16711680	; 0xff0000
 800237c:	ea23 73e3 	bic.w	r3, r3, r3, asr #31
 8002380:	32e2      	adds	r2, #226	; 0xe2
 8002382:	9302      	str	r3, [sp, #8]
 8002384:	4b6a      	ldr	r3, [pc, #424]	; (8002530 <BSP_I2C4_Init+0x2a8>)
 8002386:	ea22 7be2 	bic.w	fp, r2, r2, asr #31
 800238a:	9a00      	ldr	r2, [sp, #0]
 800238c:	681b      	ldr	r3, [r3, #0]
 800238e:	4696      	mov	lr, r2
 8002390:	468c      	mov	ip, r1
 8002392:	2600      	movs	r6, #0
 8002394:	f240 3479 	movw	r4, #889	; 0x379
 8002398:	9601      	str	r6, [sp, #4]
 800239a:	3601      	adds	r6, #1
 800239c:	45a4      	cmp	ip, r4
 800239e:	d959      	bls.n	8002454 <BSP_I2C4_Init+0x1cc>
 80023a0:	2500      	movs	r5, #0
 80023a2:	462f      	mov	r7, r5
 80023a4:	45ab      	cmp	fp, r5
 80023a6:	d851      	bhi.n	800244c <BSP_I2C4_Init+0x1c4>
 80023a8:	9c02      	ldr	r4, [sp, #8]
 80023aa:	42ac      	cmp	r4, r5
 80023ac:	d34e      	bcc.n	800244c <BSP_I2C4_Init+0x1c4>
 80023ae:	4590      	cmp	r8, r2
 80023b0:	d04c      	beq.n	800244c <BSP_I2C4_Init+0x1c4>
 80023b2:	fb0a f803 	mul.w	r8, sl, r3
 80023b6:	3301      	adds	r3, #1
 80023b8:	9c01      	ldr	r4, [sp, #4]
 80023ba:	eb09 0e08 	add.w	lr, r9, r8
 80023be:	2b7f      	cmp	r3, #127	; 0x7f
 80023c0:	f849 2008 	str.w	r2, [r9, r8]
 80023c4:	e9ce 4701 	strd	r4, r7, [lr, #4]
 80023c8:	d93d      	bls.n	8002446 <BSP_I2C4_Init+0x1be>
 80023ca:	4a59      	ldr	r2, [pc, #356]	; (8002530 <BSP_I2C4_Init+0x2a8>)
 80023cc:	6013      	str	r3, [r2, #0]
 80023ce:	4b58      	ldr	r3, [pc, #352]	; (8002530 <BSP_I2C4_Init+0x2a8>)
 80023d0:	f242 7210 	movw	r2, #10000	; 0x2710
 80023d4:	4957      	ldr	r1, [pc, #348]	; (8002534 <BSP_I2C4_Init+0x2ac>)
 80023d6:	2700      	movs	r7, #0
 80023d8:	681b      	ldr	r3, [r3, #0]
 80023da:	9203      	str	r2, [sp, #12]
 80023dc:	f04f 32ff 	mov.w	r2, #4294967295	; 0xffffffff
 80023e0:	9305      	str	r3, [sp, #20]
 80023e2:	0043      	lsls	r3, r0, #1
 80023e4:	f103 0432 	add.w	r4, r3, #50	; 0x32
 80023e8:	f5c3 5b90 	rsb	fp, r3, #4608	; 0x1200
 80023ec:	f5a3 5311 	sub.w	r3, r3, #9280	; 0x2440
 80023f0:	f10b 0b0c 	add.w	fp, fp, #12
 80023f4:	9409      	str	r4, [sp, #36]	; 0x24
 80023f6:	3b0a      	subs	r3, #10
 80023f8:	9302      	str	r3, [sp, #8]
 80023fa:	9b05      	ldr	r3, [sp, #20]
 80023fc:	429f      	cmp	r7, r3
 80023fe:	d134      	bne.n	800246a <BSP_I2C4_Init+0x1e2>
 8002400:	2a7f      	cmp	r2, #127	; 0x7f
 8002402:	d816      	bhi.n	8002432 <BSP_I2C4_Init+0x1aa>
 8002404:	2314      	movs	r3, #20
 8002406:	435a      	muls	r2, r3
 8002408:	4b4a      	ldr	r3, [pc, #296]	; (8002534 <BSP_I2C4_Init+0x2ac>)
 800240a:	1899      	adds	r1, r3, r2
 800240c:	589b      	ldr	r3, [r3, r2]
 800240e:	7c0c      	ldrb	r4, [r1, #16]
 8002410:	ea44 7403 	orr.w	r4, r4, r3, lsl #28
 8002414:	684b      	ldr	r3, [r1, #4]
 8002416:	051b      	lsls	r3, r3, #20
 8002418:	f403 0370 	and.w	r3, r3, #15728640	; 0xf00000
 800241c:	431c      	orrs	r4, r3
 800241e:	688b      	ldr	r3, [r1, #8]
 8002420:	041b      	lsls	r3, r3, #16
 8002422:	f403 2370 	and.w	r3, r3, #983040	; 0xf0000
 8002426:	431c      	orrs	r4, r3
 8002428:	68cb      	ldr	r3, [r1, #12]
 800242a:	021b      	lsls	r3, r3, #8
 800242c:	b29b      	uxth	r3, r3
 800242e:	4323      	orrs	r3, r4
 8002430:	9300      	str	r3, [sp, #0]
 8002432:	9900      	ldr	r1, [sp, #0]
 8002434:	4839      	ldr	r0, [pc, #228]	; (800251c <BSP_I2C4_Init+0x294>)
 8002436:	f7ff ff07 	bl	8002248 <MX_I2C4_Init>
 800243a:	2800      	cmp	r0, #0
 800243c:	d169      	bne.n	8002512 <BSP_I2C4_Init+0x28a>
 800243e:	2000      	movs	r0, #0
 8002440:	b013      	add	sp, #76	; 0x4c
 8002442:	e8bd 8ff0 	ldmia.w	sp!, {r4, r5, r6, r7, r8, r9, sl, fp, pc}
 8002446:	4690      	mov	r8, r2
 8002448:	f04f 0e01 	mov.w	lr, #1
 800244c:	3701      	adds	r7, #1
 800244e:	440d      	add	r5, r1
 8002450:	2f10      	cmp	r7, #16
 8002452:	d1a7      	bne.n	80023a4 <BSP_I2C4_Init+0x11c>
 8002454:	2e10      	cmp	r6, #16
 8002456:	448c      	add	ip, r1
 8002458:	d19c      	bne.n	8002394 <BSP_I2C4_Init+0x10c>
 800245a:	3201      	adds	r2, #1
 800245c:	4401      	add	r1, r0
 800245e:	2a10      	cmp	r2, #16
 8002460:	d196      	bne.n	8002390 <BSP_I2C4_Init+0x108>
 8002462:	f1be 0f00 	cmp.w	lr, #0
 8002466:	d1b0      	bne.n	80023ca <BSP_I2C4_Init+0x142>
 8002468:	e7b1      	b.n	80023ce <BSP_I2C4_Init+0x146>
 800246a:	680b      	ldr	r3, [r1, #0]
 800246c:	f04f 0c00 	mov.w	ip, #0
 8002470:	9c09      	ldr	r4, [sp, #36]	; 0x24
 8002472:	fb03 0300 	mla	r3, r3, r0, r0
 8002476:	441c      	add	r4, r3
 8002478:	ebab 0503 	sub.w	r5, fp, r3
 800247c:	9404      	str	r4, [sp, #16]
 800247e:	006c      	lsls	r4, r5, #1
 8002480:	9d04      	ldr	r5, [sp, #16]
 8002482:	9401      	str	r4, [sp, #4]
 8002484:	9c02      	ldr	r4, [sp, #8]
 8002486:	441c      	add	r4, r3
 8002488:	9408      	str	r4, [sp, #32]
 800248a:	f241 245c 	movw	r4, #4700	; 0x125c
 800248e:	f8cd c018 	str.w	ip, [sp, #24]
 8002492:	f1a5 0632 	sub.w	r6, r5, #50	; 0x32
 8002496:	f10c 0c01 	add.w	ip, ip, #1
 800249a:	42a5      	cmp	r5, r4
 800249c:	d92e      	bls.n	80024fc <BSP_I2C4_Init+0x274>
 800249e:	ebb0 0f96 	cmp.w	r0, r6, lsr #2
 80024a2:	d22b      	bcs.n	80024fc <BSP_I2C4_Init+0x274>
 80024a4:	9c08      	ldr	r4, [sp, #32]
 80024a6:	f04f 0e00 	mov.w	lr, #0
 80024aa:	f8dd 8010 	ldr.w	r8, [sp, #16]
 80024ae:	1966      	adds	r6, r4, r5
 80024b0:	f8dd 9004 	ldr.w	r9, [sp, #4]
 80024b4:	f206 6a83 	addw	sl, r6, #1667	; 0x683
 80024b8:	f241 0447 	movw	r4, #4167	; 0x1047
 80024bc:	f8cd e01c 	str.w	lr, [sp, #28]
 80024c0:	f10e 0e01 	add.w	lr, lr, #1
 80024c4:	45a2      	cmp	sl, r4
 80024c6:	d812      	bhi.n	80024ee <BSP_I2C4_Init+0x266>
 80024c8:	f5b8 6f7a 	cmp.w	r8, #4000	; 0xfa0
 80024cc:	d30f      	bcc.n	80024ee <BSP_I2C4_Init+0x266>
 80024ce:	4540      	cmp	r0, r8
 80024d0:	d20d      	bcs.n	80024ee <BSP_I2C4_Init+0x266>
 80024d2:	ea36 0a26 	bics.w	sl, r6, r6, asr #32
 80024d6:	bf28      	it	cs
 80024d8:	46ca      	movcs	sl, r9
 80024da:	9c03      	ldr	r4, [sp, #12]
 80024dc:	45a2      	cmp	sl, r4
 80024de:	d206      	bcs.n	80024ee <BSP_I2C4_Init+0x266>
 80024e0:	9a06      	ldr	r2, [sp, #24]
 80024e2:	f8cd a00c 	str.w	sl, [sp, #12]
 80024e6:	610a      	str	r2, [r1, #16]
 80024e8:	9a07      	ldr	r2, [sp, #28]
 80024ea:	60ca      	str	r2, [r1, #12]
 80024ec:	463a      	mov	r2, r7
 80024ee:	f5be 7f80 	cmp.w	lr, #256	; 0x100
 80024f2:	eba9 0903 	sub.w	r9, r9, r3
 80024f6:	441e      	add	r6, r3
 80024f8:	4498      	add	r8, r3
 80024fa:	d1db      	bne.n	80024b4 <BSP_I2C4_Init+0x22c>
 80024fc:	9c01      	ldr	r4, [sp, #4]
 80024fe:	f5bc 7f80 	cmp.w	ip, #256	; 0x100
 8002502:	441d      	add	r5, r3
 8002504:	eba4 0403 	sub.w	r4, r4, r3
 8002508:	9401      	str	r4, [sp, #4]
 800250a:	d1be      	bne.n	800248a <BSP_I2C4_Init+0x202>
 800250c:	3701      	adds	r7, #1
 800250e:	3114      	adds	r1, #20
 8002510:	e773      	b.n	80023fa <BSP_I2C4_Init+0x172>
 8002512:	f06f 0007 	mvn.w	r0, #7
 8002516:	e793      	b.n	8002440 <BSP_I2C4_Init+0x1b8>
 8002518:	58001c00 	.word	0x58001c00
 800251c:	24000d1c 	.word	0x24000d1c
 8002520:	24000314 	.word	0x24000314
 8002524:	58024400 	.word	0x58024400
 8002528:	58020c00 	.word	0x58020c00
 800252c:	3b9aca00 	.word	0x3b9aca00
 8002530:	24000d18 	.word	0x24000d18
 8002534:	24000318 	.word	0x24000318

08002538 <BSP_I2C4_WriteReg16>:
 8002538:	b51f      	push	{r0, r1, r2, r3, r4, lr}
 800253a:	f44f 747a 	mov.w	r4, #1000	; 0x3e8
 800253e:	9200      	str	r2, [sp, #0]
 8002540:	460a      	mov	r2, r1
 8002542:	4601      	mov	r1, r0
 8002544:	4808      	ldr	r0, [pc, #32]	; (8002568 <BSP_I2C4_WriteReg16+0x30>)
 8002546:	e9cd 3401 	strd	r3, r4, [sp, #4]
 800254a:	2302      	movs	r3, #2
 800254c:	f002 fdce 	bl	80050ec <HAL_I2C_Mem_Write>
 8002550:	b140      	cbz	r0, 8002564 <BSP_I2C4_WriteReg16+0x2c>
 8002552:	4805      	ldr	r0, [pc, #20]	; (8002568 <BSP_I2C4_WriteReg16+0x30>)
 8002554:	f002 ff85 	bl	8005462 <HAL_I2C_GetError>
 8002558:	2804      	cmp	r0, #4
 800255a:	bf0c      	ite	eq
 800255c:	f06f 0065 	mvneq.w	r0, #101	; 0x65
 8002560:	f06f 0003 	mvnne.w	r0, #3
 8002564:	b004      	add	sp, #16
 8002566:	bd10      	pop	{r4, pc}
 8002568:	24000d1c 	.word	0x24000d1c

0800256c <BSP_I2C4_ReadReg16>:
 800256c:	b51f      	push	{r0, r1, r2, r3, r4, lr}
 800256e:	f44f 747a 	mov.w	r4, #1000	; 0x3e8
 8002572:	9200      	str	r2, [sp, #0]
 8002574:	460a      	mov	r2, r1
 8002576:	4601      	mov	r1, r0
 8002578:	4808      	ldr	r0, [pc, #32]	; (800259c <BSP_I2C4_ReadReg16+0x30>)
 800257a:	e9cd 3401 	strd	r3, r4, [sp, #4]
 800257e:	2302      	movs	r3, #2
 8002580:	f002 fe8e 	bl	80052a0 <HAL_I2C_Mem_Read>
 8002584:	b140      	cbz	r0, 8002598 <BSP_I2C4_ReadReg16+0x2c>
 8002586:	4805      	ldr	r0, [pc, #20]	; (800259c <BSP_I2C4_ReadReg16+0x30>)
 8002588:	f002 ff6b 	bl	8005462 <HAL_I2C_GetError>
 800258c:	2804      	cmp	r0, #4
 800258e:	bf0c      	ite	eq
 8002590:	f06f 0065 	mvneq.w	r0, #101	; 0x65
 8002594:	f06f 0003 	mvnne.w	r0, #3
 8002598:	b004      	add	sp, #16
 800259a:	bd10      	pop	{r4, pc}
 800259c:	24000d1c 	.word	0x24000d1c

080025a0 <BSP_GetTick>:
 80025a0:	f000 ba84 	b.w	8002aac <HAL_GetTick>

080025a4 <BSP_CAMERA_Init>:
 80025a4:	e92d 41f0 	stmdb	sp!, {r4, r5, r6, r7, r8, lr}
 80025a8:	460d      	mov	r5, r1
 80025aa:	b088      	sub	sp, #32
 80025ac:	4614      	mov	r4, r2
 80025ae:	2800      	cmp	r0, #0
 80025b0:	d141      	bne.n	8002636 <BSP_CAMERA_Init+0x92>
 80025b2:	4822      	ldr	r0, [pc, #136]	; (800263c <BSP_CAMERA_Init+0x98>)
 80025b4:	f7fe f83c 	bl	8000630 <HAL_DCMI_MspInit>
 80025b8:	4e21      	ldr	r6, [pc, #132]	; (8002640 <BSP_CAMERA_Init+0x9c>)
 80025ba:	f7fe f819 	bl	80005f0 <MX_DCMI_Init>
 80025be:	2378      	movs	r3, #120	; 0x78
 80025c0:	a902      	add	r1, sp, #8
 80025c2:	4630      	mov	r0, r6
 80025c4:	f8ad 3010 	strh.w	r3, [sp, #16]
 80025c8:	4b1e      	ldr	r3, [pc, #120]	; (8002644 <BSP_CAMERA_Init+0xa0>)
 80025ca:	9302      	str	r3, [sp, #8]
 80025cc:	4b1e      	ldr	r3, [pc, #120]	; (8002648 <BSP_CAMERA_Init+0xa4>)
 80025ce:	9303      	str	r3, [sp, #12]
 80025d0:	4b1e      	ldr	r3, [pc, #120]	; (800264c <BSP_CAMERA_Init+0xa8>)
 80025d2:	9306      	str	r3, [sp, #24]
 80025d4:	4b1e      	ldr	r3, [pc, #120]	; (8002650 <BSP_CAMERA_Init+0xac>)
 80025d6:	9305      	str	r3, [sp, #20]
 80025d8:	4b1e      	ldr	r3, [pc, #120]	; (8002654 <BSP_CAMERA_Init+0xb0>)
 80025da:	9307      	str	r3, [sp, #28]
 80025dc:	f7ff fcd2 	bl	8001f84 <OV5640_RegisterBusIO>
 80025e0:	b120      	cbz	r0, 80025ec <BSP_CAMERA_Init+0x48>
 80025e2:	f06f 0006 	mvn.w	r0, #6
 80025e6:	b008      	add	sp, #32
 80025e8:	e8bd 81f0 	ldmia.w	sp!, {r4, r5, r6, r7, r8, pc}
 80025ec:	a901      	add	r1, sp, #4
 80025ee:	4630      	mov	r0, r6
 80025f0:	f7ff fbaf 	bl	8001d52 <OV5640_ReadID>
 80025f4:	2800      	cmp	r0, #0
 80025f6:	d1f4      	bne.n	80025e2 <BSP_CAMERA_Init+0x3e>
 80025f8:	9a01      	ldr	r2, [sp, #4]
 80025fa:	f245 6340 	movw	r3, #22080	; 0x5640
 80025fe:	429a      	cmp	r2, r3
 8002600:	d1ef      	bne.n	80025e2 <BSP_CAMERA_Init+0x3e>
 8002602:	4b15      	ldr	r3, [pc, #84]	; (8002658 <BSP_CAMERA_Init+0xb4>)
 8002604:	4629      	mov	r1, r5
 8002606:	f8df 805c 	ldr.w	r8, [pc, #92]	; 8002664 <BSP_CAMERA_Init+0xc0>
 800260a:	4622      	mov	r2, r4
 800260c:	4f13      	ldr	r7, [pc, #76]	; (800265c <BSP_CAMERA_Init+0xb8>)
 800260e:	4630      	mov	r0, r6
 8002610:	f8c8 3000 	str.w	r3, [r8]
 8002614:	603e      	str	r6, [r7, #0]
 8002616:	681b      	ldr	r3, [r3, #0]
 8002618:	4798      	blx	r3
 800261a:	4601      	mov	r1, r0
 800261c:	2800      	cmp	r0, #0
 800261e:	d1e0      	bne.n	80025e2 <BSP_CAMERA_Init+0x3e>
 8002620:	f8d8 3000 	ldr.w	r3, [r8]
 8002624:	6838      	ldr	r0, [r7, #0]
 8002626:	68db      	ldr	r3, [r3, #12]
 8002628:	4798      	blx	r3
 800262a:	2800      	cmp	r0, #0
 800262c:	d1d9      	bne.n	80025e2 <BSP_CAMERA_Init+0x3e>
 800262e:	4b0c      	ldr	r3, [pc, #48]	; (8002660 <BSP_CAMERA_Init+0xbc>)
 8002630:	e9c3 5400 	strd	r5, r4, [r3]
 8002634:	e7d7      	b.n	80025e6 <BSP_CAMERA_Init+0x42>
 8002636:	f06f 0001 	mvn.w	r0, #1
 800263a:	e7d4      	b.n	80025e6 <BSP_CAMERA_Init+0x42>
 800263c:	240000d4 	.word	0x240000d4
 8002640:	24000da8 	.word	0x24000da8
 8002644:	08002289 	.word	0x08002289
 8002648:	080021f5 	.word	0x080021f5
 800264c:	0800256d 	.word	0x0800256d
 8002650:	08002539 	.word	0x08002539
 8002654:	080025a1 	.word	0x080025a1
 8002658:	24000000 	.word	0x24000000
 800265c:	24000d70 	.word	0x24000d70
 8002660:	24000d74 	.word	0x24000d74
 8002664:	24000da4 	.word	0x24000da4

08002668 <BSP_CAMERA_Start>:
 8002668:	b538      	push	{r3, r4, r5, lr}
 800266a:	460d      	mov	r5, r1
 800266c:	4611      	mov	r1, r2
 800266e:	bb38      	cbnz	r0, 80026c0 <BSP_CAMERA_Start+0x58>
 8002670:	4a15      	ldr	r2, [pc, #84]	; (80026c8 <BSP_CAMERA_Start+0x60>)
 8002672:	e9d2 3200 	ldrd	r3, r2, [r2]
 8002676:	2a01      	cmp	r2, #1
 8002678:	bf0c      	ite	eq
 800267a:	2403      	moveq	r4, #3
 800267c:	2402      	movne	r4, #2
 800267e:	2b04      	cmp	r3, #4
 8002680:	d808      	bhi.n	8002694 <BSP_CAMERA_Start+0x2c>
 8002682:	e8df f003 	tbb	[pc, r3]
 8002686:	1203      	.short	0x1203
 8002688:	1815      	.short	0x1815
 800268a:	1b          	.byte	0x1b
 800268b:	00          	.byte	0x00
 800268c:	f44f 4096 	mov.w	r0, #19200	; 0x4b00
 8002690:	4360      	muls	r0, r4
 8002692:	0880      	lsrs	r0, r0, #2
 8002694:	4603      	mov	r3, r0
 8002696:	462a      	mov	r2, r5
 8002698:	480c      	ldr	r0, [pc, #48]	; (80026cc <BSP_CAMERA_Start+0x64>)
 800269a:	f000 fb0b 	bl	8002cb4 <HAL_DCMI_Start_DMA>
 800269e:	2800      	cmp	r0, #0
 80026a0:	bf0c      	ite	eq
 80026a2:	2000      	moveq	r0, #0
 80026a4:	f06f 0003 	mvnne.w	r0, #3
 80026a8:	bd38      	pop	{r3, r4, r5, pc}
 80026aa:	f44f 3096 	mov.w	r0, #76800	; 0x12c00
 80026ae:	e7ef      	b.n	8002690 <BSP_CAMERA_Start+0x28>
 80026b0:	f44f 30ff 	mov.w	r0, #130560	; 0x1fe00
 80026b4:	e7ec      	b.n	8002690 <BSP_CAMERA_Start+0x28>
 80026b6:	f44f 2096 	mov.w	r0, #307200	; 0x4b000
 80026ba:	e7e9      	b.n	8002690 <BSP_CAMERA_Start+0x28>
 80026bc:	4804      	ldr	r0, [pc, #16]	; (80026d0 <BSP_CAMERA_Start+0x68>)
 80026be:	e7e7      	b.n	8002690 <BSP_CAMERA_Start+0x28>
 80026c0:	f06f 0001 	mvn.w	r0, #1
 80026c4:	e7f0      	b.n	80026a8 <BSP_CAMERA_Start+0x40>
 80026c6:	bf00      	nop
 80026c8:	24000d74 	.word	0x24000d74
 80026cc:	240000d4 	.word	0x240000d4
 80026d0:	0005dc00 	.word	0x0005dc00

080026d4 <BSP_CAMERA_Stop>:
 80026d4:	b508      	push	{r3, lr}
 80026d6:	b940      	cbnz	r0, 80026ea <BSP_CAMERA_Stop+0x16>
 80026d8:	4805      	ldr	r0, [pc, #20]	; (80026f0 <BSP_CAMERA_Stop+0x1c>)
 80026da:	f000 fb5b 	bl	8002d94 <HAL_DCMI_Stop>
 80026de:	2800      	cmp	r0, #0
 80026e0:	bf14      	ite	ne
 80026e2:	f06f 0003 	mvnne.w	r0, #3
 80026e6:	2000      	moveq	r0, #0
 80026e8:	bd08      	pop	{r3, pc}
 80026ea:	f06f 0001 	mvn.w	r0, #1
 80026ee:	e7fb      	b.n	80026e8 <BSP_CAMERA_Stop+0x14>
 80026f0:	240000d4 	.word	0x240000d4

080026f4 <BSP_CAMERA_PwrDown>:
 80026f4:	2800      	cmp	r0, #0
 80026f6:	bf14      	ite	ne
 80026f8:	f06f 0001 	mvnne.w	r0, #1
 80026fc:	2000      	moveq	r0, #0
 80026fe:	4770      	bx	lr

08002700 <BSP_CAMERA_LineEventCallback>:
 8002700:	4770      	bx	lr

08002702 <BSP_CAMERA_VsyncEventCallback>:
 8002702:	4770      	bx	lr

08002704 <BSP_CAMERA_ErrorCallback>:
 8002704:	4770      	bx	lr

08002706 <HAL_DCMI_LineEventCallback>:
 8002706:	2000      	movs	r0, #0
 8002708:	b508      	push	{r3, lr}
 800270a:	f7ff fff9 	bl	8002700 <BSP_CAMERA_LineEventCallback>
 800270e:	bd08      	pop	{r3, pc}

08002710 <HAL_DCMI_FrameEventCallback>:
 8002710:	2000      	movs	r0, #0
 8002712:	b508      	push	{r3, lr}
 8002714:	f7fe fd36 	bl	8001184 <BSP_CAMERA_FrameEventCallback>
 8002718:	bd08      	pop	{r3, pc}

0800271a <HAL_DCMI_VsyncEventCallback>:
 800271a:	2000      	movs	r0, #0
 800271c:	b508      	push	{r3, lr}
 800271e:	f7ff fff0 	bl	8002702 <BSP_CAMERA_VsyncEventCallback>
 8002722:	bd08      	pop	{r3, pc}

08002724 <HAL_DCMI_ErrorCallback>:
 8002724:	2000      	movs	r0, #0
 8002726:	b508      	push	{r3, lr}
 8002728:	f7ff ffec 	bl	8002704 <BSP_CAMERA_ErrorCallback>
 800272c:	bd08      	pop	{r3, pc}
	...

08002730 <HAL_MspInit>:
 8002730:	4b07      	ldr	r3, [pc, #28]	; (8002750 <HAL_MspInit+0x20>)
 8002732:	b082      	sub	sp, #8
 8002734:	f8d3 2154 	ldr.w	r2, [r3, #340]	; 0x154
 8002738:	f042 0202 	orr.w	r2, r2, #2
 800273c:	f8c3 2154 	str.w	r2, [r3, #340]	; 0x154
 8002740:	f8d3 3154 	ldr.w	r3, [r3, #340]	; 0x154
 8002744:	f003 0302 	and.w	r3, r3, #2
 8002748:	9301      	str	r3, [sp, #4]
 800274a:	9b01      	ldr	r3, [sp, #4]
 800274c:	b002      	add	sp, #8
 800274e:	4770      	bx	lr
 8002750:	58024400 	.word	0x58024400

08002754 <NMI_Handler>:
 8002754:	e7fe      	b.n	8002754 <NMI_Handler>

08002756 <HardFault_Handler>:
 8002756:	e7fe      	b.n	8002756 <HardFault_Handler>

08002758 <MemManage_Handler>:
 8002758:	e7fe      	b.n	8002758 <MemManage_Handler>

0800275a <BusFault_Handler>:
 800275a:	e7fe      	b.n	800275a <BusFault_Handler>

0800275c <UsageFault_Handler>:
 800275c:	e7fe      	b.n	800275c <UsageFault_Handler>

0800275e <SVC_Handler>:
 800275e:	4770      	bx	lr

08002760 <DebugMon_Handler>:
 8002760:	4770      	bx	lr

08002762 <PendSV_Handler>:
 8002762:	4770      	bx	lr

08002764 <SysTick_Handler>:
 8002764:	f000 b996 	b.w	8002a94 <HAL_IncTick>

08002768 <USART1_IRQHandler>:
 8002768:	4801      	ldr	r0, [pc, #4]	; (8002770 <USART1_IRQHandler+0x8>)
 800276a:	f004 be0b 	b.w	8007384 <HAL_UART_IRQHandler>
 800276e:	bf00      	nop
 8002770:	24000dd4 	.word	0x24000dd4

08002774 <DMA2_Stream1_IRQHandler>:
 8002774:	4801      	ldr	r0, [pc, #4]	; (800277c <DMA2_Stream1_IRQHandler+0x8>)
 8002776:	f001 ba9f 	b.w	8003cb8 <HAL_DMA_IRQHandler>
 800277a:	bf00      	nop
 800277c:	24000124 	.word	0x24000124

08002780 <DCMI_PSSI_IRQHandler>:
 8002780:	4801      	ldr	r0, [pc, #4]	; (8002788 <DCMI_PSSI_IRQHandler+0x8>)
 8002782:	f000 bb51 	b.w	8002e28 <HAL_DCMI_IRQHandler>
 8002786:	bf00      	nop
 8002788:	240000d4 	.word	0x240000d4

0800278c <LTDC_IRQHandler>:
 800278c:	4801      	ldr	r0, [pc, #4]	; (8002794 <LTDC_IRQHandler+0x8>)
 800278e:	f002 bfaa 	b.w	80056e6 <HAL_LTDC_IRQHandler>
 8002792:	bf00      	nop
 8002794:	2400023c 	.word	0x2400023c

08002798 <LTDC_ER_IRQHandler>:
 8002798:	f7ff bff8 	b.w	800278c <LTDC_IRQHandler>

0800279c <DMA2D_IRQHandler>:
 800279c:	4801      	ldr	r0, [pc, #4]	; (80027a4 <DMA2D_IRQHandler+0x8>)
 800279e:	f001 be76 	b.w	800448e <HAL_DMA2D_IRQHandler>
 80027a2:	bf00      	nop
 80027a4:	2400019c 	.word	0x2400019c

080027a8 <_lseek>:
 80027a8:	2000      	movs	r0, #0
 80027aa:	4770      	bx	lr

080027ac <_sbrk>:
 80027ac:	4a0b      	ldr	r2, [pc, #44]	; (80027dc <_sbrk+0x30>)
 80027ae:	4603      	mov	r3, r0
 80027b0:	6811      	ldr	r1, [r2, #0]
 80027b2:	b510      	push	{r4, lr}
 80027b4:	b909      	cbnz	r1, 80027ba <_sbrk+0xe>
 80027b6:	490a      	ldr	r1, [pc, #40]	; (80027e0 <_sbrk+0x34>)
 80027b8:	6011      	str	r1, [r2, #0]
 80027ba:	6810      	ldr	r0, [r2, #0]
 80027bc:	4909      	ldr	r1, [pc, #36]	; (80027e4 <_sbrk+0x38>)
 80027be:	4c0a      	ldr	r4, [pc, #40]	; (80027e8 <_sbrk+0x3c>)
 80027c0:	4403      	add	r3, r0
 80027c2:	1b09      	subs	r1, r1, r4
 80027c4:	428b      	cmp	r3, r1
 80027c6:	d906      	bls.n	80027d6 <_sbrk+0x2a>
 80027c8:	f005 fc6c 	bl	80080a4 <__errno>
 80027cc:	230c      	movs	r3, #12
 80027ce:	6003      	str	r3, [r0, #0]
 80027d0:	f04f 30ff 	mov.w	r0, #4294967295	; 0xffffffff
 80027d4:	bd10      	pop	{r4, pc}
 80027d6:	6013      	str	r3, [r2, #0]
 80027d8:	e7fc      	b.n	80027d4 <_sbrk+0x28>
 80027da:	bf00      	nop
 80027dc:	24000dd0 	.word	0x24000dd0
 80027e0:	24000e80 	.word	0x24000e80
 80027e4:	24100000 	.word	0x24100000
 80027e8:	00000400 	.word	0x00000400

080027ec <SystemInit>:
 80027ec:	4a20      	ldr	r2, [pc, #128]	; (8002870 <SystemInit+0x84>)
 80027ee:	f8d2 3088 	ldr.w	r3, [r2, #136]	; 0x88
 80027f2:	f443 0370 	orr.w	r3, r3, #15728640	; 0xf00000
 80027f6:	f8c2 3088 	str.w	r3, [r2, #136]	; 0x88
 80027fa:	4a1e      	ldr	r2, [pc, #120]	; (8002874 <SystemInit+0x88>)
 80027fc:	6813      	ldr	r3, [r2, #0]
 80027fe:	f003 030f 	and.w	r3, r3, #15
 8002802:	2b02      	cmp	r3, #2
 8002804:	d805      	bhi.n	8002812 <SystemInit+0x26>
 8002806:	6813      	ldr	r3, [r2, #0]
 8002808:	f023 030f 	bic.w	r3, r3, #15
 800280c:	f043 0303 	orr.w	r3, r3, #3
 8002810:	6013      	str	r3, [r2, #0]
 8002812:	4b19      	ldr	r3, [pc, #100]	; (8002878 <SystemInit+0x8c>)
 8002814:	681a      	ldr	r2, [r3, #0]
 8002816:	f042 0201 	orr.w	r2, r2, #1
 800281a:	601a      	str	r2, [r3, #0]
 800281c:	2200      	movs	r2, #0
 800281e:	611a      	str	r2, [r3, #16]
 8002820:	4a16      	ldr	r2, [pc, #88]	; (800287c <SystemInit+0x90>)
 8002822:	6819      	ldr	r1, [r3, #0]
 8002824:	400a      	ands	r2, r1
 8002826:	4913      	ldr	r1, [pc, #76]	; (8002874 <SystemInit+0x88>)
 8002828:	601a      	str	r2, [r3, #0]
 800282a:	680a      	ldr	r2, [r1, #0]
 800282c:	f012 0f0c 	tst.w	r2, #12
 8002830:	d005      	beq.n	800283e <SystemInit+0x52>
 8002832:	680a      	ldr	r2, [r1, #0]
 8002834:	f022 020f 	bic.w	r2, r2, #15
 8002838:	f042 0203 	orr.w	r2, r2, #3
 800283c:	600a      	str	r2, [r1, #0]
 800283e:	2200      	movs	r2, #0
 8002840:	490f      	ldr	r1, [pc, #60]	; (8002880 <SystemInit+0x94>)
 8002842:	619a      	str	r2, [r3, #24]
 8002844:	61da      	str	r2, [r3, #28]
 8002846:	621a      	str	r2, [r3, #32]
 8002848:	6299      	str	r1, [r3, #40]	; 0x28
 800284a:	490e      	ldr	r1, [pc, #56]	; (8002884 <SystemInit+0x98>)
 800284c:	62d9      	str	r1, [r3, #44]	; 0x2c
 800284e:	490e      	ldr	r1, [pc, #56]	; (8002888 <SystemInit+0x9c>)
 8002850:	6319      	str	r1, [r3, #48]	; 0x30
 8002852:	635a      	str	r2, [r3, #52]	; 0x34
 8002854:	6399      	str	r1, [r3, #56]	; 0x38
 8002856:	63da      	str	r2, [r3, #60]	; 0x3c
 8002858:	6419      	str	r1, [r3, #64]	; 0x40
 800285a:	645a      	str	r2, [r3, #68]	; 0x44
 800285c:	6819      	ldr	r1, [r3, #0]
 800285e:	f421 2180 	bic.w	r1, r1, #262144	; 0x40000
 8002862:	6019      	str	r1, [r3, #0]
 8002864:	661a      	str	r2, [r3, #96]	; 0x60
 8002866:	f243 02d2 	movw	r2, #12498	; 0x30d2
 800286a:	4b08      	ldr	r3, [pc, #32]	; (800288c <SystemInit+0xa0>)
 800286c:	601a      	str	r2, [r3, #0]
 800286e:	4770      	bx	lr
 8002870:	e000ed00 	.word	0xe000ed00
 8002874:	52002000 	.word	0x52002000
 8002878:	58024400 	.word	0x58024400
 800287c:	eaf6ed7f 	.word	0xeaf6ed7f
 8002880:	02020200 	.word	0x02020200
 8002884:	01ff0000 	.word	0x01ff0000
 8002888:	01010280 	.word	0x01010280
 800288c:	52004000 	.word	0x52004000

08002890 <MX_USART1_UART_Init>:
 8002890:	b508      	push	{r3, lr}
 8002892:	4816      	ldr	r0, [pc, #88]	; (80028ec <MX_USART1_UART_Init+0x5c>)
 8002894:	f44f 33e1 	mov.w	r3, #115200	; 0x1c200
 8002898:	4a15      	ldr	r2, [pc, #84]	; (80028f0 <MX_USART1_UART_Init+0x60>)
 800289a:	e9c0 2300 	strd	r2, r3, [r0]
 800289e:	2300      	movs	r3, #0
 80028a0:	220c      	movs	r2, #12
 80028a2:	e9c0 3302 	strd	r3, r3, [r0, #8]
 80028a6:	6103      	str	r3, [r0, #16]
 80028a8:	e9c0 2305 	strd	r2, r3, [r0, #20]
 80028ac:	e9c0 3307 	strd	r3, r3, [r0, #28]
 80028b0:	e9c0 3309 	strd	r3, r3, [r0, #36]	; 0x24
 80028b4:	f005 fab0 	bl	8007e18 <HAL_UART_Init>
 80028b8:	b108      	cbz	r0, 80028be <MX_USART1_UART_Init+0x2e>
 80028ba:	f7fe fc6f 	bl	800119c <Error_Handler>
 80028be:	2100      	movs	r1, #0
 80028c0:	480a      	ldr	r0, [pc, #40]	; (80028ec <MX_USART1_UART_Init+0x5c>)
 80028c2:	f005 fb19 	bl	8007ef8 <HAL_UARTEx_SetTxFifoThreshold>
 80028c6:	b108      	cbz	r0, 80028cc <MX_USART1_UART_Init+0x3c>
 80028c8:	f7fe fc68 	bl	800119c <Error_Handler>
 80028cc:	2100      	movs	r1, #0
 80028ce:	4807      	ldr	r0, [pc, #28]	; (80028ec <MX_USART1_UART_Init+0x5c>)
 80028d0:	f005 fb36 	bl	8007f40 <HAL_UARTEx_SetRxFifoThreshold>
 80028d4:	b108      	cbz	r0, 80028da <MX_USART1_UART_Init+0x4a>
 80028d6:	f7fe fc61 	bl	800119c <Error_Handler>
 80028da:	4804      	ldr	r0, [pc, #16]	; (80028ec <MX_USART1_UART_Init+0x5c>)
 80028dc:	f005 faf1 	bl	8007ec2 <HAL_UARTEx_DisableFifoMode>
 80028e0:	b118      	cbz	r0, 80028ea <MX_USART1_UART_Init+0x5a>
 80028e2:	e8bd 4008 	ldmia.w	sp!, {r3, lr}
 80028e6:	f7fe bc59 	b.w	800119c <Error_Handler>
 80028ea:	bd08      	pop	{r3, pc}
 80028ec:	24000dd4 	.word	0x24000dd4
 80028f0:	40011000 	.word	0x40011000

080028f4 <HAL_UART_MspInit>:
 80028f4:	b510      	push	{r4, lr}
 80028f6:	b0b8      	sub	sp, #224	; 0xe0
 80028f8:	4604      	mov	r4, r0
 80028fa:	2214      	movs	r2, #20
 80028fc:	2100      	movs	r1, #0
 80028fe:	a803      	add	r0, sp, #12
 8002900:	f005 fbfa 	bl	80080f8 <memset>
 8002904:	22c0      	movs	r2, #192	; 0xc0
 8002906:	2100      	movs	r1, #0
 8002908:	a808      	add	r0, sp, #32
 800290a:	f005 fbf5 	bl	80080f8 <memset>
 800290e:	6822      	ldr	r2, [r4, #0]
 8002910:	4b1e      	ldr	r3, [pc, #120]	; (800298c <HAL_UART_MspInit+0x98>)
 8002912:	429a      	cmp	r2, r3
 8002914:	d138      	bne.n	8002988 <HAL_UART_MspInit+0x94>
 8002916:	2201      	movs	r2, #1
 8002918:	2300      	movs	r3, #0
 800291a:	a808      	add	r0, sp, #32
 800291c:	e9cd 2308 	strd	r2, r3, [sp, #32]
 8002920:	f003 fda8 	bl	8006474 <HAL_RCCEx_PeriphCLKConfig>
 8002924:	b108      	cbz	r0, 800292a <HAL_UART_MspInit+0x36>
 8002926:	f7fe fc39 	bl	800119c <Error_Handler>
 800292a:	4b19      	ldr	r3, [pc, #100]	; (8002990 <HAL_UART_MspInit+0x9c>)
 800292c:	2400      	movs	r4, #0
 800292e:	a903      	add	r1, sp, #12
 8002930:	4818      	ldr	r0, [pc, #96]	; (8002994 <HAL_UART_MspInit+0xa0>)
 8002932:	f8d3 2150 	ldr.w	r2, [r3, #336]	; 0x150
 8002936:	f042 0210 	orr.w	r2, r2, #16
 800293a:	f8c3 2150 	str.w	r2, [r3, #336]	; 0x150
 800293e:	f8d3 2150 	ldr.w	r2, [r3, #336]	; 0x150
 8002942:	f002 0210 	and.w	r2, r2, #16
 8002946:	9201      	str	r2, [sp, #4]
 8002948:	9a01      	ldr	r2, [sp, #4]
 800294a:	f8d3 2140 	ldr.w	r2, [r3, #320]	; 0x140
 800294e:	f042 0201 	orr.w	r2, r2, #1
 8002952:	f8c3 2140 	str.w	r2, [r3, #320]	; 0x140
 8002956:	f44f 62c0 	mov.w	r2, #1536	; 0x600
 800295a:	f8d3 3140 	ldr.w	r3, [r3, #320]	; 0x140
 800295e:	f003 0301 	and.w	r3, r3, #1
 8002962:	9302      	str	r3, [sp, #8]
 8002964:	9b02      	ldr	r3, [sp, #8]
 8002966:	2302      	movs	r3, #2
 8002968:	e9cd 2303 	strd	r2, r3, [sp, #12]
 800296c:	2307      	movs	r3, #7
 800296e:	e9cd 4405 	strd	r4, r4, [sp, #20]
 8002972:	9307      	str	r3, [sp, #28]
 8002974:	f002 f886 	bl	8004a84 <HAL_GPIO_Init>
 8002978:	2025      	movs	r0, #37	; 0x25
 800297a:	4622      	mov	r2, r4
 800297c:	4621      	mov	r1, r4
 800297e:	f000 f8bf 	bl	8002b00 <HAL_NVIC_SetPriority>
 8002982:	2025      	movs	r0, #37	; 0x25
 8002984:	f000 f8ee 	bl	8002b64 <HAL_NVIC_EnableIRQ>
 8002988:	b038      	add	sp, #224	; 0xe0
 800298a:	bd10      	pop	{r4, pc}
 800298c:	40011000 	.word	0x40011000
 8002990:	58024400 	.word	0x58024400
 8002994:	58020000 	.word	0x58020000

08002998 <Reset_Handler>:
 8002998:	f8df d034 	ldr.w	sp, [pc, #52]	; 80029d0 <LoopFillZerobss+0xe>
 800299c:	f7ff ff26 	bl	80027ec <SystemInit>
 80029a0:	480c      	ldr	r0, [pc, #48]	; (80029d4 <LoopFillZerobss+0x12>)
 80029a2:	490d      	ldr	r1, [pc, #52]	; (80029d8 <LoopFillZerobss+0x16>)
 80029a4:	4a0d      	ldr	r2, [pc, #52]	; (80029dc <LoopFillZerobss+0x1a>)
 80029a6:	2300      	movs	r3, #0
 80029a8:	e002      	b.n	80029b0 <LoopCopyDataInit>

080029aa <CopyDataInit>:
 80029aa:	58d4      	ldr	r4, [r2, r3]
 80029ac:	50c4      	str	r4, [r0, r3]
 80029ae:	3304      	adds	r3, #4

080029b0 <LoopCopyDataInit>:
 80029b0:	18c4      	adds	r4, r0, r3
 80029b2:	428c      	cmp	r4, r1
 80029b4:	d3f9      	bcc.n	80029aa <CopyDataInit>
 80029b6:	4a0a      	ldr	r2, [pc, #40]	; (80029e0 <LoopFillZerobss+0x1e>)
 80029b8:	4c0a      	ldr	r4, [pc, #40]	; (80029e4 <LoopFillZerobss+0x22>)
 80029ba:	2300      	movs	r3, #0
 80029bc:	e001      	b.n	80029c2 <LoopFillZerobss>

080029be <FillZerobss>:
 80029be:	6013      	str	r3, [r2, #0]
 80029c0:	3204      	adds	r2, #4

080029c2 <LoopFillZerobss>:
 80029c2:	42a2      	cmp	r2, r4
 80029c4:	d3fb      	bcc.n	80029be <FillZerobss>
 80029c6:	f005 fb73 	bl	80080b0 <__libc_init_array>
 80029ca:	f7fe fb95 	bl	80010f8 <main>
 80029ce:	4770      	bx	lr
 80029d0:	24100000 	.word	0x24100000
 80029d4:	24000000 	.word	0x24000000
 80029d8:	240000b8 	.word	0x240000b8
 80029dc:	08008fac 	.word	0x08008fac
 80029e0:	240000b8 	.word	0x240000b8
 80029e4:	24000e7c 	.word	0x24000e7c

080029e8 <ADC_IRQHandler>:
 80029e8:	e7fe      	b.n	80029e8 <ADC_IRQHandler>
	...

080029ec <HAL_InitTick>:
 80029ec:	b538      	push	{r3, r4, r5, lr}
 80029ee:	4b0f      	ldr	r3, [pc, #60]	; (8002a2c <HAL_InitTick+0x40>)
 80029f0:	4605      	mov	r5, r0
 80029f2:	7818      	ldrb	r0, [r3, #0]
 80029f4:	b908      	cbnz	r0, 80029fa <HAL_InitTick+0xe>
 80029f6:	2001      	movs	r0, #1
 80029f8:	bd38      	pop	{r3, r4, r5, pc}
 80029fa:	f44f 737a 	mov.w	r3, #1000	; 0x3e8
 80029fe:	4a0c      	ldr	r2, [pc, #48]	; (8002a30 <HAL_InitTick+0x44>)
 8002a00:	fbb3 f3f0 	udiv	r3, r3, r0
 8002a04:	6810      	ldr	r0, [r2, #0]
 8002a06:	fbb0 f0f3 	udiv	r0, r0, r3
 8002a0a:	f000 f8b9 	bl	8002b80 <HAL_SYSTICK_Config>
 8002a0e:	4604      	mov	r4, r0
 8002a10:	2800      	cmp	r0, #0
 8002a12:	d1f0      	bne.n	80029f6 <HAL_InitTick+0xa>
 8002a14:	2d0f      	cmp	r5, #15
 8002a16:	d8ee      	bhi.n	80029f6 <HAL_InitTick+0xa>
 8002a18:	4602      	mov	r2, r0
 8002a1a:	4629      	mov	r1, r5
 8002a1c:	f04f 30ff 	mov.w	r0, #4294967295	; 0xffffffff
 8002a20:	f000 f86e 	bl	8002b00 <HAL_NVIC_SetPriority>
 8002a24:	4b03      	ldr	r3, [pc, #12]	; (8002a34 <HAL_InitTick+0x48>)
 8002a26:	4620      	mov	r0, r4
 8002a28:	601d      	str	r5, [r3, #0]
 8002a2a:	e7e5      	b.n	80029f8 <HAL_InitTick+0xc>
 8002a2c:	2400004c 	.word	0x2400004c
 8002a30:	24000044 	.word	0x24000044
 8002a34:	24000050 	.word	0x24000050

08002a38 <HAL_Init>:
 8002a38:	b510      	push	{r4, lr}
 8002a3a:	2003      	movs	r0, #3
 8002a3c:	f000 f84e 	bl	8002adc <HAL_NVIC_SetPriorityGrouping>
 8002a40:	f003 fa1c 	bl	8005e7c <HAL_RCC_GetSysClockFreq>
 8002a44:	490f      	ldr	r1, [pc, #60]	; (8002a84 <HAL_Init+0x4c>)
 8002a46:	4a10      	ldr	r2, [pc, #64]	; (8002a88 <HAL_Init+0x50>)
 8002a48:	698b      	ldr	r3, [r1, #24]
 8002a4a:	f3c3 2303 	ubfx	r3, r3, #8, #4
 8002a4e:	5cd3      	ldrb	r3, [r2, r3]
 8002a50:	f003 031f 	and.w	r3, r3, #31
 8002a54:	40d8      	lsrs	r0, r3
 8002a56:	698b      	ldr	r3, [r1, #24]
 8002a58:	f003 030f 	and.w	r3, r3, #15
 8002a5c:	5cd3      	ldrb	r3, [r2, r3]
 8002a5e:	4a0b      	ldr	r2, [pc, #44]	; (8002a8c <HAL_Init+0x54>)
 8002a60:	f003 031f 	and.w	r3, r3, #31
 8002a64:	fa20 f303 	lsr.w	r3, r0, r3
 8002a68:	6013      	str	r3, [r2, #0]
 8002a6a:	4b09      	ldr	r3, [pc, #36]	; (8002a90 <HAL_Init+0x58>)
 8002a6c:	6018      	str	r0, [r3, #0]
 8002a6e:	2000      	movs	r0, #0
 8002a70:	f7ff ffbc 	bl	80029ec <HAL_InitTick>
 8002a74:	4604      	mov	r4, r0
 8002a76:	b918      	cbnz	r0, 8002a80 <HAL_Init+0x48>
 8002a78:	f7ff fe5a 	bl	8002730 <HAL_MspInit>
 8002a7c:	4620      	mov	r0, r4
 8002a7e:	bd10      	pop	{r4, pc}
 8002a80:	2401      	movs	r4, #1
 8002a82:	e7fb      	b.n	8002a7c <HAL_Init+0x44>
 8002a84:	58024400 	.word	0x58024400
 8002a88:	08008ec2 	.word	0x08008ec2
 8002a8c:	24000048 	.word	0x24000048
 8002a90:	24000044 	.word	0x24000044

08002a94 <HAL_IncTick>:
 8002a94:	4a03      	ldr	r2, [pc, #12]	; (8002aa4 <HAL_IncTick+0x10>)
 8002a96:	4b04      	ldr	r3, [pc, #16]	; (8002aa8 <HAL_IncTick+0x14>)
 8002a98:	6811      	ldr	r1, [r2, #0]
 8002a9a:	781b      	ldrb	r3, [r3, #0]
 8002a9c:	440b      	add	r3, r1
 8002a9e:	6013      	str	r3, [r2, #0]
 8002aa0:	4770      	bx	lr
 8002aa2:	bf00      	nop
 8002aa4:	24000e68 	.word	0x24000e68
 8002aa8:	2400004c 	.word	0x2400004c

08002aac <HAL_GetTick>:
 8002aac:	4b01      	ldr	r3, [pc, #4]	; (8002ab4 <HAL_GetTick+0x8>)
 8002aae:	6818      	ldr	r0, [r3, #0]
 8002ab0:	4770      	bx	lr
 8002ab2:	bf00      	nop
 8002ab4:	24000e68 	.word	0x24000e68

08002ab8 <HAL_Delay>:
 8002ab8:	b538      	push	{r3, r4, r5, lr}
 8002aba:	4604      	mov	r4, r0
 8002abc:	f7ff fff6 	bl	8002aac <HAL_GetTick>
 8002ac0:	4605      	mov	r5, r0
 8002ac2:	1c63      	adds	r3, r4, #1
 8002ac4:	bf1e      	ittt	ne
 8002ac6:	4b04      	ldrne	r3, [pc, #16]	; (8002ad8 <HAL_Delay+0x20>)
 8002ac8:	781b      	ldrbne	r3, [r3, #0]
 8002aca:	18e4      	addne	r4, r4, r3
 8002acc:	f7ff ffee 	bl	8002aac <HAL_GetTick>
 8002ad0:	1b43      	subs	r3, r0, r5
 8002ad2:	42a3      	cmp	r3, r4
 8002ad4:	d3fa      	bcc.n	8002acc <HAL_Delay+0x14>
 8002ad6:	bd38      	pop	{r3, r4, r5, pc}
 8002ad8:	2400004c 	.word	0x2400004c

08002adc <HAL_NVIC_SetPriorityGrouping>:
 8002adc:	4907      	ldr	r1, [pc, #28]	; (8002afc <HAL_NVIC_SetPriorityGrouping+0x20>)
 8002ade:	0203      	lsls	r3, r0, #8
 8002ae0:	68ca      	ldr	r2, [r1, #12]
 8002ae2:	f403 63e0 	and.w	r3, r3, #1792	; 0x700
 8002ae6:	f422 62e0 	bic.w	r2, r2, #1792	; 0x700
 8002aea:	0412      	lsls	r2, r2, #16
 8002aec:	0c12      	lsrs	r2, r2, #16
 8002aee:	4313      	orrs	r3, r2
 8002af0:	f043 63bf 	orr.w	r3, r3, #100139008	; 0x5f80000
 8002af4:	f443 3300 	orr.w	r3, r3, #131072	; 0x20000
 8002af8:	60cb      	str	r3, [r1, #12]
 8002afa:	4770      	bx	lr
 8002afc:	e000ed00 	.word	0xe000ed00

08002b00 <HAL_NVIC_SetPriority>:
 8002b00:	4b16      	ldr	r3, [pc, #88]	; (8002b5c <HAL_NVIC_SetPriority+0x5c>)
 8002b02:	b530      	push	{r4, r5, lr}
 8002b04:	68dc      	ldr	r4, [r3, #12]
 8002b06:	f3c4 2402 	ubfx	r4, r4, #8, #3
 8002b0a:	f1c4 0507 	rsb	r5, r4, #7
 8002b0e:	1d23      	adds	r3, r4, #4
 8002b10:	2d04      	cmp	r5, #4
 8002b12:	bf28      	it	cs
 8002b14:	2504      	movcs	r5, #4
 8002b16:	2b06      	cmp	r3, #6
 8002b18:	f04f 33ff 	mov.w	r3, #4294967295	; 0xffffffff
 8002b1c:	bf8c      	ite	hi
 8002b1e:	3c03      	subhi	r4, #3
 8002b20:	2400      	movls	r4, #0
 8002b22:	fa03 f505 	lsl.w	r5, r3, r5
 8002b26:	2800      	cmp	r0, #0
 8002b28:	fa03 f304 	lsl.w	r3, r3, r4
 8002b2c:	ea21 0105 	bic.w	r1, r1, r5
 8002b30:	ea22 0203 	bic.w	r2, r2, r3
 8002b34:	fa01 f104 	lsl.w	r1, r1, r4
 8002b38:	ea41 0302 	orr.w	r3, r1, r2
 8002b3c:	ea4f 1303 	mov.w	r3, r3, lsl #4
 8002b40:	b2db      	uxtb	r3, r3
 8002b42:	db06      	blt.n	8002b52 <HAL_NVIC_SetPriority+0x52>
 8002b44:	f100 4060 	add.w	r0, r0, #3758096384	; 0xe0000000
 8002b48:	f500 4061 	add.w	r0, r0, #57600	; 0xe100
 8002b4c:	f880 3300 	strb.w	r3, [r0, #768]	; 0x300
 8002b50:	bd30      	pop	{r4, r5, pc}
 8002b52:	f000 000f 	and.w	r0, r0, #15
 8002b56:	4a02      	ldr	r2, [pc, #8]	; (8002b60 <HAL_NVIC_SetPriority+0x60>)
 8002b58:	5413      	strb	r3, [r2, r0]
 8002b5a:	e7f9      	b.n	8002b50 <HAL_NVIC_SetPriority+0x50>
 8002b5c:	e000ed00 	.word	0xe000ed00
 8002b60:	e000ed14 	.word	0xe000ed14

08002b64 <HAL_NVIC_EnableIRQ>:
 8002b64:	2800      	cmp	r0, #0
 8002b66:	db08      	blt.n	8002b7a <HAL_NVIC_EnableIRQ+0x16>
 8002b68:	2301      	movs	r3, #1
 8002b6a:	0942      	lsrs	r2, r0, #5
 8002b6c:	f000 001f 	and.w	r0, r0, #31
 8002b70:	fa03 f000 	lsl.w	r0, r3, r0
 8002b74:	4b01      	ldr	r3, [pc, #4]	; (8002b7c <HAL_NVIC_EnableIRQ+0x18>)
 8002b76:	f843 0022 	str.w	r0, [r3, r2, lsl #2]
 8002b7a:	4770      	bx	lr
 8002b7c:	e000e100 	.word	0xe000e100

08002b80 <HAL_SYSTICK_Config>:
 8002b80:	3801      	subs	r0, #1
 8002b82:	f1b0 7f80 	cmp.w	r0, #16777216	; 0x1000000
 8002b86:	d20b      	bcs.n	8002ba0 <HAL_SYSTICK_Config+0x20>
 8002b88:	f04f 23e0 	mov.w	r3, #3758153728	; 0xe000e000
 8002b8c:	4a05      	ldr	r2, [pc, #20]	; (8002ba4 <HAL_SYSTICK_Config+0x24>)
 8002b8e:	21f0      	movs	r1, #240	; 0xf0
 8002b90:	6158      	str	r0, [r3, #20]
 8002b92:	2000      	movs	r0, #0
 8002b94:	f882 1023 	strb.w	r1, [r2, #35]	; 0x23
 8002b98:	2207      	movs	r2, #7
 8002b9a:	6198      	str	r0, [r3, #24]
 8002b9c:	611a      	str	r2, [r3, #16]
 8002b9e:	4770      	bx	lr
 8002ba0:	2001      	movs	r0, #1
 8002ba2:	4770      	bx	lr
 8002ba4:	e000ed00 	.word	0xe000ed00

08002ba8 <DCMI_DMAXferCplt>:
 8002ba8:	b510      	push	{r4, lr}
 8002baa:	6b84      	ldr	r4, [r0, #56]	; 0x38
 8002bac:	6ca0      	ldr	r0, [r4, #72]	; 0x48
 8002bae:	6ba2      	ldr	r2, [r4, #56]	; 0x38
 8002bb0:	6803      	ldr	r3, [r0, #0]
 8002bb2:	b332      	cbz	r2, 8002c02 <DCMI_DMAXferCplt+0x5a>
 8002bb4:	6819      	ldr	r1, [r3, #0]
 8002bb6:	6ba2      	ldr	r2, [r4, #56]	; 0x38
 8002bb8:	f012 0201 	ands.w	r2, r2, #1
 8002bbc:	d11a      	bne.n	8002bf4 <DCMI_DMAXferCplt+0x4c>
 8002bbe:	0309      	lsls	r1, r1, #12
 8002bc0:	d518      	bpl.n	8002bf4 <DCMI_DMAXferCplt+0x4c>
 8002bc2:	68db      	ldr	r3, [r3, #12]
 8002bc4:	6be1      	ldr	r1, [r4, #60]	; 0x3c
 8002bc6:	eb03 01c1 	add.w	r1, r3, r1, lsl #3
 8002bca:	f001 ff2f 	bl	8004a2c <HAL_DMAEx_ChangeMemory>
 8002bce:	6ba3      	ldr	r3, [r4, #56]	; 0x38
 8002bd0:	3b01      	subs	r3, #1
 8002bd2:	63a3      	str	r3, [r4, #56]	; 0x38
 8002bd4:	6ba2      	ldr	r2, [r4, #56]	; 0x38
 8002bd6:	6c23      	ldr	r3, [r4, #64]	; 0x40
 8002bd8:	429a      	cmp	r2, r3
 8002bda:	d10a      	bne.n	8002bf2 <DCMI_DMAXferCplt+0x4a>
 8002bdc:	6823      	ldr	r3, [r4, #0]
 8002bde:	68da      	ldr	r2, [r3, #12]
 8002be0:	f042 0201 	orr.w	r2, r2, #1
 8002be4:	60da      	str	r2, [r3, #12]
 8002be6:	681b      	ldr	r3, [r3, #0]
 8002be8:	079b      	lsls	r3, r3, #30
 8002bea:	d502      	bpl.n	8002bf2 <DCMI_DMAXferCplt+0x4a>
 8002bec:	2301      	movs	r3, #1
 8002bee:	f884 3035 	strb.w	r3, [r4, #53]	; 0x35
 8002bf2:	bd10      	pop	{r4, pc}
 8002bf4:	681a      	ldr	r2, [r3, #0]
 8002bf6:	0312      	lsls	r2, r2, #12
 8002bf8:	d4ec      	bmi.n	8002bd4 <DCMI_DMAXferCplt+0x2c>
 8002bfa:	691b      	ldr	r3, [r3, #16]
 8002bfc:	2201      	movs	r2, #1
 8002bfe:	6be1      	ldr	r1, [r4, #60]	; 0x3c
 8002c00:	e7e1      	b.n	8002bc6 <DCMI_DMAXferCplt+0x1e>
 8002c02:	681a      	ldr	r2, [r3, #0]
 8002c04:	0311      	lsls	r1, r2, #12
 8002c06:	d502      	bpl.n	8002c0e <DCMI_DMAXferCplt+0x66>
 8002c08:	6c62      	ldr	r2, [r4, #68]	; 0x44
 8002c0a:	60da      	str	r2, [r3, #12]
 8002c0c:	e7e2      	b.n	8002bd4 <DCMI_DMAXferCplt+0x2c>
 8002c0e:	681a      	ldr	r2, [r3, #0]
 8002c10:	0312      	lsls	r2, r2, #12
 8002c12:	d4df      	bmi.n	8002bd4 <DCMI_DMAXferCplt+0x2c>
 8002c14:	6be0      	ldr	r0, [r4, #60]	; 0x3c
 8002c16:	6c62      	ldr	r2, [r4, #68]	; 0x44
 8002c18:	6c21      	ldr	r1, [r4, #64]	; 0x40
 8002c1a:	eb02 0280 	add.w	r2, r2, r0, lsl #2
 8002c1e:	611a      	str	r2, [r3, #16]
 8002c20:	63a1      	str	r1, [r4, #56]	; 0x38
 8002c22:	e7d7      	b.n	8002bd4 <DCMI_DMAXferCplt+0x2c>

08002c24 <HAL_DCMI_Init>:
 8002c24:	b538      	push	{r3, r4, r5, lr}
 8002c26:	4604      	mov	r4, r0
 8002c28:	2800      	cmp	r0, #0
 8002c2a:	d03f      	beq.n	8002cac <HAL_DCMI_Init+0x88>
 8002c2c:	f890 3035 	ldrb.w	r3, [r0, #53]	; 0x35
 8002c30:	b90b      	cbnz	r3, 8002c36 <HAL_DCMI_Init+0x12>
 8002c32:	f7fd fcfd 	bl	8000630 <HAL_DCMI_MspInit>
 8002c36:	2302      	movs	r3, #2
 8002c38:	f884 3035 	strb.w	r3, [r4, #53]	; 0x35
 8002c3c:	69a3      	ldr	r3, [r4, #24]
 8002c3e:	b10b      	cbz	r3, 8002c44 <HAL_DCMI_Init+0x20>
 8002c40:	2200      	movs	r2, #0
 8002c42:	6262      	str	r2, [r4, #36]	; 0x24
 8002c44:	6822      	ldr	r2, [r4, #0]
 8002c46:	491a      	ldr	r1, [pc, #104]	; (8002cb0 <HAL_DCMI_Init+0x8c>)
 8002c48:	6810      	ldr	r0, [r2, #0]
 8002c4a:	6965      	ldr	r5, [r4, #20]
 8002c4c:	4001      	ands	r1, r0
 8002c4e:	6011      	str	r1, [r2, #0]
 8002c50:	6861      	ldr	r1, [r4, #4]
 8002c52:	6810      	ldr	r0, [r2, #0]
 8002c54:	430b      	orrs	r3, r1
 8002c56:	2910      	cmp	r1, #16
 8002c58:	ea43 0305 	orr.w	r3, r3, r5
 8002c5c:	68e5      	ldr	r5, [r4, #12]
 8002c5e:	ea43 0305 	orr.w	r3, r3, r5
 8002c62:	6925      	ldr	r5, [r4, #16]
 8002c64:	ea43 0305 	orr.w	r3, r3, r5
 8002c68:	68a5      	ldr	r5, [r4, #8]
 8002c6a:	ea43 0305 	orr.w	r3, r3, r5
 8002c6e:	6a25      	ldr	r5, [r4, #32]
 8002c70:	ea43 0305 	orr.w	r3, r3, r5
 8002c74:	6a65      	ldr	r5, [r4, #36]	; 0x24
 8002c76:	ea43 0305 	orr.w	r3, r3, r5
 8002c7a:	6aa5      	ldr	r5, [r4, #40]	; 0x28
 8002c7c:	ea43 0305 	orr.w	r3, r3, r5
 8002c80:	6ae5      	ldr	r5, [r4, #44]	; 0x2c
 8002c82:	ea43 0305 	orr.w	r3, r3, r5
 8002c86:	6b25      	ldr	r5, [r4, #48]	; 0x30
 8002c88:	ea43 0305 	orr.w	r3, r3, r5
 8002c8c:	ea43 0300 	orr.w	r3, r3, r0
 8002c90:	6013      	str	r3, [r2, #0]
 8002c92:	d101      	bne.n	8002c98 <HAL_DCMI_Init+0x74>
 8002c94:	69e3      	ldr	r3, [r4, #28]
 8002c96:	6193      	str	r3, [r2, #24]
 8002c98:	68d3      	ldr	r3, [r2, #12]
 8002c9a:	2000      	movs	r0, #0
 8002c9c:	f043 031e 	orr.w	r3, r3, #30
 8002ca0:	60d3      	str	r3, [r2, #12]
 8002ca2:	2301      	movs	r3, #1
 8002ca4:	64e0      	str	r0, [r4, #76]	; 0x4c
 8002ca6:	f884 3035 	strb.w	r3, [r4, #53]	; 0x35
 8002caa:	bd38      	pop	{r3, r4, r5, pc}
 8002cac:	2001      	movs	r0, #1
 8002cae:	e7fc      	b.n	8002caa <HAL_DCMI_Init+0x86>
 8002cb0:	ffe0f007 	.word	0xffe0f007

08002cb4 <HAL_DCMI_Start_DMA>:
 8002cb4:	b5f7      	push	{r0, r1, r2, r4, r5, r6, r7, lr}
 8002cb6:	4604      	mov	r4, r0
 8002cb8:	f890 0034 	ldrb.w	r0, [r0, #52]	; 0x34
 8002cbc:	4616      	mov	r6, r2
 8002cbe:	2801      	cmp	r0, #1
 8002cc0:	f04f 0002 	mov.w	r0, #2
 8002cc4:	d02f      	beq.n	8002d26 <HAL_DCMI_Start_DMA+0x72>
 8002cc6:	f884 0035 	strb.w	r0, [r4, #53]	; 0x35
 8002cca:	2701      	movs	r7, #1
 8002ccc:	6820      	ldr	r0, [r4, #0]
 8002cce:	f5b3 3f80 	cmp.w	r3, #65536	; 0x10000
 8002cd2:	f884 7034 	strb.w	r7, [r4, #52]	; 0x34
 8002cd6:	6805      	ldr	r5, [r0, #0]
 8002cd8:	f8df e0b4 	ldr.w	lr, [pc, #180]	; 8002d90 <HAL_DCMI_Start_DMA+0xdc>
 8002cdc:	f445 4580 	orr.w	r5, r5, #16384	; 0x4000
 8002ce0:	6005      	str	r5, [r0, #0]
 8002ce2:	6805      	ldr	r5, [r0, #0]
 8002ce4:	f025 0502 	bic.w	r5, r5, #2
 8002ce8:	6005      	str	r5, [r0, #0]
 8002cea:	6805      	ldr	r5, [r0, #0]
 8002cec:	ea45 0501 	orr.w	r5, r5, r1
 8002cf0:	4601      	mov	r1, r0
 8002cf2:	6ca0      	ldr	r0, [r4, #72]	; 0x48
 8002cf4:	f841 5b28 	str.w	r5, [r1], #40
 8002cf8:	4d24      	ldr	r5, [pc, #144]	; (8002d8c <HAL_DCMI_Start_DMA+0xd8>)
 8002cfa:	f8c0 e03c 	str.w	lr, [r0, #60]	; 0x3c
 8002cfe:	64c5      	str	r5, [r0, #76]	; 0x4c
 8002d00:	f04f 0500 	mov.w	r5, #0
 8002d04:	6505      	str	r5, [r0, #80]	; 0x50
 8002d06:	63a5      	str	r5, [r4, #56]	; 0x38
 8002d08:	6425      	str	r5, [r4, #64]	; 0x40
 8002d0a:	63e5      	str	r5, [r4, #60]	; 0x3c
 8002d0c:	6465      	str	r5, [r4, #68]	; 0x44
 8002d0e:	d20c      	bcs.n	8002d2a <HAL_DCMI_Start_DMA+0x76>
 8002d10:	f000 fc5c 	bl	80035cc <HAL_DMA_Start_IT>
 8002d14:	2800      	cmp	r0, #0
 8002d16:	d02f      	beq.n	8002d78 <HAL_DCMI_Start_DMA+0xc4>
 8002d18:	2340      	movs	r3, #64	; 0x40
 8002d1a:	4638      	mov	r0, r7
 8002d1c:	f884 5034 	strb.w	r5, [r4, #52]	; 0x34
 8002d20:	64e3      	str	r3, [r4, #76]	; 0x4c
 8002d22:	f884 7035 	strb.w	r7, [r4, #53]	; 0x35
 8002d26:	b003      	add	sp, #12
 8002d28:	bdf0      	pop	{r4, r5, r6, r7, pc}
 8002d2a:	f8c0 e044 	str.w	lr, [r0, #68]	; 0x44
 8002d2e:	63a7      	str	r7, [r4, #56]	; 0x38
 8002d30:	6462      	str	r2, [r4, #68]	; 0x44
 8002d32:	63e3      	str	r3, [r4, #60]	; 0x3c
 8002d34:	6be3      	ldr	r3, [r4, #60]	; 0x3c
 8002d36:	f5b3 3f80 	cmp.w	r3, #65536	; 0x10000
 8002d3a:	d216      	bcs.n	8002d6a <HAL_DCMI_Start_DMA+0xb6>
 8002d3c:	6ba3      	ldr	r3, [r4, #56]	; 0x38
 8002d3e:	3b02      	subs	r3, #2
 8002d40:	63a3      	str	r3, [r4, #56]	; 0x38
 8002d42:	6ba3      	ldr	r3, [r4, #56]	; 0x38
 8002d44:	6423      	str	r3, [r4, #64]	; 0x40
 8002d46:	6be3      	ldr	r3, [r4, #60]	; 0x3c
 8002d48:	6be2      	ldr	r2, [r4, #60]	; 0x3c
 8002d4a:	eb06 0383 	add.w	r3, r6, r3, lsl #2
 8002d4e:	9200      	str	r2, [sp, #0]
 8002d50:	4632      	mov	r2, r6
 8002d52:	f001 fcb7 	bl	80046c4 <HAL_DMAEx_MultiBufferStart_IT>
 8002d56:	b178      	cbz	r0, 8002d78 <HAL_DCMI_Start_DMA+0xc4>
 8002d58:	2340      	movs	r3, #64	; 0x40
 8002d5a:	2001      	movs	r0, #1
 8002d5c:	64e3      	str	r3, [r4, #76]	; 0x4c
 8002d5e:	2300      	movs	r3, #0
 8002d60:	f884 0035 	strb.w	r0, [r4, #53]	; 0x35
 8002d64:	f884 3034 	strb.w	r3, [r4, #52]	; 0x34
 8002d68:	e7dd      	b.n	8002d26 <HAL_DCMI_Start_DMA+0x72>
 8002d6a:	6be3      	ldr	r3, [r4, #60]	; 0x3c
 8002d6c:	085b      	lsrs	r3, r3, #1
 8002d6e:	63e3      	str	r3, [r4, #60]	; 0x3c
 8002d70:	6ba3      	ldr	r3, [r4, #56]	; 0x38
 8002d72:	005b      	lsls	r3, r3, #1
 8002d74:	63a3      	str	r3, [r4, #56]	; 0x38
 8002d76:	e7dd      	b.n	8002d34 <HAL_DCMI_Start_DMA+0x80>
 8002d78:	6822      	ldr	r2, [r4, #0]
 8002d7a:	2000      	movs	r0, #0
 8002d7c:	6813      	ldr	r3, [r2, #0]
 8002d7e:	f043 0301 	orr.w	r3, r3, #1
 8002d82:	6013      	str	r3, [r2, #0]
 8002d84:	f884 0034 	strb.w	r0, [r4, #52]	; 0x34
 8002d88:	e7cd      	b.n	8002d26 <HAL_DCMI_Start_DMA+0x72>
 8002d8a:	bf00      	nop
 8002d8c:	08002e09 	.word	0x08002e09
 8002d90:	08002ba9 	.word	0x08002ba9

08002d94 <HAL_DCMI_Stop>:
 8002d94:	b538      	push	{r3, r4, r5, lr}
 8002d96:	4b1b      	ldr	r3, [pc, #108]	; (8002e04 <HAL_DCMI_Stop+0x70>)
 8002d98:	f44f 52fa 	mov.w	r2, #8000	; 0x1f40
 8002d9c:	4604      	mov	r4, r0
 8002d9e:	2502      	movs	r5, #2
 8002da0:	681b      	ldr	r3, [r3, #0]
 8002da2:	fbb3 f3f2 	udiv	r3, r3, r2
 8002da6:	f44f 727a 	mov.w	r2, #1000	; 0x3e8
 8002daa:	4353      	muls	r3, r2
 8002dac:	f890 2034 	ldrb.w	r2, [r0, #52]	; 0x34
 8002db0:	2a01      	cmp	r2, #1
 8002db2:	d01f      	beq.n	8002df4 <HAL_DCMI_Stop+0x60>
 8002db4:	2201      	movs	r2, #1
 8002db6:	f880 5035 	strb.w	r5, [r0, #53]	; 0x35
 8002dba:	f880 2034 	strb.w	r2, [r0, #52]	; 0x34
 8002dbe:	6802      	ldr	r2, [r0, #0]
 8002dc0:	6811      	ldr	r1, [r2, #0]
 8002dc2:	f021 0101 	bic.w	r1, r1, #1
 8002dc6:	6011      	str	r1, [r2, #0]
 8002dc8:	3b01      	subs	r3, #1
 8002dca:	d115      	bne.n	8002df8 <HAL_DCMI_Stop+0x64>
 8002dcc:	6ce3      	ldr	r3, [r4, #76]	; 0x4c
 8002dce:	2503      	movs	r5, #3
 8002dd0:	f043 0320 	orr.w	r3, r3, #32
 8002dd4:	64e3      	str	r3, [r4, #76]	; 0x4c
 8002dd6:	6813      	ldr	r3, [r2, #0]
 8002dd8:	6ca0      	ldr	r0, [r4, #72]	; 0x48
 8002dda:	f423 4380 	bic.w	r3, r3, #16384	; 0x4000
 8002dde:	6013      	str	r3, [r2, #0]
 8002de0:	f000 fd10 	bl	8003804 <HAL_DMA_Abort>
 8002de4:	6ce3      	ldr	r3, [r4, #76]	; 0x4c
 8002de6:	64e3      	str	r3, [r4, #76]	; 0x4c
 8002de8:	2301      	movs	r3, #1
 8002dea:	f884 3035 	strb.w	r3, [r4, #53]	; 0x35
 8002dee:	2300      	movs	r3, #0
 8002df0:	f884 3034 	strb.w	r3, [r4, #52]	; 0x34
 8002df4:	4628      	mov	r0, r5
 8002df6:	bd38      	pop	{r3, r4, r5, pc}
 8002df8:	6815      	ldr	r5, [r2, #0]
 8002dfa:	f015 0501 	ands.w	r5, r5, #1
 8002dfe:	d1e3      	bne.n	8002dc8 <HAL_DCMI_Stop+0x34>
 8002e00:	e7e9      	b.n	8002dd6 <HAL_DCMI_Stop+0x42>
 8002e02:	bf00      	nop
 8002e04:	24000044 	.word	0x24000044

08002e08 <DCMI_DMAError>:
 8002e08:	6b80      	ldr	r0, [r0, #56]	; 0x38
 8002e0a:	b508      	push	{r3, lr}
 8002e0c:	6c83      	ldr	r3, [r0, #72]	; 0x48
 8002e0e:	6d5b      	ldr	r3, [r3, #84]	; 0x54
 8002e10:	2b02      	cmp	r3, #2
 8002e12:	d006      	beq.n	8002e22 <DCMI_DMAError+0x1a>
 8002e14:	2301      	movs	r3, #1
 8002e16:	f880 3035 	strb.w	r3, [r0, #53]	; 0x35
 8002e1a:	6cc3      	ldr	r3, [r0, #76]	; 0x4c
 8002e1c:	f043 0340 	orr.w	r3, r3, #64	; 0x40
 8002e20:	64c3      	str	r3, [r0, #76]	; 0x4c
 8002e22:	f7ff fc7f 	bl	8002724 <HAL_DCMI_ErrorCallback>
 8002e26:	bd08      	pop	{r3, pc}

08002e28 <HAL_DCMI_IRQHandler>:
 8002e28:	b538      	push	{r3, r4, r5, lr}
 8002e2a:	6803      	ldr	r3, [r0, #0]
 8002e2c:	4604      	mov	r4, r0
 8002e2e:	691d      	ldr	r5, [r3, #16]
 8002e30:	0769      	lsls	r1, r5, #29
 8002e32:	d50c      	bpl.n	8002e4e <HAL_DCMI_IRQHandler+0x26>
 8002e34:	2204      	movs	r2, #4
 8002e36:	615a      	str	r2, [r3, #20]
 8002e38:	6cc3      	ldr	r3, [r0, #76]	; 0x4c
 8002e3a:	f043 0302 	orr.w	r3, r3, #2
 8002e3e:	64c3      	str	r3, [r0, #76]	; 0x4c
 8002e40:	4b1d      	ldr	r3, [pc, #116]	; (8002eb8 <HAL_DCMI_IRQHandler+0x90>)
 8002e42:	f880 2035 	strb.w	r2, [r0, #53]	; 0x35
 8002e46:	6c80      	ldr	r0, [r0, #72]	; 0x48
 8002e48:	6503      	str	r3, [r0, #80]	; 0x50
 8002e4a:	f000 fe81 	bl	8003b50 <HAL_DMA_Abort_IT>
 8002e4e:	07aa      	lsls	r2, r5, #30
 8002e50:	d50e      	bpl.n	8002e70 <HAL_DCMI_IRQHandler+0x48>
 8002e52:	6823      	ldr	r3, [r4, #0]
 8002e54:	2202      	movs	r2, #2
 8002e56:	6ca0      	ldr	r0, [r4, #72]	; 0x48
 8002e58:	615a      	str	r2, [r3, #20]
 8002e5a:	6ce3      	ldr	r3, [r4, #76]	; 0x4c
 8002e5c:	f043 0301 	orr.w	r3, r3, #1
 8002e60:	64e3      	str	r3, [r4, #76]	; 0x4c
 8002e62:	2304      	movs	r3, #4
 8002e64:	f884 3035 	strb.w	r3, [r4, #53]	; 0x35
 8002e68:	4b13      	ldr	r3, [pc, #76]	; (8002eb8 <HAL_DCMI_IRQHandler+0x90>)
 8002e6a:	6503      	str	r3, [r0, #80]	; 0x50
 8002e6c:	f000 fe70 	bl	8003b50 <HAL_DMA_Abort_IT>
 8002e70:	06eb      	lsls	r3, r5, #27
 8002e72:	d505      	bpl.n	8002e80 <HAL_DCMI_IRQHandler+0x58>
 8002e74:	6823      	ldr	r3, [r4, #0]
 8002e76:	2210      	movs	r2, #16
 8002e78:	4620      	mov	r0, r4
 8002e7a:	615a      	str	r2, [r3, #20]
 8002e7c:	f7ff fc43 	bl	8002706 <HAL_DCMI_LineEventCallback>
 8002e80:	0728      	lsls	r0, r5, #28
 8002e82:	d505      	bpl.n	8002e90 <HAL_DCMI_IRQHandler+0x68>
 8002e84:	6823      	ldr	r3, [r4, #0]
 8002e86:	2208      	movs	r2, #8
 8002e88:	4620      	mov	r0, r4
 8002e8a:	615a      	str	r2, [r3, #20]
 8002e8c:	f7ff fc45 	bl	800271a <HAL_DCMI_VsyncEventCallback>
 8002e90:	07e9      	lsls	r1, r5, #31
 8002e92:	d510      	bpl.n	8002eb6 <HAL_DCMI_IRQHandler+0x8e>
 8002e94:	6823      	ldr	r3, [r4, #0]
 8002e96:	681a      	ldr	r2, [r3, #0]
 8002e98:	0792      	lsls	r2, r2, #30
 8002e9a:	d503      	bpl.n	8002ea4 <HAL_DCMI_IRQHandler+0x7c>
 8002e9c:	68da      	ldr	r2, [r3, #12]
 8002e9e:	f022 021e 	bic.w	r2, r2, #30
 8002ea2:	60da      	str	r2, [r3, #12]
 8002ea4:	68da      	ldr	r2, [r3, #12]
 8002ea6:	4620      	mov	r0, r4
 8002ea8:	f022 0201 	bic.w	r2, r2, #1
 8002eac:	60da      	str	r2, [r3, #12]
 8002eae:	2201      	movs	r2, #1
 8002eb0:	615a      	str	r2, [r3, #20]
 8002eb2:	f7ff fc2d 	bl	8002710 <HAL_DCMI_FrameEventCallback>
 8002eb6:	bd38      	pop	{r3, r4, r5, pc}
 8002eb8:	08002e09 	.word	0x08002e09

08002ebc <DMA_SetConfig>:
 8002ebc:	b5f0      	push	{r4, r5, r6, r7, lr}
 8002ebe:	f8df c1b0 	ldr.w	ip, [pc, #432]	; 8003070 <DMA_SetConfig+0x1b4>
 8002ec2:	6804      	ldr	r4, [r0, #0]
 8002ec4:	6d87      	ldr	r7, [r0, #88]	; 0x58
 8002ec6:	4564      	cmp	r4, ip
 8002ec8:	d04f      	beq.n	8002f6a <DMA_SetConfig+0xae>
 8002eca:	4d65      	ldr	r5, [pc, #404]	; (8003060 <DMA_SetConfig+0x1a4>)
 8002ecc:	42ac      	cmp	r4, r5
 8002ece:	d04c      	beq.n	8002f6a <DMA_SetConfig+0xae>
 8002ed0:	3518      	adds	r5, #24
 8002ed2:	42ac      	cmp	r4, r5
 8002ed4:	d049      	beq.n	8002f6a <DMA_SetConfig+0xae>
 8002ed6:	3518      	adds	r5, #24
 8002ed8:	42ac      	cmp	r4, r5
 8002eda:	d046      	beq.n	8002f6a <DMA_SetConfig+0xae>
 8002edc:	3518      	adds	r5, #24
 8002ede:	42ac      	cmp	r4, r5
 8002ee0:	d043      	beq.n	8002f6a <DMA_SetConfig+0xae>
 8002ee2:	3518      	adds	r5, #24
 8002ee4:	42ac      	cmp	r4, r5
 8002ee6:	d040      	beq.n	8002f6a <DMA_SetConfig+0xae>
 8002ee8:	3518      	adds	r5, #24
 8002eea:	42ac      	cmp	r4, r5
 8002eec:	d03d      	beq.n	8002f6a <DMA_SetConfig+0xae>
 8002eee:	3518      	adds	r5, #24
 8002ef0:	42ac      	cmp	r4, r5
 8002ef2:	d03a      	beq.n	8002f6a <DMA_SetConfig+0xae>
 8002ef4:	f505 7556 	add.w	r5, r5, #856	; 0x358
 8002ef8:	42ac      	cmp	r4, r5
 8002efa:	d036      	beq.n	8002f6a <DMA_SetConfig+0xae>
 8002efc:	3518      	adds	r5, #24
 8002efe:	42ac      	cmp	r4, r5
 8002f00:	d033      	beq.n	8002f6a <DMA_SetConfig+0xae>
 8002f02:	3518      	adds	r5, #24
 8002f04:	42ac      	cmp	r4, r5
 8002f06:	d030      	beq.n	8002f6a <DMA_SetConfig+0xae>
 8002f08:	3518      	adds	r5, #24
 8002f0a:	42ac      	cmp	r4, r5
 8002f0c:	d02d      	beq.n	8002f6a <DMA_SetConfig+0xae>
 8002f0e:	3518      	adds	r5, #24
 8002f10:	42ac      	cmp	r4, r5
 8002f12:	d02a      	beq.n	8002f6a <DMA_SetConfig+0xae>
 8002f14:	3518      	adds	r5, #24
 8002f16:	42ac      	cmp	r4, r5
 8002f18:	d027      	beq.n	8002f6a <DMA_SetConfig+0xae>
 8002f1a:	3518      	adds	r5, #24
 8002f1c:	42ac      	cmp	r4, r5
 8002f1e:	d024      	beq.n	8002f6a <DMA_SetConfig+0xae>
 8002f20:	3518      	adds	r5, #24
 8002f22:	42ac      	cmp	r4, r5
 8002f24:	d021      	beq.n	8002f6a <DMA_SetConfig+0xae>
 8002f26:	4d4f      	ldr	r5, [pc, #316]	; (8003064 <DMA_SetConfig+0x1a8>)
 8002f28:	42ac      	cmp	r4, r5
 8002f2a:	d01e      	beq.n	8002f6a <DMA_SetConfig+0xae>
 8002f2c:	3514      	adds	r5, #20
 8002f2e:	42ac      	cmp	r4, r5
 8002f30:	d01b      	beq.n	8002f6a <DMA_SetConfig+0xae>
 8002f32:	3514      	adds	r5, #20
 8002f34:	42ac      	cmp	r4, r5
 8002f36:	d018      	beq.n	8002f6a <DMA_SetConfig+0xae>
 8002f38:	3514      	adds	r5, #20
 8002f3a:	42ac      	cmp	r4, r5
 8002f3c:	d015      	beq.n	8002f6a <DMA_SetConfig+0xae>
 8002f3e:	3514      	adds	r5, #20
 8002f40:	42ac      	cmp	r4, r5
 8002f42:	d012      	beq.n	8002f6a <DMA_SetConfig+0xae>
 8002f44:	3514      	adds	r5, #20
 8002f46:	42ac      	cmp	r4, r5
 8002f48:	d00f      	beq.n	8002f6a <DMA_SetConfig+0xae>
 8002f4a:	3514      	adds	r5, #20
 8002f4c:	42ac      	cmp	r4, r5
 8002f4e:	d00c      	beq.n	8002f6a <DMA_SetConfig+0xae>
 8002f50:	3514      	adds	r5, #20
 8002f52:	42ac      	cmp	r4, r5
 8002f54:	d009      	beq.n	8002f6a <DMA_SetConfig+0xae>
 8002f56:	4d44      	ldr	r5, [pc, #272]	; (8003068 <DMA_SetConfig+0x1ac>)
 8002f58:	42ac      	cmp	r4, r5
 8002f5a:	d14f      	bne.n	8002ffc <DMA_SetConfig+0x140>
 8002f5c:	6dc5      	ldr	r5, [r0, #92]	; 0x5c
 8002f5e:	f005 061f 	and.w	r6, r5, #31
 8002f62:	2501      	movs	r5, #1
 8002f64:	40b5      	lsls	r5, r6
 8002f66:	607d      	str	r5, [r7, #4]
 8002f68:	e041      	b.n	8002fee <DMA_SetConfig+0x132>
 8002f6a:	e9d0 5619 	ldrd	r5, r6, [r0, #100]	; 0x64
 8002f6e:	606e      	str	r6, [r5, #4]
 8002f70:	6ec5      	ldr	r5, [r0, #108]	; 0x6c
 8002f72:	b115      	cbz	r5, 8002f7a <DMA_SetConfig+0xbe>
 8002f74:	e9d0 561c 	ldrd	r5, r6, [r0, #112]	; 0x70
 8002f78:	606e      	str	r6, [r5, #4]
 8002f7a:	4564      	cmp	r4, ip
 8002f7c:	d02d      	beq.n	8002fda <DMA_SetConfig+0x11e>
 8002f7e:	4d38      	ldr	r5, [pc, #224]	; (8003060 <DMA_SetConfig+0x1a4>)
 8002f80:	42ac      	cmp	r4, r5
 8002f82:	d02a      	beq.n	8002fda <DMA_SetConfig+0x11e>
 8002f84:	3518      	adds	r5, #24
 8002f86:	42ac      	cmp	r4, r5
 8002f88:	d027      	beq.n	8002fda <DMA_SetConfig+0x11e>
 8002f8a:	3518      	adds	r5, #24
 8002f8c:	42ac      	cmp	r4, r5
 8002f8e:	d024      	beq.n	8002fda <DMA_SetConfig+0x11e>
 8002f90:	3518      	adds	r5, #24
 8002f92:	42ac      	cmp	r4, r5
 8002f94:	d021      	beq.n	8002fda <DMA_SetConfig+0x11e>
 8002f96:	3518      	adds	r5, #24
 8002f98:	42ac      	cmp	r4, r5
 8002f9a:	d01e      	beq.n	8002fda <DMA_SetConfig+0x11e>
 8002f9c:	3518      	adds	r5, #24
 8002f9e:	42ac      	cmp	r4, r5
 8002fa0:	d01b      	beq.n	8002fda <DMA_SetConfig+0x11e>
 8002fa2:	3518      	adds	r5, #24
 8002fa4:	42ac      	cmp	r4, r5
 8002fa6:	d018      	beq.n	8002fda <DMA_SetConfig+0x11e>
 8002fa8:	f505 7556 	add.w	r5, r5, #856	; 0x358
 8002fac:	42ac      	cmp	r4, r5
 8002fae:	d014      	beq.n	8002fda <DMA_SetConfig+0x11e>
 8002fb0:	3518      	adds	r5, #24
 8002fb2:	42ac      	cmp	r4, r5
 8002fb4:	d011      	beq.n	8002fda <DMA_SetConfig+0x11e>
 8002fb6:	3518      	adds	r5, #24
 8002fb8:	42ac      	cmp	r4, r5
 8002fba:	d00e      	beq.n	8002fda <DMA_SetConfig+0x11e>
 8002fbc:	3518      	adds	r5, #24
 8002fbe:	42ac      	cmp	r4, r5
 8002fc0:	d00b      	beq.n	8002fda <DMA_SetConfig+0x11e>
 8002fc2:	3518      	adds	r5, #24
 8002fc4:	42ac      	cmp	r4, r5
 8002fc6:	d008      	beq.n	8002fda <DMA_SetConfig+0x11e>
 8002fc8:	3518      	adds	r5, #24
 8002fca:	42ac      	cmp	r4, r5
 8002fcc:	d005      	beq.n	8002fda <DMA_SetConfig+0x11e>
 8002fce:	3518      	adds	r5, #24
 8002fd0:	42ac      	cmp	r4, r5
 8002fd2:	d002      	beq.n	8002fda <DMA_SetConfig+0x11e>
 8002fd4:	3518      	adds	r5, #24
 8002fd6:	42ac      	cmp	r4, r5
 8002fd8:	d1bd      	bne.n	8002f56 <DMA_SetConfig+0x9a>
 8002fda:	6dc5      	ldr	r5, [r0, #92]	; 0x5c
 8002fdc:	f005 061f 	and.w	r6, r5, #31
 8002fe0:	253f      	movs	r5, #63	; 0x3f
 8002fe2:	40b5      	lsls	r5, r6
 8002fe4:	60bd      	str	r5, [r7, #8]
 8002fe6:	6825      	ldr	r5, [r4, #0]
 8002fe8:	f425 2580 	bic.w	r5, r5, #262144	; 0x40000
 8002fec:	6025      	str	r5, [r4, #0]
 8002fee:	6063      	str	r3, [r4, #4]
 8002ff0:	6883      	ldr	r3, [r0, #8]
 8002ff2:	2b40      	cmp	r3, #64	; 0x40
 8002ff4:	d130      	bne.n	8003058 <DMA_SetConfig+0x19c>
 8002ff6:	60a2      	str	r2, [r4, #8]
 8002ff8:	60e1      	str	r1, [r4, #12]
 8002ffa:	e02c      	b.n	8003056 <DMA_SetConfig+0x19a>
 8002ffc:	4d1b      	ldr	r5, [pc, #108]	; (800306c <DMA_SetConfig+0x1b0>)
 8002ffe:	42ac      	cmp	r4, r5
 8003000:	d0ac      	beq.n	8002f5c <DMA_SetConfig+0xa0>
 8003002:	3514      	adds	r5, #20
 8003004:	42ac      	cmp	r4, r5
 8003006:	d0a9      	beq.n	8002f5c <DMA_SetConfig+0xa0>
 8003008:	3514      	adds	r5, #20
 800300a:	42ac      	cmp	r4, r5
 800300c:	d0a6      	beq.n	8002f5c <DMA_SetConfig+0xa0>
 800300e:	3514      	adds	r5, #20
 8003010:	42ac      	cmp	r4, r5
 8003012:	d0a3      	beq.n	8002f5c <DMA_SetConfig+0xa0>
 8003014:	3514      	adds	r5, #20
 8003016:	42ac      	cmp	r4, r5
 8003018:	d0a0      	beq.n	8002f5c <DMA_SetConfig+0xa0>
 800301a:	3514      	adds	r5, #20
 800301c:	42ac      	cmp	r4, r5
 800301e:	d09d      	beq.n	8002f5c <DMA_SetConfig+0xa0>
 8003020:	3514      	adds	r5, #20
 8003022:	42ac      	cmp	r4, r5
 8003024:	d09a      	beq.n	8002f5c <DMA_SetConfig+0xa0>
 8003026:	4d0f      	ldr	r5, [pc, #60]	; (8003064 <DMA_SetConfig+0x1a8>)
 8003028:	42ac      	cmp	r4, r5
 800302a:	d097      	beq.n	8002f5c <DMA_SetConfig+0xa0>
 800302c:	3514      	adds	r5, #20
 800302e:	42ac      	cmp	r4, r5
 8003030:	d094      	beq.n	8002f5c <DMA_SetConfig+0xa0>
 8003032:	3514      	adds	r5, #20
 8003034:	42ac      	cmp	r4, r5
 8003036:	d091      	beq.n	8002f5c <DMA_SetConfig+0xa0>
 8003038:	3514      	adds	r5, #20
 800303a:	42ac      	cmp	r4, r5
 800303c:	d08e      	beq.n	8002f5c <DMA_SetConfig+0xa0>
 800303e:	3514      	adds	r5, #20
 8003040:	42ac      	cmp	r4, r5
 8003042:	d08b      	beq.n	8002f5c <DMA_SetConfig+0xa0>
 8003044:	3514      	adds	r5, #20
 8003046:	42ac      	cmp	r4, r5
 8003048:	d088      	beq.n	8002f5c <DMA_SetConfig+0xa0>
 800304a:	3514      	adds	r5, #20
 800304c:	42ac      	cmp	r4, r5
 800304e:	d085      	beq.n	8002f5c <DMA_SetConfig+0xa0>
 8003050:	3514      	adds	r5, #20
 8003052:	42ac      	cmp	r4, r5
 8003054:	d082      	beq.n	8002f5c <DMA_SetConfig+0xa0>
 8003056:	bdf0      	pop	{r4, r5, r6, r7, pc}
 8003058:	60a1      	str	r1, [r4, #8]
 800305a:	60e2      	str	r2, [r4, #12]
 800305c:	e7fb      	b.n	8003056 <DMA_SetConfig+0x19a>
 800305e:	bf00      	nop
 8003060:	40020028 	.word	0x40020028
 8003064:	58025408 	.word	0x58025408
 8003068:	48022c08 	.word	0x48022c08
 800306c:	48022c1c 	.word	0x48022c1c
 8003070:	40020010 	.word	0x40020010

08003074 <DMA_CalcBaseAndBitshift>:
 8003074:	6803      	ldr	r3, [r0, #0]
 8003076:	4a24      	ldr	r2, [pc, #144]	; (8003108 <DMA_CalcBaseAndBitshift+0x94>)
 8003078:	4293      	cmp	r3, r2
 800307a:	b510      	push	{r4, lr}
 800307c:	d032      	beq.n	80030e4 <DMA_CalcBaseAndBitshift+0x70>
 800307e:	3218      	adds	r2, #24
 8003080:	4293      	cmp	r3, r2
 8003082:	d02f      	beq.n	80030e4 <DMA_CalcBaseAndBitshift+0x70>
 8003084:	3218      	adds	r2, #24
 8003086:	4293      	cmp	r3, r2
 8003088:	d02c      	beq.n	80030e4 <DMA_CalcBaseAndBitshift+0x70>
 800308a:	3218      	adds	r2, #24
 800308c:	4293      	cmp	r3, r2
 800308e:	d029      	beq.n	80030e4 <DMA_CalcBaseAndBitshift+0x70>
 8003090:	3218      	adds	r2, #24
 8003092:	4293      	cmp	r3, r2
 8003094:	d026      	beq.n	80030e4 <DMA_CalcBaseAndBitshift+0x70>
 8003096:	3218      	adds	r2, #24
 8003098:	4293      	cmp	r3, r2
 800309a:	d023      	beq.n	80030e4 <DMA_CalcBaseAndBitshift+0x70>
 800309c:	3218      	adds	r2, #24
 800309e:	4293      	cmp	r3, r2
 80030a0:	d020      	beq.n	80030e4 <DMA_CalcBaseAndBitshift+0x70>
 80030a2:	3218      	adds	r2, #24
 80030a4:	4293      	cmp	r3, r2
 80030a6:	d01d      	beq.n	80030e4 <DMA_CalcBaseAndBitshift+0x70>
 80030a8:	f502 7256 	add.w	r2, r2, #856	; 0x358
 80030ac:	4293      	cmp	r3, r2
 80030ae:	d019      	beq.n	80030e4 <DMA_CalcBaseAndBitshift+0x70>
 80030b0:	3218      	adds	r2, #24
 80030b2:	4293      	cmp	r3, r2
 80030b4:	d016      	beq.n	80030e4 <DMA_CalcBaseAndBitshift+0x70>
 80030b6:	3218      	adds	r2, #24
 80030b8:	4293      	cmp	r3, r2
 80030ba:	d013      	beq.n	80030e4 <DMA_CalcBaseAndBitshift+0x70>
 80030bc:	3218      	adds	r2, #24
 80030be:	4293      	cmp	r3, r2
 80030c0:	d010      	beq.n	80030e4 <DMA_CalcBaseAndBitshift+0x70>
 80030c2:	3218      	adds	r2, #24
 80030c4:	4293      	cmp	r3, r2
 80030c6:	d00d      	beq.n	80030e4 <DMA_CalcBaseAndBitshift+0x70>
 80030c8:	3218      	adds	r2, #24
 80030ca:	4293      	cmp	r3, r2
 80030cc:	d00a      	beq.n	80030e4 <DMA_CalcBaseAndBitshift+0x70>
 80030ce:	3218      	adds	r2, #24
 80030d0:	4293      	cmp	r3, r2
 80030d2:	d007      	beq.n	80030e4 <DMA_CalcBaseAndBitshift+0x70>
 80030d4:	3218      	adds	r2, #24
 80030d6:	4293      	cmp	r3, r2
 80030d8:	d004      	beq.n	80030e4 <DMA_CalcBaseAndBitshift+0x70>
 80030da:	f023 03ff 	bic.w	r3, r3, #255	; 0xff
 80030de:	6583      	str	r3, [r0, #88]	; 0x58
 80030e0:	6d80      	ldr	r0, [r0, #88]	; 0x58
 80030e2:	bd10      	pop	{r4, pc}
 80030e4:	b2d9      	uxtb	r1, r3
 80030e6:	2218      	movs	r2, #24
 80030e8:	4c08      	ldr	r4, [pc, #32]	; (800310c <DMA_CalcBaseAndBitshift+0x98>)
 80030ea:	f423 737f 	bic.w	r3, r3, #1020	; 0x3fc
 80030ee:	3910      	subs	r1, #16
 80030f0:	f023 0303 	bic.w	r3, r3, #3
 80030f4:	295f      	cmp	r1, #95	; 0x5f
 80030f6:	fbb1 f2f2 	udiv	r2, r1, r2
 80030fa:	f002 0207 	and.w	r2, r2, #7
 80030fe:	bf88      	it	hi
 8003100:	3304      	addhi	r3, #4
 8003102:	5ca2      	ldrb	r2, [r4, r2]
 8003104:	65c2      	str	r2, [r0, #92]	; 0x5c
 8003106:	e7ea      	b.n	80030de <DMA_CalcBaseAndBitshift+0x6a>
 8003108:	40020010 	.word	0x40020010
 800310c:	08008ed2 	.word	0x08008ed2

08003110 <DMA_CalcDMAMUXChannelBaseAndMask>:
 8003110:	6802      	ldr	r2, [r0, #0]
 8003112:	491f      	ldr	r1, [pc, #124]	; (8003190 <DMA_CalcDMAMUXChannelBaseAndMask+0x80>)
 8003114:	b2d3      	uxtb	r3, r2
 8003116:	428a      	cmp	r2, r1
 8003118:	d024      	beq.n	8003164 <DMA_CalcDMAMUXChannelBaseAndMask+0x54>
 800311a:	3114      	adds	r1, #20
 800311c:	428a      	cmp	r2, r1
 800311e:	d021      	beq.n	8003164 <DMA_CalcDMAMUXChannelBaseAndMask+0x54>
 8003120:	3114      	adds	r1, #20
 8003122:	428a      	cmp	r2, r1
 8003124:	d01e      	beq.n	8003164 <DMA_CalcDMAMUXChannelBaseAndMask+0x54>
 8003126:	3114      	adds	r1, #20
 8003128:	428a      	cmp	r2, r1
 800312a:	d01b      	beq.n	8003164 <DMA_CalcDMAMUXChannelBaseAndMask+0x54>
 800312c:	3114      	adds	r1, #20
 800312e:	428a      	cmp	r2, r1
 8003130:	d018      	beq.n	8003164 <DMA_CalcDMAMUXChannelBaseAndMask+0x54>
 8003132:	3114      	adds	r1, #20
 8003134:	428a      	cmp	r2, r1
 8003136:	d015      	beq.n	8003164 <DMA_CalcDMAMUXChannelBaseAndMask+0x54>
 8003138:	3114      	adds	r1, #20
 800313a:	428a      	cmp	r2, r1
 800313c:	d012      	beq.n	8003164 <DMA_CalcDMAMUXChannelBaseAndMask+0x54>
 800313e:	3114      	adds	r1, #20
 8003140:	428a      	cmp	r2, r1
 8003142:	d00f      	beq.n	8003164 <DMA_CalcDMAMUXChannelBaseAndMask+0x54>
 8003144:	2118      	movs	r1, #24
 8003146:	3b10      	subs	r3, #16
 8003148:	fbb3 f3f1 	udiv	r3, r3, r1
 800314c:	4911      	ldr	r1, [pc, #68]	; (8003194 <DMA_CalcDMAMUXChannelBaseAndMask+0x84>)
 800314e:	4411      	add	r1, r2
 8003150:	29a8      	cmp	r1, #168	; 0xa8
 8003152:	d91a      	bls.n	800318a <DMA_CalcDMAMUXChannelBaseAndMask+0x7a>
 8003154:	f103 5280 	add.w	r2, r3, #268435456	; 0x10000000
 8003158:	f502 4202 	add.w	r2, r2, #33280	; 0x8200
 800315c:	0092      	lsls	r2, r2, #2
 800315e:	6602      	str	r2, [r0, #96]	; 0x60
 8003160:	4a0d      	ldr	r2, [pc, #52]	; (8003198 <DMA_CalcDMAMUXChannelBaseAndMask+0x88>)
 8003162:	e00a      	b.n	800317a <DMA_CalcDMAMUXChannelBaseAndMask+0x6a>
 8003164:	2214      	movs	r2, #20
 8003166:	3b08      	subs	r3, #8
 8003168:	fbb3 f3f2 	udiv	r3, r3, r2
 800316c:	f103 52b0 	add.w	r2, r3, #369098752	; 0x16000000
 8003170:	f502 4216 	add.w	r2, r2, #38400	; 0x9600
 8003174:	0092      	lsls	r2, r2, #2
 8003176:	6602      	str	r2, [r0, #96]	; 0x60
 8003178:	4a08      	ldr	r2, [pc, #32]	; (800319c <DMA_CalcDMAMUXChannelBaseAndMask+0x8c>)
 800317a:	f003 031f 	and.w	r3, r3, #31
 800317e:	6642      	str	r2, [r0, #100]	; 0x64
 8003180:	2201      	movs	r2, #1
 8003182:	fa02 f303 	lsl.w	r3, r2, r3
 8003186:	6683      	str	r3, [r0, #104]	; 0x68
 8003188:	4770      	bx	lr
 800318a:	3308      	adds	r3, #8
 800318c:	e7e2      	b.n	8003154 <DMA_CalcDMAMUXChannelBaseAndMask+0x44>
 800318e:	bf00      	nop
 8003190:	58025408 	.word	0x58025408
 8003194:	bffdfbf0 	.word	0xbffdfbf0
 8003198:	40020880 	.word	0x40020880
 800319c:	58025880 	.word	0x58025880

080031a0 <DMA_CalcDMAMUXRequestGenBaseAndMask>:
 80031a0:	7902      	ldrb	r2, [r0, #4]
 80031a2:	1e51      	subs	r1, r2, #1
 80031a4:	2907      	cmp	r1, #7
 80031a6:	b510      	push	{r4, lr}
 80031a8:	d821      	bhi.n	80031ee <DMA_CalcDMAMUXRequestGenBaseAndMask+0x4e>
 80031aa:	6803      	ldr	r3, [r0, #0]
 80031ac:	4c13      	ldr	r4, [pc, #76]	; (80031fc <DMA_CalcDMAMUXRequestGenBaseAndMask+0x5c>)
 80031ae:	42a3      	cmp	r3, r4
 80031b0:	d01e      	beq.n	80031f0 <DMA_CalcDMAMUXRequestGenBaseAndMask+0x50>
 80031b2:	3414      	adds	r4, #20
 80031b4:	42a3      	cmp	r3, r4
 80031b6:	d01b      	beq.n	80031f0 <DMA_CalcDMAMUXRequestGenBaseAndMask+0x50>
 80031b8:	3414      	adds	r4, #20
 80031ba:	42a3      	cmp	r3, r4
 80031bc:	d018      	beq.n	80031f0 <DMA_CalcDMAMUXRequestGenBaseAndMask+0x50>
 80031be:	3414      	adds	r4, #20
 80031c0:	42a3      	cmp	r3, r4
 80031c2:	d015      	beq.n	80031f0 <DMA_CalcDMAMUXRequestGenBaseAndMask+0x50>
 80031c4:	3414      	adds	r4, #20
 80031c6:	42a3      	cmp	r3, r4
 80031c8:	d012      	beq.n	80031f0 <DMA_CalcDMAMUXRequestGenBaseAndMask+0x50>
 80031ca:	3414      	adds	r4, #20
 80031cc:	42a3      	cmp	r3, r4
 80031ce:	d00f      	beq.n	80031f0 <DMA_CalcDMAMUXRequestGenBaseAndMask+0x50>
 80031d0:	3414      	adds	r4, #20
 80031d2:	42a3      	cmp	r3, r4
 80031d4:	d00c      	beq.n	80031f0 <DMA_CalcDMAMUXRequestGenBaseAndMask+0x50>
 80031d6:	3414      	adds	r4, #20
 80031d8:	42a3      	cmp	r3, r4
 80031da:	d009      	beq.n	80031f0 <DMA_CalcDMAMUXRequestGenBaseAndMask+0x50>
 80031dc:	4b08      	ldr	r3, [pc, #32]	; (8003200 <DMA_CalcDMAMUXRequestGenBaseAndMask+0x60>)
 80031de:	4413      	add	r3, r2
 80031e0:	009b      	lsls	r3, r3, #2
 80031e2:	66c3      	str	r3, [r0, #108]	; 0x6c
 80031e4:	4b07      	ldr	r3, [pc, #28]	; (8003204 <DMA_CalcDMAMUXRequestGenBaseAndMask+0x64>)
 80031e6:	6703      	str	r3, [r0, #112]	; 0x70
 80031e8:	2301      	movs	r3, #1
 80031ea:	408b      	lsls	r3, r1
 80031ec:	6743      	str	r3, [r0, #116]	; 0x74
 80031ee:	bd10      	pop	{r4, pc}
 80031f0:	4b05      	ldr	r3, [pc, #20]	; (8003208 <DMA_CalcDMAMUXRequestGenBaseAndMask+0x68>)
 80031f2:	4413      	add	r3, r2
 80031f4:	009b      	lsls	r3, r3, #2
 80031f6:	66c3      	str	r3, [r0, #108]	; 0x6c
 80031f8:	4b04      	ldr	r3, [pc, #16]	; (800320c <DMA_CalcDMAMUXRequestGenBaseAndMask+0x6c>)
 80031fa:	e7f4      	b.n	80031e6 <DMA_CalcDMAMUXRequestGenBaseAndMask+0x46>
 80031fc:	58025408 	.word	0x58025408
 8003200:	1000823f 	.word	0x1000823f
 8003204:	40020940 	.word	0x40020940
 8003208:	1600963f 	.word	0x1600963f
 800320c:	58025940 	.word	0x58025940

08003210 <HAL_DMA_Init>:
 8003210:	b5f8      	push	{r3, r4, r5, r6, r7, lr}
 8003212:	4604      	mov	r4, r0
 8003214:	f7ff fc4a 	bl	8002aac <HAL_GetTick>
 8003218:	4606      	mov	r6, r0
 800321a:	2c00      	cmp	r4, #0
 800321c:	f000 80e4 	beq.w	80033e8 <HAL_DMA_Init+0x1d8>
 8003220:	6823      	ldr	r3, [r4, #0]
 8003222:	4d83      	ldr	r5, [pc, #524]	; (8003430 <HAL_DMA_Init+0x220>)
 8003224:	42ab      	cmp	r3, r5
 8003226:	d06a      	beq.n	80032fe <HAL_DMA_Init+0xee>
 8003228:	4a82      	ldr	r2, [pc, #520]	; (8003434 <HAL_DMA_Init+0x224>)
 800322a:	4293      	cmp	r3, r2
 800322c:	d067      	beq.n	80032fe <HAL_DMA_Init+0xee>
 800322e:	3218      	adds	r2, #24
 8003230:	4293      	cmp	r3, r2
 8003232:	d064      	beq.n	80032fe <HAL_DMA_Init+0xee>
 8003234:	3218      	adds	r2, #24
 8003236:	4293      	cmp	r3, r2
 8003238:	d061      	beq.n	80032fe <HAL_DMA_Init+0xee>
 800323a:	3218      	adds	r2, #24
 800323c:	4293      	cmp	r3, r2
 800323e:	d05e      	beq.n	80032fe <HAL_DMA_Init+0xee>
 8003240:	3218      	adds	r2, #24
 8003242:	4293      	cmp	r3, r2
 8003244:	d05b      	beq.n	80032fe <HAL_DMA_Init+0xee>
 8003246:	3218      	adds	r2, #24
 8003248:	4293      	cmp	r3, r2
 800324a:	d058      	beq.n	80032fe <HAL_DMA_Init+0xee>
 800324c:	3218      	adds	r2, #24
 800324e:	4293      	cmp	r3, r2
 8003250:	d055      	beq.n	80032fe <HAL_DMA_Init+0xee>
 8003252:	f502 7256 	add.w	r2, r2, #856	; 0x358
 8003256:	4293      	cmp	r3, r2
 8003258:	d051      	beq.n	80032fe <HAL_DMA_Init+0xee>
 800325a:	3218      	adds	r2, #24
 800325c:	4293      	cmp	r3, r2
 800325e:	d04e      	beq.n	80032fe <HAL_DMA_Init+0xee>
 8003260:	3218      	adds	r2, #24
 8003262:	4293      	cmp	r3, r2
 8003264:	d04b      	beq.n	80032fe <HAL_DMA_Init+0xee>
 8003266:	3218      	adds	r2, #24
 8003268:	4293      	cmp	r3, r2
 800326a:	d048      	beq.n	80032fe <HAL_DMA_Init+0xee>
 800326c:	3218      	adds	r2, #24
 800326e:	4293      	cmp	r3, r2
 8003270:	d045      	beq.n	80032fe <HAL_DMA_Init+0xee>
 8003272:	3218      	adds	r2, #24
 8003274:	4293      	cmp	r3, r2
 8003276:	d042      	beq.n	80032fe <HAL_DMA_Init+0xee>
 8003278:	3218      	adds	r2, #24
 800327a:	4293      	cmp	r3, r2
 800327c:	d03f      	beq.n	80032fe <HAL_DMA_Init+0xee>
 800327e:	3218      	adds	r2, #24
 8003280:	4293      	cmp	r3, r2
 8003282:	d03c      	beq.n	80032fe <HAL_DMA_Init+0xee>
 8003284:	4a6c      	ldr	r2, [pc, #432]	; (8003438 <HAL_DMA_Init+0x228>)
 8003286:	4293      	cmp	r3, r2
 8003288:	f040 8155 	bne.w	8003536 <HAL_DMA_Init+0x326>
 800328c:	2202      	movs	r2, #2
 800328e:	f884 2035 	strb.w	r2, [r4, #53]	; 0x35
 8003292:	2200      	movs	r2, #0
 8003294:	f884 2034 	strb.w	r2, [r4, #52]	; 0x34
 8003298:	68a2      	ldr	r2, [r4, #8]
 800329a:	6819      	ldr	r1, [r3, #0]
 800329c:	2a40      	cmp	r2, #64	; 0x40
 800329e:	f421 31ff 	bic.w	r1, r1, #130560	; 0x1fe00
 80032a2:	f421 71f8 	bic.w	r1, r1, #496	; 0x1f0
 80032a6:	f000 8184 	beq.w	80035b2 <HAL_DMA_Init+0x3a2>
 80032aa:	2a80      	cmp	r2, #128	; 0x80
 80032ac:	bf0c      	ite	eq
 80032ae:	f44f 4080 	moveq.w	r0, #16384	; 0x4000
 80032b2:	2000      	movne	r0, #0
 80032b4:	e9d4 6203 	ldrd	r6, r2, [r4, #12]
 80032b8:	08d2      	lsrs	r2, r2, #3
 80032ba:	ea42 02d6 	orr.w	r2, r2, r6, lsr #3
 80032be:	6966      	ldr	r6, [r4, #20]
 80032c0:	ea42 02d6 	orr.w	r2, r2, r6, lsr #3
 80032c4:	69a6      	ldr	r6, [r4, #24]
 80032c6:	ea42 02d6 	orr.w	r2, r2, r6, lsr #3
 80032ca:	69e6      	ldr	r6, [r4, #28]
 80032cc:	ea42 02d6 	orr.w	r2, r2, r6, lsr #3
 80032d0:	6a26      	ldr	r6, [r4, #32]
 80032d2:	ea42 1216 	orr.w	r2, r2, r6, lsr #4
 80032d6:	430a      	orrs	r2, r1
 80032d8:	4302      	orrs	r2, r0
 80032da:	4620      	mov	r0, r4
 80032dc:	601a      	str	r2, [r3, #0]
 80032de:	4a57      	ldr	r2, [pc, #348]	; (800343c <HAL_DMA_Init+0x22c>)
 80032e0:	441a      	add	r2, r3
 80032e2:	2314      	movs	r3, #20
 80032e4:	fbb2 f2f3 	udiv	r2, r2, r3
 80032e8:	0092      	lsls	r2, r2, #2
 80032ea:	65e2      	str	r2, [r4, #92]	; 0x5c
 80032ec:	f7ff fec2 	bl	8003074 <DMA_CalcBaseAndBitshift>
 80032f0:	6de3      	ldr	r3, [r4, #92]	; 0x5c
 80032f2:	f003 021f 	and.w	r2, r3, #31
 80032f6:	2301      	movs	r3, #1
 80032f8:	4093      	lsls	r3, r2
 80032fa:	6043      	str	r3, [r0, #4]
 80032fc:	e0b2      	b.n	8003464 <HAL_DMA_Init+0x254>
 80032fe:	2202      	movs	r2, #2
 8003300:	42ab      	cmp	r3, r5
 8003302:	f884 2035 	strb.w	r2, [r4, #53]	; 0x35
 8003306:	f04f 0200 	mov.w	r2, #0
 800330a:	f884 2034 	strb.w	r2, [r4, #52]	; 0x34
 800330e:	d01e      	beq.n	800334e <HAL_DMA_Init+0x13e>
 8003310:	4a48      	ldr	r2, [pc, #288]	; (8003434 <HAL_DMA_Init+0x224>)
 8003312:	4293      	cmp	r3, r2
 8003314:	d01b      	beq.n	800334e <HAL_DMA_Init+0x13e>
 8003316:	3218      	adds	r2, #24
 8003318:	4293      	cmp	r3, r2
 800331a:	d018      	beq.n	800334e <HAL_DMA_Init+0x13e>
 800331c:	3218      	adds	r2, #24
 800331e:	4293      	cmp	r3, r2
 8003320:	d015      	beq.n	800334e <HAL_DMA_Init+0x13e>
 8003322:	3218      	adds	r2, #24
 8003324:	4293      	cmp	r3, r2
 8003326:	d012      	beq.n	800334e <HAL_DMA_Init+0x13e>
 8003328:	3218      	adds	r2, #24
 800332a:	4293      	cmp	r3, r2
 800332c:	d00f      	beq.n	800334e <HAL_DMA_Init+0x13e>
 800332e:	3218      	adds	r2, #24
 8003330:	4293      	cmp	r3, r2
 8003332:	d00c      	beq.n	800334e <HAL_DMA_Init+0x13e>
 8003334:	3218      	adds	r2, #24
 8003336:	4293      	cmp	r3, r2
 8003338:	d009      	beq.n	800334e <HAL_DMA_Init+0x13e>
 800333a:	f502 7256 	add.w	r2, r2, #856	; 0x358
 800333e:	4293      	cmp	r3, r2
 8003340:	d005      	beq.n	800334e <HAL_DMA_Init+0x13e>
 8003342:	3218      	adds	r2, #24
 8003344:	4293      	cmp	r3, r2
 8003346:	d002      	beq.n	800334e <HAL_DMA_Init+0x13e>
 8003348:	3218      	adds	r2, #24
 800334a:	4293      	cmp	r3, r2
 800334c:	d0ff      	beq.n	800334e <HAL_DMA_Init+0x13e>
 800334e:	681a      	ldr	r2, [r3, #0]
 8003350:	f022 0201 	bic.w	r2, r2, #1
 8003354:	601a      	str	r2, [r3, #0]
 8003356:	6821      	ldr	r1, [r4, #0]
 8003358:	680b      	ldr	r3, [r1, #0]
 800335a:	07db      	lsls	r3, r3, #31
 800335c:	d43a      	bmi.n	80033d4 <HAL_DMA_Init+0x1c4>
 800335e:	680b      	ldr	r3, [r1, #0]
 8003360:	4e37      	ldr	r6, [pc, #220]	; (8003440 <HAL_DMA_Init+0x230>)
 8003362:	69a0      	ldr	r0, [r4, #24]
 8003364:	401e      	ands	r6, r3
 8003366:	e9d4 2302 	ldrd	r2, r3, [r4, #8]
 800336a:	4313      	orrs	r3, r2
 800336c:	6922      	ldr	r2, [r4, #16]
 800336e:	4313      	orrs	r3, r2
 8003370:	6962      	ldr	r2, [r4, #20]
 8003372:	4313      	orrs	r3, r2
 8003374:	69e2      	ldr	r2, [r4, #28]
 8003376:	4303      	orrs	r3, r0
 8003378:	4313      	orrs	r3, r2
 800337a:	6a22      	ldr	r2, [r4, #32]
 800337c:	4313      	orrs	r3, r2
 800337e:	4333      	orrs	r3, r6
 8003380:	6a66      	ldr	r6, [r4, #36]	; 0x24
 8003382:	2e04      	cmp	r6, #4
 8003384:	bf02      	ittt	eq
 8003386:	e9d4 270b 	ldrdeq	r2, r7, [r4, #44]	; 0x2c
 800338a:	433a      	orreq	r2, r7
 800338c:	4313      	orreq	r3, r2
 800338e:	6862      	ldr	r2, [r4, #4]
 8003390:	f1a2 0c29 	sub.w	ip, r2, #41	; 0x29
 8003394:	f1bc 0f1f 	cmp.w	ip, #31
 8003398:	d928      	bls.n	80033ec <HAL_DMA_Init+0x1dc>
 800339a:	f1a2 074f 	sub.w	r7, r2, #79	; 0x4f
 800339e:	2f03      	cmp	r7, #3
 80033a0:	d929      	bls.n	80033f6 <HAL_DMA_Init+0x1e6>
 80033a2:	3a74      	subs	r2, #116	; 0x74
 80033a4:	2a03      	cmp	r2, #3
 80033a6:	d926      	bls.n	80033f6 <HAL_DMA_Init+0x1e6>
 80033a8:	600b      	str	r3, [r1, #0]
 80033aa:	2e04      	cmp	r6, #4
 80033ac:	694b      	ldr	r3, [r1, #20]
 80033ae:	f023 0307 	bic.w	r3, r3, #7
 80033b2:	ea43 0306 	orr.w	r3, r3, r6
 80033b6:	d14b      	bne.n	8003450 <HAL_DMA_Init+0x240>
 80033b8:	6aa2      	ldr	r2, [r4, #40]	; 0x28
 80033ba:	6ae6      	ldr	r6, [r4, #44]	; 0x2c
 80033bc:	4313      	orrs	r3, r2
 80033be:	2e00      	cmp	r6, #0
 80033c0:	d046      	beq.n	8003450 <HAL_DMA_Init+0x240>
 80033c2:	b9d8      	cbnz	r0, 80033fc <HAL_DMA_Init+0x1ec>
 80033c4:	2a01      	cmp	r2, #1
 80033c6:	d029      	beq.n	800341c <HAL_DMA_Init+0x20c>
 80033c8:	f032 0202 	bics.w	r2, r2, #2
 80033cc:	d140      	bne.n	8003450 <HAL_DMA_Init+0x240>
 80033ce:	01f2      	lsls	r2, r6, #7
 80033d0:	d53e      	bpl.n	8003450 <HAL_DMA_Init+0x240>
 80033d2:	e026      	b.n	8003422 <HAL_DMA_Init+0x212>
 80033d4:	f7ff fb6a 	bl	8002aac <HAL_GetTick>
 80033d8:	1b80      	subs	r0, r0, r6
 80033da:	2805      	cmp	r0, #5
 80033dc:	d9bb      	bls.n	8003356 <HAL_DMA_Init+0x146>
 80033de:	2320      	movs	r3, #32
 80033e0:	6563      	str	r3, [r4, #84]	; 0x54
 80033e2:	2303      	movs	r3, #3
 80033e4:	f884 3035 	strb.w	r3, [r4, #53]	; 0x35
 80033e8:	2001      	movs	r0, #1
 80033ea:	e01f      	b.n	800342c <HAL_DMA_Init+0x21c>
 80033ec:	4f15      	ldr	r7, [pc, #84]	; (8003444 <HAL_DMA_Init+0x234>)
 80033ee:	fa27 f70c 	lsr.w	r7, r7, ip
 80033f2:	07ff      	lsls	r7, r7, #31
 80033f4:	d5d5      	bpl.n	80033a2 <HAL_DMA_Init+0x192>
 80033f6:	f443 1380 	orr.w	r3, r3, #1048576	; 0x100000
 80033fa:	e7d5      	b.n	80033a8 <HAL_DMA_Init+0x198>
 80033fc:	f5b0 5f00 	cmp.w	r0, #8192	; 0x2000
 8003400:	d122      	bne.n	8003448 <HAL_DMA_Init+0x238>
 8003402:	2a03      	cmp	r2, #3
 8003404:	d824      	bhi.n	8003450 <HAL_DMA_Init+0x240>
 8003406:	a001      	add	r0, pc, #4	; (adr r0, 800340c <HAL_DMA_Init+0x1fc>)
 8003408:	f850 f022 	ldr.w	pc, [r0, r2, lsl #2]
 800340c:	08003423 	.word	0x08003423
 8003410:	080033cf 	.word	0x080033cf
 8003414:	08003423 	.word	0x08003423
 8003418:	0800341d 	.word	0x0800341d
 800341c:	f1b6 7fc0 	cmp.w	r6, #25165824	; 0x1800000
 8003420:	d116      	bne.n	8003450 <HAL_DMA_Init+0x240>
 8003422:	2340      	movs	r3, #64	; 0x40
 8003424:	2001      	movs	r0, #1
 8003426:	6563      	str	r3, [r4, #84]	; 0x54
 8003428:	f884 0035 	strb.w	r0, [r4, #53]	; 0x35
 800342c:	bdf8      	pop	{r3, r4, r5, r6, r7, pc}
 800342e:	bf00      	nop
 8003430:	40020010 	.word	0x40020010
 8003434:	40020028 	.word	0x40020028
 8003438:	48022c08 	.word	0x48022c08
 800343c:	a7fdabf8 	.word	0xa7fdabf8
 8003440:	fe10803f 	.word	0xfe10803f
 8003444:	c3c0003f 	.word	0xc3c0003f
 8003448:	2a02      	cmp	r2, #2
 800344a:	d9ea      	bls.n	8003422 <HAL_DMA_Init+0x212>
 800344c:	2a03      	cmp	r2, #3
 800344e:	d0be      	beq.n	80033ce <HAL_DMA_Init+0x1be>
 8003450:	614b      	str	r3, [r1, #20]
 8003452:	4620      	mov	r0, r4
 8003454:	f7ff fe0e 	bl	8003074 <DMA_CalcBaseAndBitshift>
 8003458:	6de3      	ldr	r3, [r4, #92]	; 0x5c
 800345a:	f003 021f 	and.w	r2, r3, #31
 800345e:	233f      	movs	r3, #63	; 0x3f
 8003460:	4093      	lsls	r3, r2
 8003462:	6083      	str	r3, [r0, #8]
 8003464:	6823      	ldr	r3, [r4, #0]
 8003466:	42ab      	cmp	r3, r5
 8003468:	d045      	beq.n	80034f6 <HAL_DMA_Init+0x2e6>
 800346a:	4a55      	ldr	r2, [pc, #340]	; (80035c0 <HAL_DMA_Init+0x3b0>)
 800346c:	4293      	cmp	r3, r2
 800346e:	d042      	beq.n	80034f6 <HAL_DMA_Init+0x2e6>
 8003470:	3218      	adds	r2, #24
 8003472:	4293      	cmp	r3, r2
 8003474:	d03f      	beq.n	80034f6 <HAL_DMA_Init+0x2e6>
 8003476:	3218      	adds	r2, #24
 8003478:	4293      	cmp	r3, r2
 800347a:	d03c      	beq.n	80034f6 <HAL_DMA_Init+0x2e6>
 800347c:	3218      	adds	r2, #24
 800347e:	4293      	cmp	r3, r2
 8003480:	d039      	beq.n	80034f6 <HAL_DMA_Init+0x2e6>
 8003482:	3218      	adds	r2, #24
 8003484:	4293      	cmp	r3, r2
 8003486:	d036      	beq.n	80034f6 <HAL_DMA_Init+0x2e6>
 8003488:	3218      	adds	r2, #24
 800348a:	4293      	cmp	r3, r2
 800348c:	d033      	beq.n	80034f6 <HAL_DMA_Init+0x2e6>
 800348e:	3218      	adds	r2, #24
 8003490:	4293      	cmp	r3, r2
 8003492:	d030      	beq.n	80034f6 <HAL_DMA_Init+0x2e6>
 8003494:	f502 7256 	add.w	r2, r2, #856	; 0x358
 8003498:	4293      	cmp	r3, r2
 800349a:	d02c      	beq.n	80034f6 <HAL_DMA_Init+0x2e6>
 800349c:	3218      	adds	r2, #24
 800349e:	4293      	cmp	r3, r2
 80034a0:	d029      	beq.n	80034f6 <HAL_DMA_Init+0x2e6>
 80034a2:	3218      	adds	r2, #24
 80034a4:	4293      	cmp	r3, r2
 80034a6:	d026      	beq.n	80034f6 <HAL_DMA_Init+0x2e6>
 80034a8:	3218      	adds	r2, #24
 80034aa:	4293      	cmp	r3, r2
 80034ac:	d023      	beq.n	80034f6 <HAL_DMA_Init+0x2e6>
 80034ae:	3218      	adds	r2, #24
 80034b0:	4293      	cmp	r3, r2
 80034b2:	d020      	beq.n	80034f6 <HAL_DMA_Init+0x2e6>
 80034b4:	3218      	adds	r2, #24
 80034b6:	4293      	cmp	r3, r2
 80034b8:	d01d      	beq.n	80034f6 <HAL_DMA_Init+0x2e6>
 80034ba:	3218      	adds	r2, #24
 80034bc:	4293      	cmp	r3, r2
 80034be:	d01a      	beq.n	80034f6 <HAL_DMA_Init+0x2e6>
 80034c0:	3218      	adds	r2, #24
 80034c2:	4293      	cmp	r3, r2
 80034c4:	d017      	beq.n	80034f6 <HAL_DMA_Init+0x2e6>
 80034c6:	4a3f      	ldr	r2, [pc, #252]	; (80035c4 <HAL_DMA_Init+0x3b4>)
 80034c8:	4293      	cmp	r3, r2
 80034ca:	d014      	beq.n	80034f6 <HAL_DMA_Init+0x2e6>
 80034cc:	3214      	adds	r2, #20
 80034ce:	4293      	cmp	r3, r2
 80034d0:	d011      	beq.n	80034f6 <HAL_DMA_Init+0x2e6>
 80034d2:	3214      	adds	r2, #20
 80034d4:	4293      	cmp	r3, r2
 80034d6:	d00e      	beq.n	80034f6 <HAL_DMA_Init+0x2e6>
 80034d8:	3214      	adds	r2, #20
 80034da:	4293      	cmp	r3, r2
 80034dc:	d00b      	beq.n	80034f6 <HAL_DMA_Init+0x2e6>
 80034de:	3214      	adds	r2, #20
 80034e0:	4293      	cmp	r3, r2
 80034e2:	d008      	beq.n	80034f6 <HAL_DMA_Init+0x2e6>
 80034e4:	3214      	adds	r2, #20
 80034e6:	4293      	cmp	r3, r2
 80034e8:	d005      	beq.n	80034f6 <HAL_DMA_Init+0x2e6>
 80034ea:	3214      	adds	r2, #20
 80034ec:	4293      	cmp	r3, r2
 80034ee:	d002      	beq.n	80034f6 <HAL_DMA_Init+0x2e6>
 80034f0:	3214      	adds	r2, #20
 80034f2:	4293      	cmp	r3, r2
 80034f4:	d119      	bne.n	800352a <HAL_DMA_Init+0x31a>
 80034f6:	4620      	mov	r0, r4
 80034f8:	2500      	movs	r5, #0
 80034fa:	f7ff fe09 	bl	8003110 <DMA_CalcDMAMUXChannelBaseAndMask>
 80034fe:	68a3      	ldr	r3, [r4, #8]
 8003500:	6e22      	ldr	r2, [r4, #96]	; 0x60
 8003502:	2b80      	cmp	r3, #128	; 0x80
 8003504:	bf04      	itt	eq
 8003506:	2300      	moveq	r3, #0
 8003508:	6063      	streq	r3, [r4, #4]
 800350a:	6863      	ldr	r3, [r4, #4]
 800350c:	b2d9      	uxtb	r1, r3
 800350e:	3b01      	subs	r3, #1
 8003510:	6011      	str	r1, [r2, #0]
 8003512:	2b07      	cmp	r3, #7
 8003514:	e9d4 2119 	ldrd	r2, r1, [r4, #100]	; 0x64
 8003518:	6051      	str	r1, [r2, #4]
 800351a:	d84c      	bhi.n	80035b6 <HAL_DMA_Init+0x3a6>
 800351c:	f7ff fe40 	bl	80031a0 <DMA_CalcDMAMUXRequestGenBaseAndMask>
 8003520:	6ee3      	ldr	r3, [r4, #108]	; 0x6c
 8003522:	601d      	str	r5, [r3, #0]
 8003524:	e9d4 321c 	ldrd	r3, r2, [r4, #112]	; 0x70
 8003528:	605a      	str	r2, [r3, #4]
 800352a:	2000      	movs	r0, #0
 800352c:	2301      	movs	r3, #1
 800352e:	6560      	str	r0, [r4, #84]	; 0x54
 8003530:	f884 3035 	strb.w	r3, [r4, #53]	; 0x35
 8003534:	e77a      	b.n	800342c <HAL_DMA_Init+0x21c>
 8003536:	4a24      	ldr	r2, [pc, #144]	; (80035c8 <HAL_DMA_Init+0x3b8>)
 8003538:	4293      	cmp	r3, r2
 800353a:	f43f aea7 	beq.w	800328c <HAL_DMA_Init+0x7c>
 800353e:	3214      	adds	r2, #20
 8003540:	4293      	cmp	r3, r2
 8003542:	f43f aea3 	beq.w	800328c <HAL_DMA_Init+0x7c>
 8003546:	3214      	adds	r2, #20
 8003548:	4293      	cmp	r3, r2
 800354a:	f43f ae9f 	beq.w	800328c <HAL_DMA_Init+0x7c>
 800354e:	3214      	adds	r2, #20
 8003550:	4293      	cmp	r3, r2
 8003552:	f43f ae9b 	beq.w	800328c <HAL_DMA_Init+0x7c>
 8003556:	3214      	adds	r2, #20
 8003558:	4293      	cmp	r3, r2
 800355a:	f43f ae97 	beq.w	800328c <HAL_DMA_Init+0x7c>
 800355e:	3214      	adds	r2, #20
 8003560:	4293      	cmp	r3, r2
 8003562:	f43f ae93 	beq.w	800328c <HAL_DMA_Init+0x7c>
 8003566:	3214      	adds	r2, #20
 8003568:	4293      	cmp	r3, r2
 800356a:	f43f ae8f 	beq.w	800328c <HAL_DMA_Init+0x7c>
 800356e:	4a15      	ldr	r2, [pc, #84]	; (80035c4 <HAL_DMA_Init+0x3b4>)
 8003570:	4293      	cmp	r3, r2
 8003572:	f43f ae8b 	beq.w	800328c <HAL_DMA_Init+0x7c>
 8003576:	3214      	adds	r2, #20
 8003578:	4293      	cmp	r3, r2
 800357a:	f43f ae87 	beq.w	800328c <HAL_DMA_Init+0x7c>
 800357e:	3214      	adds	r2, #20
 8003580:	4293      	cmp	r3, r2
 8003582:	f43f ae83 	beq.w	800328c <HAL_DMA_Init+0x7c>
 8003586:	3214      	adds	r2, #20
 8003588:	4293      	cmp	r3, r2
 800358a:	f43f ae7f 	beq.w	800328c <HAL_DMA_Init+0x7c>
 800358e:	3214      	adds	r2, #20
 8003590:	4293      	cmp	r3, r2
 8003592:	f43f ae7b 	beq.w	800328c <HAL_DMA_Init+0x7c>
 8003596:	3214      	adds	r2, #20
 8003598:	4293      	cmp	r3, r2
 800359a:	f43f ae77 	beq.w	800328c <HAL_DMA_Init+0x7c>
 800359e:	3214      	adds	r2, #20
 80035a0:	4293      	cmp	r3, r2
 80035a2:	f43f ae73 	beq.w	800328c <HAL_DMA_Init+0x7c>
 80035a6:	3214      	adds	r2, #20
 80035a8:	4293      	cmp	r3, r2
 80035aa:	f43f ae6f 	beq.w	800328c <HAL_DMA_Init+0x7c>
 80035ae:	2340      	movs	r3, #64	; 0x40
 80035b0:	e716      	b.n	80033e0 <HAL_DMA_Init+0x1d0>
 80035b2:	2010      	movs	r0, #16
 80035b4:	e67e      	b.n	80032b4 <HAL_DMA_Init+0xa4>
 80035b6:	e9c4 551b 	strd	r5, r5, [r4, #108]	; 0x6c
 80035ba:	6765      	str	r5, [r4, #116]	; 0x74
 80035bc:	e7b5      	b.n	800352a <HAL_DMA_Init+0x31a>
 80035be:	bf00      	nop
 80035c0:	40020028 	.word	0x40020028
 80035c4:	58025408 	.word	0x58025408
 80035c8:	48022c1c 	.word	0x48022c1c

080035cc <HAL_DMA_Start_IT>:
 80035cc:	b570      	push	{r4, r5, r6, lr}
 80035ce:	2800      	cmp	r0, #0
 80035d0:	f000 810b 	beq.w	80037ea <HAL_DMA_Start_IT+0x21e>
 80035d4:	f890 4034 	ldrb.w	r4, [r0, #52]	; 0x34
 80035d8:	2c01      	cmp	r4, #1
 80035da:	f000 8108 	beq.w	80037ee <HAL_DMA_Start_IT+0x222>
 80035de:	2401      	movs	r4, #1
 80035e0:	f890 5035 	ldrb.w	r5, [r0, #53]	; 0x35
 80035e4:	42a5      	cmp	r5, r4
 80035e6:	f880 4034 	strb.w	r4, [r0, #52]	; 0x34
 80035ea:	f04f 0500 	mov.w	r5, #0
 80035ee:	f040 80f7 	bne.w	80037e0 <HAL_DMA_Start_IT+0x214>
 80035f2:	2402      	movs	r4, #2
 80035f4:	f880 4035 	strb.w	r4, [r0, #53]	; 0x35
 80035f8:	6804      	ldr	r4, [r0, #0]
 80035fa:	6545      	str	r5, [r0, #84]	; 0x54
 80035fc:	4d7d      	ldr	r5, [pc, #500]	; (80037f4 <HAL_DMA_Start_IT+0x228>)
 80035fe:	42ac      	cmp	r4, r5
 8003600:	d01e      	beq.n	8003640 <HAL_DMA_Start_IT+0x74>
 8003602:	4e7d      	ldr	r6, [pc, #500]	; (80037f8 <HAL_DMA_Start_IT+0x22c>)
 8003604:	42b4      	cmp	r4, r6
 8003606:	d01b      	beq.n	8003640 <HAL_DMA_Start_IT+0x74>
 8003608:	3618      	adds	r6, #24
 800360a:	42b4      	cmp	r4, r6
 800360c:	d018      	beq.n	8003640 <HAL_DMA_Start_IT+0x74>
 800360e:	3618      	adds	r6, #24
 8003610:	42b4      	cmp	r4, r6
 8003612:	d015      	beq.n	8003640 <HAL_DMA_Start_IT+0x74>
 8003614:	3618      	adds	r6, #24
 8003616:	42b4      	cmp	r4, r6
 8003618:	d012      	beq.n	8003640 <HAL_DMA_Start_IT+0x74>
 800361a:	3618      	adds	r6, #24
 800361c:	42b4      	cmp	r4, r6
 800361e:	d00f      	beq.n	8003640 <HAL_DMA_Start_IT+0x74>
 8003620:	3618      	adds	r6, #24
 8003622:	42b4      	cmp	r4, r6
 8003624:	d00c      	beq.n	8003640 <HAL_DMA_Start_IT+0x74>
 8003626:	3618      	adds	r6, #24
 8003628:	42b4      	cmp	r4, r6
 800362a:	d009      	beq.n	8003640 <HAL_DMA_Start_IT+0x74>
 800362c:	f506 7656 	add.w	r6, r6, #856	; 0x358
 8003630:	42b4      	cmp	r4, r6
 8003632:	d005      	beq.n	8003640 <HAL_DMA_Start_IT+0x74>
 8003634:	3618      	adds	r6, #24
 8003636:	42b4      	cmp	r4, r6
 8003638:	d002      	beq.n	8003640 <HAL_DMA_Start_IT+0x74>
 800363a:	3618      	adds	r6, #24
 800363c:	42b4      	cmp	r4, r6
 800363e:	d0ff      	beq.n	8003640 <HAL_DMA_Start_IT+0x74>
 8003640:	6826      	ldr	r6, [r4, #0]
 8003642:	f026 0601 	bic.w	r6, r6, #1
 8003646:	6026      	str	r6, [r4, #0]
 8003648:	f7ff fc38 	bl	8002ebc <DMA_SetConfig>
 800364c:	6803      	ldr	r3, [r0, #0]
 800364e:	6c01      	ldr	r1, [r0, #64]	; 0x40
 8003650:	42ab      	cmp	r3, r5
 8003652:	d053      	beq.n	80036fc <HAL_DMA_Start_IT+0x130>
 8003654:	4a68      	ldr	r2, [pc, #416]	; (80037f8 <HAL_DMA_Start_IT+0x22c>)
 8003656:	4293      	cmp	r3, r2
 8003658:	d050      	beq.n	80036fc <HAL_DMA_Start_IT+0x130>
 800365a:	3218      	adds	r2, #24
 800365c:	4293      	cmp	r3, r2
 800365e:	d04d      	beq.n	80036fc <HAL_DMA_Start_IT+0x130>
 8003660:	3218      	adds	r2, #24
 8003662:	4293      	cmp	r3, r2
 8003664:	d04a      	beq.n	80036fc <HAL_DMA_Start_IT+0x130>
 8003666:	3218      	adds	r2, #24
 8003668:	4293      	cmp	r3, r2
 800366a:	d047      	beq.n	80036fc <HAL_DMA_Start_IT+0x130>
 800366c:	3218      	adds	r2, #24
 800366e:	4293      	cmp	r3, r2
 8003670:	d044      	beq.n	80036fc <HAL_DMA_Start_IT+0x130>
 8003672:	3218      	adds	r2, #24
 8003674:	4293      	cmp	r3, r2
 8003676:	d041      	beq.n	80036fc <HAL_DMA_Start_IT+0x130>
 8003678:	3218      	adds	r2, #24
 800367a:	4293      	cmp	r3, r2
 800367c:	d03e      	beq.n	80036fc <HAL_DMA_Start_IT+0x130>
 800367e:	f502 7256 	add.w	r2, r2, #856	; 0x358
 8003682:	4293      	cmp	r3, r2
 8003684:	d03a      	beq.n	80036fc <HAL_DMA_Start_IT+0x130>
 8003686:	3218      	adds	r2, #24
 8003688:	4293      	cmp	r3, r2
 800368a:	d037      	beq.n	80036fc <HAL_DMA_Start_IT+0x130>
 800368c:	3218      	adds	r2, #24
 800368e:	4293      	cmp	r3, r2
 8003690:	d034      	beq.n	80036fc <HAL_DMA_Start_IT+0x130>
 8003692:	3218      	adds	r2, #24
 8003694:	4293      	cmp	r3, r2
 8003696:	d031      	beq.n	80036fc <HAL_DMA_Start_IT+0x130>
 8003698:	3218      	adds	r2, #24
 800369a:	4293      	cmp	r3, r2
 800369c:	d02e      	beq.n	80036fc <HAL_DMA_Start_IT+0x130>
 800369e:	3218      	adds	r2, #24
 80036a0:	4293      	cmp	r3, r2
 80036a2:	d02b      	beq.n	80036fc <HAL_DMA_Start_IT+0x130>
 80036a4:	3218      	adds	r2, #24
 80036a6:	4293      	cmp	r3, r2
 80036a8:	d028      	beq.n	80036fc <HAL_DMA_Start_IT+0x130>
 80036aa:	3218      	adds	r2, #24
 80036ac:	4293      	cmp	r3, r2
 80036ae:	d025      	beq.n	80036fc <HAL_DMA_Start_IT+0x130>
 80036b0:	681a      	ldr	r2, [r3, #0]
 80036b2:	f022 020e 	bic.w	r2, r2, #14
 80036b6:	f042 020a 	orr.w	r2, r2, #10
 80036ba:	601a      	str	r2, [r3, #0]
 80036bc:	2900      	cmp	r1, #0
 80036be:	d156      	bne.n	800376e <HAL_DMA_Start_IT+0x1a2>
 80036c0:	4a4e      	ldr	r2, [pc, #312]	; (80037fc <HAL_DMA_Start_IT+0x230>)
 80036c2:	4293      	cmp	r3, r2
 80036c4:	d027      	beq.n	8003716 <HAL_DMA_Start_IT+0x14a>
 80036c6:	4a4e      	ldr	r2, [pc, #312]	; (8003800 <HAL_DMA_Start_IT+0x234>)
 80036c8:	4293      	cmp	r3, r2
 80036ca:	d024      	beq.n	8003716 <HAL_DMA_Start_IT+0x14a>
 80036cc:	3214      	adds	r2, #20
 80036ce:	4293      	cmp	r3, r2
 80036d0:	d021      	beq.n	8003716 <HAL_DMA_Start_IT+0x14a>
 80036d2:	3214      	adds	r2, #20
 80036d4:	4293      	cmp	r3, r2
 80036d6:	d01e      	beq.n	8003716 <HAL_DMA_Start_IT+0x14a>
 80036d8:	3214      	adds	r2, #20
 80036da:	4293      	cmp	r3, r2
 80036dc:	d01b      	beq.n	8003716 <HAL_DMA_Start_IT+0x14a>
 80036de:	3214      	adds	r2, #20
 80036e0:	4293      	cmp	r3, r2
 80036e2:	d018      	beq.n	8003716 <HAL_DMA_Start_IT+0x14a>
 80036e4:	3214      	adds	r2, #20
 80036e6:	4293      	cmp	r3, r2
 80036e8:	d015      	beq.n	8003716 <HAL_DMA_Start_IT+0x14a>
 80036ea:	3214      	adds	r2, #20
 80036ec:	4293      	cmp	r3, r2
 80036ee:	d012      	beq.n	8003716 <HAL_DMA_Start_IT+0x14a>
 80036f0:	681a      	ldr	r2, [r3, #0]
 80036f2:	2000      	movs	r0, #0
 80036f4:	f042 0201 	orr.w	r2, r2, #1
 80036f8:	601a      	str	r2, [r3, #0]
 80036fa:	bd70      	pop	{r4, r5, r6, pc}
 80036fc:	681a      	ldr	r2, [r3, #0]
 80036fe:	f022 021e 	bic.w	r2, r2, #30
 8003702:	f042 0216 	orr.w	r2, r2, #22
 8003706:	601a      	str	r2, [r3, #0]
 8003708:	b119      	cbz	r1, 8003712 <HAL_DMA_Start_IT+0x146>
 800370a:	681a      	ldr	r2, [r3, #0]
 800370c:	f042 0208 	orr.w	r2, r2, #8
 8003710:	601a      	str	r2, [r3, #0]
 8003712:	42ab      	cmp	r3, r5
 8003714:	d130      	bne.n	8003778 <HAL_DMA_Start_IT+0x1ac>
 8003716:	6e02      	ldr	r2, [r0, #96]	; 0x60
 8003718:	6811      	ldr	r1, [r2, #0]
 800371a:	03c9      	lsls	r1, r1, #15
 800371c:	d45b      	bmi.n	80037d6 <HAL_DMA_Start_IT+0x20a>
 800371e:	6ec2      	ldr	r2, [r0, #108]	; 0x6c
 8003720:	b11a      	cbz	r2, 800372a <HAL_DMA_Start_IT+0x15e>
 8003722:	6811      	ldr	r1, [r2, #0]
 8003724:	f441 7180 	orr.w	r1, r1, #256	; 0x100
 8003728:	6011      	str	r1, [r2, #0]
 800372a:	42ab      	cmp	r3, r5
 800372c:	d0e0      	beq.n	80036f0 <HAL_DMA_Start_IT+0x124>
 800372e:	4a32      	ldr	r2, [pc, #200]	; (80037f8 <HAL_DMA_Start_IT+0x22c>)
 8003730:	4293      	cmp	r3, r2
 8003732:	d0dd      	beq.n	80036f0 <HAL_DMA_Start_IT+0x124>
 8003734:	3218      	adds	r2, #24
 8003736:	4293      	cmp	r3, r2
 8003738:	d0da      	beq.n	80036f0 <HAL_DMA_Start_IT+0x124>
 800373a:	3218      	adds	r2, #24
 800373c:	4293      	cmp	r3, r2
 800373e:	d0d7      	beq.n	80036f0 <HAL_DMA_Start_IT+0x124>
 8003740:	3218      	adds	r2, #24
 8003742:	4293      	cmp	r3, r2
 8003744:	d0d4      	beq.n	80036f0 <HAL_DMA_Start_IT+0x124>
 8003746:	3218      	adds	r2, #24
 8003748:	4293      	cmp	r3, r2
 800374a:	d0d1      	beq.n	80036f0 <HAL_DMA_Start_IT+0x124>
 800374c:	3218      	adds	r2, #24
 800374e:	4293      	cmp	r3, r2
 8003750:	d0ce      	beq.n	80036f0 <HAL_DMA_Start_IT+0x124>
 8003752:	3218      	adds	r2, #24
 8003754:	4293      	cmp	r3, r2
 8003756:	d0cb      	beq.n	80036f0 <HAL_DMA_Start_IT+0x124>
 8003758:	f502 7256 	add.w	r2, r2, #856	; 0x358
 800375c:	4293      	cmp	r3, r2
 800375e:	d0c7      	beq.n	80036f0 <HAL_DMA_Start_IT+0x124>
 8003760:	3218      	adds	r2, #24
 8003762:	4293      	cmp	r3, r2
 8003764:	d0c4      	beq.n	80036f0 <HAL_DMA_Start_IT+0x124>
 8003766:	3218      	adds	r2, #24
 8003768:	4293      	cmp	r3, r2
 800376a:	d0c1      	beq.n	80036f0 <HAL_DMA_Start_IT+0x124>
 800376c:	e7c0      	b.n	80036f0 <HAL_DMA_Start_IT+0x124>
 800376e:	681a      	ldr	r2, [r3, #0]
 8003770:	f042 0204 	orr.w	r2, r2, #4
 8003774:	601a      	str	r2, [r3, #0]
 8003776:	e7a3      	b.n	80036c0 <HAL_DMA_Start_IT+0xf4>
 8003778:	4a1f      	ldr	r2, [pc, #124]	; (80037f8 <HAL_DMA_Start_IT+0x22c>)
 800377a:	4293      	cmp	r3, r2
 800377c:	d0cb      	beq.n	8003716 <HAL_DMA_Start_IT+0x14a>
 800377e:	3218      	adds	r2, #24
 8003780:	4293      	cmp	r3, r2
 8003782:	d0c8      	beq.n	8003716 <HAL_DMA_Start_IT+0x14a>
 8003784:	3218      	adds	r2, #24
 8003786:	4293      	cmp	r3, r2
 8003788:	d0c5      	beq.n	8003716 <HAL_DMA_Start_IT+0x14a>
 800378a:	3218      	adds	r2, #24
 800378c:	4293      	cmp	r3, r2
 800378e:	d0c2      	beq.n	8003716 <HAL_DMA_Start_IT+0x14a>
 8003790:	3218      	adds	r2, #24
 8003792:	4293      	cmp	r3, r2
 8003794:	d0bf      	beq.n	8003716 <HAL_DMA_Start_IT+0x14a>
 8003796:	3218      	adds	r2, #24
 8003798:	4293      	cmp	r3, r2
 800379a:	d0bc      	beq.n	8003716 <HAL_DMA_Start_IT+0x14a>
 800379c:	3218      	adds	r2, #24
 800379e:	4293      	cmp	r3, r2
 80037a0:	d0b9      	beq.n	8003716 <HAL_DMA_Start_IT+0x14a>
 80037a2:	f502 7256 	add.w	r2, r2, #856	; 0x358
 80037a6:	4293      	cmp	r3, r2
 80037a8:	d0b5      	beq.n	8003716 <HAL_DMA_Start_IT+0x14a>
 80037aa:	3218      	adds	r2, #24
 80037ac:	4293      	cmp	r3, r2
 80037ae:	d0b2      	beq.n	8003716 <HAL_DMA_Start_IT+0x14a>
 80037b0:	3218      	adds	r2, #24
 80037b2:	4293      	cmp	r3, r2
 80037b4:	d0af      	beq.n	8003716 <HAL_DMA_Start_IT+0x14a>
 80037b6:	3218      	adds	r2, #24
 80037b8:	4293      	cmp	r3, r2
 80037ba:	d0ac      	beq.n	8003716 <HAL_DMA_Start_IT+0x14a>
 80037bc:	3218      	adds	r2, #24
 80037be:	4293      	cmp	r3, r2
 80037c0:	d0a9      	beq.n	8003716 <HAL_DMA_Start_IT+0x14a>
 80037c2:	3218      	adds	r2, #24
 80037c4:	4293      	cmp	r3, r2
 80037c6:	d0a6      	beq.n	8003716 <HAL_DMA_Start_IT+0x14a>
 80037c8:	3218      	adds	r2, #24
 80037ca:	4293      	cmp	r3, r2
 80037cc:	d0a3      	beq.n	8003716 <HAL_DMA_Start_IT+0x14a>
 80037ce:	3218      	adds	r2, #24
 80037d0:	4293      	cmp	r3, r2
 80037d2:	d0a0      	beq.n	8003716 <HAL_DMA_Start_IT+0x14a>
 80037d4:	e774      	b.n	80036c0 <HAL_DMA_Start_IT+0xf4>
 80037d6:	6811      	ldr	r1, [r2, #0]
 80037d8:	f441 7180 	orr.w	r1, r1, #256	; 0x100
 80037dc:	6011      	str	r1, [r2, #0]
 80037de:	e79e      	b.n	800371e <HAL_DMA_Start_IT+0x152>
 80037e0:	f44f 6300 	mov.w	r3, #2048	; 0x800
 80037e4:	f880 5034 	strb.w	r5, [r0, #52]	; 0x34
 80037e8:	6543      	str	r3, [r0, #84]	; 0x54
 80037ea:	2001      	movs	r0, #1
 80037ec:	e785      	b.n	80036fa <HAL_DMA_Start_IT+0x12e>
 80037ee:	2002      	movs	r0, #2
 80037f0:	e783      	b.n	80036fa <HAL_DMA_Start_IT+0x12e>
 80037f2:	bf00      	nop
 80037f4:	40020010 	.word	0x40020010
 80037f8:	40020028 	.word	0x40020028
 80037fc:	58025408 	.word	0x58025408
 8003800:	5802541c 	.word	0x5802541c

08003804 <HAL_DMA_Abort>:
 8003804:	b5f8      	push	{r3, r4, r5, r6, r7, lr}
 8003806:	4605      	mov	r5, r0
 8003808:	f7ff f950 	bl	8002aac <HAL_GetTick>
 800380c:	4607      	mov	r7, r0
 800380e:	b145      	cbz	r5, 8003822 <HAL_DMA_Abort+0x1e>
 8003810:	f895 3035 	ldrb.w	r3, [r5, #53]	; 0x35
 8003814:	2b02      	cmp	r3, #2
 8003816:	d006      	beq.n	8003826 <HAL_DMA_Abort+0x22>
 8003818:	2380      	movs	r3, #128	; 0x80
 800381a:	656b      	str	r3, [r5, #84]	; 0x54
 800381c:	2300      	movs	r3, #0
 800381e:	f885 3034 	strb.w	r3, [r5, #52]	; 0x34
 8003822:	2001      	movs	r0, #1
 8003824:	e153      	b.n	8003ace <HAL_DMA_Abort+0x2ca>
 8003826:	682c      	ldr	r4, [r5, #0]
 8003828:	4ea9      	ldr	r6, [pc, #676]	; (8003ad0 <HAL_DMA_Abort+0x2cc>)
 800382a:	42b4      	cmp	r4, r6
 800382c:	d04a      	beq.n	80038c4 <HAL_DMA_Abort+0xc0>
 800382e:	4ba9      	ldr	r3, [pc, #676]	; (8003ad4 <HAL_DMA_Abort+0x2d0>)
 8003830:	429c      	cmp	r4, r3
 8003832:	d047      	beq.n	80038c4 <HAL_DMA_Abort+0xc0>
 8003834:	3318      	adds	r3, #24
 8003836:	429c      	cmp	r4, r3
 8003838:	d044      	beq.n	80038c4 <HAL_DMA_Abort+0xc0>
 800383a:	3318      	adds	r3, #24
 800383c:	429c      	cmp	r4, r3
 800383e:	d041      	beq.n	80038c4 <HAL_DMA_Abort+0xc0>
 8003840:	3318      	adds	r3, #24
 8003842:	429c      	cmp	r4, r3
 8003844:	d03e      	beq.n	80038c4 <HAL_DMA_Abort+0xc0>
 8003846:	3318      	adds	r3, #24
 8003848:	429c      	cmp	r4, r3
 800384a:	d03b      	beq.n	80038c4 <HAL_DMA_Abort+0xc0>
 800384c:	3318      	adds	r3, #24
 800384e:	429c      	cmp	r4, r3
 8003850:	d038      	beq.n	80038c4 <HAL_DMA_Abort+0xc0>
 8003852:	3318      	adds	r3, #24
 8003854:	429c      	cmp	r4, r3
 8003856:	d035      	beq.n	80038c4 <HAL_DMA_Abort+0xc0>
 8003858:	f503 7356 	add.w	r3, r3, #856	; 0x358
 800385c:	429c      	cmp	r4, r3
 800385e:	d031      	beq.n	80038c4 <HAL_DMA_Abort+0xc0>
 8003860:	3318      	adds	r3, #24
 8003862:	429c      	cmp	r4, r3
 8003864:	d02e      	beq.n	80038c4 <HAL_DMA_Abort+0xc0>
 8003866:	3318      	adds	r3, #24
 8003868:	429c      	cmp	r4, r3
 800386a:	d02b      	beq.n	80038c4 <HAL_DMA_Abort+0xc0>
 800386c:	3318      	adds	r3, #24
 800386e:	429c      	cmp	r4, r3
 8003870:	d028      	beq.n	80038c4 <HAL_DMA_Abort+0xc0>
 8003872:	3318      	adds	r3, #24
 8003874:	429c      	cmp	r4, r3
 8003876:	d025      	beq.n	80038c4 <HAL_DMA_Abort+0xc0>
 8003878:	3318      	adds	r3, #24
 800387a:	429c      	cmp	r4, r3
 800387c:	d022      	beq.n	80038c4 <HAL_DMA_Abort+0xc0>
 800387e:	3318      	adds	r3, #24
 8003880:	429c      	cmp	r4, r3
 8003882:	d01f      	beq.n	80038c4 <HAL_DMA_Abort+0xc0>
 8003884:	3318      	adds	r3, #24
 8003886:	429c      	cmp	r4, r3
 8003888:	d01c      	beq.n	80038c4 <HAL_DMA_Abort+0xc0>
 800388a:	6823      	ldr	r3, [r4, #0]
 800388c:	f023 030e 	bic.w	r3, r3, #14
 8003890:	6023      	str	r3, [r4, #0]
 8003892:	4b91      	ldr	r3, [pc, #580]	; (8003ad8 <HAL_DMA_Abort+0x2d4>)
 8003894:	429c      	cmp	r4, r3
 8003896:	d01f      	beq.n	80038d8 <HAL_DMA_Abort+0xd4>
 8003898:	3314      	adds	r3, #20
 800389a:	429c      	cmp	r4, r3
 800389c:	d01c      	beq.n	80038d8 <HAL_DMA_Abort+0xd4>
 800389e:	3314      	adds	r3, #20
 80038a0:	429c      	cmp	r4, r3
 80038a2:	d019      	beq.n	80038d8 <HAL_DMA_Abort+0xd4>
 80038a4:	3314      	adds	r3, #20
 80038a6:	429c      	cmp	r4, r3
 80038a8:	d016      	beq.n	80038d8 <HAL_DMA_Abort+0xd4>
 80038aa:	3314      	adds	r3, #20
 80038ac:	429c      	cmp	r4, r3
 80038ae:	d013      	beq.n	80038d8 <HAL_DMA_Abort+0xd4>
 80038b0:	3314      	adds	r3, #20
 80038b2:	429c      	cmp	r4, r3
 80038b4:	d010      	beq.n	80038d8 <HAL_DMA_Abort+0xd4>
 80038b6:	3314      	adds	r3, #20
 80038b8:	429c      	cmp	r4, r3
 80038ba:	d00d      	beq.n	80038d8 <HAL_DMA_Abort+0xd4>
 80038bc:	3314      	adds	r3, #20
 80038be:	429c      	cmp	r4, r3
 80038c0:	d112      	bne.n	80038e8 <HAL_DMA_Abort+0xe4>
 80038c2:	e009      	b.n	80038d8 <HAL_DMA_Abort+0xd4>
 80038c4:	6823      	ldr	r3, [r4, #0]
 80038c6:	42b4      	cmp	r4, r6
 80038c8:	f023 031e 	bic.w	r3, r3, #30
 80038cc:	6023      	str	r3, [r4, #0]
 80038ce:	6963      	ldr	r3, [r4, #20]
 80038d0:	f023 0380 	bic.w	r3, r3, #128	; 0x80
 80038d4:	6163      	str	r3, [r4, #20]
 80038d6:	d176      	bne.n	80039c6 <HAL_DMA_Abort+0x1c2>
 80038d8:	6e2a      	ldr	r2, [r5, #96]	; 0x60
 80038da:	42b4      	cmp	r4, r6
 80038dc:	6813      	ldr	r3, [r2, #0]
 80038de:	f423 7380 	bic.w	r3, r3, #256	; 0x100
 80038e2:	6013      	str	r3, [r2, #0]
 80038e4:	f040 80ab 	bne.w	8003a3e <HAL_DMA_Abort+0x23a>
 80038e8:	6823      	ldr	r3, [r4, #0]
 80038ea:	f023 0301 	bic.w	r3, r3, #1
 80038ee:	6023      	str	r3, [r4, #0]
 80038f0:	6823      	ldr	r3, [r4, #0]
 80038f2:	07db      	lsls	r3, r3, #31
 80038f4:	f100 80cd 	bmi.w	8003a92 <HAL_DMA_Abort+0x28e>
 80038f8:	682b      	ldr	r3, [r5, #0]
 80038fa:	6dea      	ldr	r2, [r5, #92]	; 0x5c
 80038fc:	42b3      	cmp	r3, r6
 80038fe:	6da8      	ldr	r0, [r5, #88]	; 0x58
 8003900:	f002 021f 	and.w	r2, r2, #31
 8003904:	f000 80d1 	beq.w	8003aaa <HAL_DMA_Abort+0x2a6>
 8003908:	4972      	ldr	r1, [pc, #456]	; (8003ad4 <HAL_DMA_Abort+0x2d0>)
 800390a:	428b      	cmp	r3, r1
 800390c:	f000 80cd 	beq.w	8003aaa <HAL_DMA_Abort+0x2a6>
 8003910:	3118      	adds	r1, #24
 8003912:	428b      	cmp	r3, r1
 8003914:	f000 80c9 	beq.w	8003aaa <HAL_DMA_Abort+0x2a6>
 8003918:	3118      	adds	r1, #24
 800391a:	428b      	cmp	r3, r1
 800391c:	f000 80c5 	beq.w	8003aaa <HAL_DMA_Abort+0x2a6>
 8003920:	3118      	adds	r1, #24
 8003922:	428b      	cmp	r3, r1
 8003924:	f000 80c1 	beq.w	8003aaa <HAL_DMA_Abort+0x2a6>
 8003928:	3118      	adds	r1, #24
 800392a:	428b      	cmp	r3, r1
 800392c:	f000 80bd 	beq.w	8003aaa <HAL_DMA_Abort+0x2a6>
 8003930:	3118      	adds	r1, #24
 8003932:	428b      	cmp	r3, r1
 8003934:	f000 80b9 	beq.w	8003aaa <HAL_DMA_Abort+0x2a6>
 8003938:	3118      	adds	r1, #24
 800393a:	428b      	cmp	r3, r1
 800393c:	f000 80b5 	beq.w	8003aaa <HAL_DMA_Abort+0x2a6>
 8003940:	f501 7156 	add.w	r1, r1, #856	; 0x358
 8003944:	428b      	cmp	r3, r1
 8003946:	f000 80b0 	beq.w	8003aaa <HAL_DMA_Abort+0x2a6>
 800394a:	3118      	adds	r1, #24
 800394c:	428b      	cmp	r3, r1
 800394e:	f000 80ac 	beq.w	8003aaa <HAL_DMA_Abort+0x2a6>
 8003952:	3118      	adds	r1, #24
 8003954:	428b      	cmp	r3, r1
 8003956:	f000 80a8 	beq.w	8003aaa <HAL_DMA_Abort+0x2a6>
 800395a:	3118      	adds	r1, #24
 800395c:	428b      	cmp	r3, r1
 800395e:	f000 80a4 	beq.w	8003aaa <HAL_DMA_Abort+0x2a6>
 8003962:	3118      	adds	r1, #24
 8003964:	428b      	cmp	r3, r1
 8003966:	f000 80a0 	beq.w	8003aaa <HAL_DMA_Abort+0x2a6>
 800396a:	3118      	adds	r1, #24
 800396c:	428b      	cmp	r3, r1
 800396e:	f000 809c 	beq.w	8003aaa <HAL_DMA_Abort+0x2a6>
 8003972:	3118      	adds	r1, #24
 8003974:	428b      	cmp	r3, r1
 8003976:	f000 8098 	beq.w	8003aaa <HAL_DMA_Abort+0x2a6>
 800397a:	3118      	adds	r1, #24
 800397c:	428b      	cmp	r3, r1
 800397e:	f000 8094 	beq.w	8003aaa <HAL_DMA_Abort+0x2a6>
 8003982:	2101      	movs	r1, #1
 8003984:	fa01 f202 	lsl.w	r2, r1, r2
 8003988:	6042      	str	r2, [r0, #4]
 800398a:	4a53      	ldr	r2, [pc, #332]	; (8003ad8 <HAL_DMA_Abort+0x2d4>)
 800398c:	4293      	cmp	r3, r2
 800398e:	f000 8092 	beq.w	8003ab6 <HAL_DMA_Abort+0x2b2>
 8003992:	3214      	adds	r2, #20
 8003994:	4293      	cmp	r3, r2
 8003996:	f000 808e 	beq.w	8003ab6 <HAL_DMA_Abort+0x2b2>
 800399a:	3214      	adds	r2, #20
 800399c:	4293      	cmp	r3, r2
 800399e:	f000 808a 	beq.w	8003ab6 <HAL_DMA_Abort+0x2b2>
 80039a2:	3214      	adds	r2, #20
 80039a4:	4293      	cmp	r3, r2
 80039a6:	f000 8086 	beq.w	8003ab6 <HAL_DMA_Abort+0x2b2>
 80039aa:	3214      	adds	r2, #20
 80039ac:	4293      	cmp	r3, r2
 80039ae:	f000 8082 	beq.w	8003ab6 <HAL_DMA_Abort+0x2b2>
 80039b2:	3214      	adds	r2, #20
 80039b4:	4293      	cmp	r3, r2
 80039b6:	d07e      	beq.n	8003ab6 <HAL_DMA_Abort+0x2b2>
 80039b8:	3214      	adds	r2, #20
 80039ba:	4293      	cmp	r3, r2
 80039bc:	d07b      	beq.n	8003ab6 <HAL_DMA_Abort+0x2b2>
 80039be:	3214      	adds	r2, #20
 80039c0:	4293      	cmp	r3, r2
 80039c2:	d17e      	bne.n	8003ac2 <HAL_DMA_Abort+0x2be>
 80039c4:	e077      	b.n	8003ab6 <HAL_DMA_Abort+0x2b2>
 80039c6:	4b43      	ldr	r3, [pc, #268]	; (8003ad4 <HAL_DMA_Abort+0x2d0>)
 80039c8:	429c      	cmp	r4, r3
 80039ca:	d085      	beq.n	80038d8 <HAL_DMA_Abort+0xd4>
 80039cc:	3318      	adds	r3, #24
 80039ce:	429c      	cmp	r4, r3
 80039d0:	d082      	beq.n	80038d8 <HAL_DMA_Abort+0xd4>
 80039d2:	3318      	adds	r3, #24
 80039d4:	429c      	cmp	r4, r3
 80039d6:	f43f af7f 	beq.w	80038d8 <HAL_DMA_Abort+0xd4>
 80039da:	3318      	adds	r3, #24
 80039dc:	429c      	cmp	r4, r3
 80039de:	f43f af7b 	beq.w	80038d8 <HAL_DMA_Abort+0xd4>
 80039e2:	3318      	adds	r3, #24
 80039e4:	429c      	cmp	r4, r3
 80039e6:	f43f af77 	beq.w	80038d8 <HAL_DMA_Abort+0xd4>
 80039ea:	3318      	adds	r3, #24
 80039ec:	429c      	cmp	r4, r3
 80039ee:	f43f af73 	beq.w	80038d8 <HAL_DMA_Abort+0xd4>
 80039f2:	3318      	adds	r3, #24
 80039f4:	429c      	cmp	r4, r3
 80039f6:	f43f af6f 	beq.w	80038d8 <HAL_DMA_Abort+0xd4>
 80039fa:	f503 7356 	add.w	r3, r3, #856	; 0x358
 80039fe:	429c      	cmp	r4, r3
 8003a00:	f43f af6a 	beq.w	80038d8 <HAL_DMA_Abort+0xd4>
 8003a04:	3318      	adds	r3, #24
 8003a06:	429c      	cmp	r4, r3
 8003a08:	f43f af66 	beq.w	80038d8 <HAL_DMA_Abort+0xd4>
 8003a0c:	3318      	adds	r3, #24
 8003a0e:	429c      	cmp	r4, r3
 8003a10:	f43f af62 	beq.w	80038d8 <HAL_DMA_Abort+0xd4>
 8003a14:	3318      	adds	r3, #24
 8003a16:	429c      	cmp	r4, r3
 8003a18:	f43f af5e 	beq.w	80038d8 <HAL_DMA_Abort+0xd4>
 8003a1c:	3318      	adds	r3, #24
 8003a1e:	429c      	cmp	r4, r3
 8003a20:	f43f af5a 	beq.w	80038d8 <HAL_DMA_Abort+0xd4>
 8003a24:	3318      	adds	r3, #24
 8003a26:	429c      	cmp	r4, r3
 8003a28:	f43f af56 	beq.w	80038d8 <HAL_DMA_Abort+0xd4>
 8003a2c:	3318      	adds	r3, #24
 8003a2e:	429c      	cmp	r4, r3
 8003a30:	f43f af52 	beq.w	80038d8 <HAL_DMA_Abort+0xd4>
 8003a34:	3318      	adds	r3, #24
 8003a36:	429c      	cmp	r4, r3
 8003a38:	f43f af4e 	beq.w	80038d8 <HAL_DMA_Abort+0xd4>
 8003a3c:	e729      	b.n	8003892 <HAL_DMA_Abort+0x8e>
 8003a3e:	4b25      	ldr	r3, [pc, #148]	; (8003ad4 <HAL_DMA_Abort+0x2d0>)
 8003a40:	429c      	cmp	r4, r3
 8003a42:	f43f af51 	beq.w	80038e8 <HAL_DMA_Abort+0xe4>
 8003a46:	3318      	adds	r3, #24
 8003a48:	429c      	cmp	r4, r3
 8003a4a:	f43f af4d 	beq.w	80038e8 <HAL_DMA_Abort+0xe4>
 8003a4e:	3318      	adds	r3, #24
 8003a50:	429c      	cmp	r4, r3
 8003a52:	f43f af49 	beq.w	80038e8 <HAL_DMA_Abort+0xe4>
 8003a56:	3318      	adds	r3, #24
 8003a58:	429c      	cmp	r4, r3
 8003a5a:	f43f af45 	beq.w	80038e8 <HAL_DMA_Abort+0xe4>
 8003a5e:	3318      	adds	r3, #24
 8003a60:	429c      	cmp	r4, r3
 8003a62:	f43f af41 	beq.w	80038e8 <HAL_DMA_Abort+0xe4>
 8003a66:	3318      	adds	r3, #24
 8003a68:	429c      	cmp	r4, r3
 8003a6a:	f43f af3d 	beq.w	80038e8 <HAL_DMA_Abort+0xe4>
 8003a6e:	3318      	adds	r3, #24
 8003a70:	429c      	cmp	r4, r3
 8003a72:	f43f af39 	beq.w	80038e8 <HAL_DMA_Abort+0xe4>
 8003a76:	f503 7356 	add.w	r3, r3, #856	; 0x358
 8003a7a:	429c      	cmp	r4, r3
 8003a7c:	f43f af34 	beq.w	80038e8 <HAL_DMA_Abort+0xe4>
 8003a80:	3318      	adds	r3, #24
 8003a82:	429c      	cmp	r4, r3
 8003a84:	f43f af30 	beq.w	80038e8 <HAL_DMA_Abort+0xe4>
 8003a88:	3318      	adds	r3, #24
 8003a8a:	429c      	cmp	r4, r3
 8003a8c:	f43f af2c 	beq.w	80038e8 <HAL_DMA_Abort+0xe4>
 8003a90:	e72a      	b.n	80038e8 <HAL_DMA_Abort+0xe4>
 8003a92:	f7ff f80b 	bl	8002aac <HAL_GetTick>
 8003a96:	1bc0      	subs	r0, r0, r7
 8003a98:	2805      	cmp	r0, #5
 8003a9a:	f67f af29 	bls.w	80038f0 <HAL_DMA_Abort+0xec>
 8003a9e:	2320      	movs	r3, #32
 8003aa0:	656b      	str	r3, [r5, #84]	; 0x54
 8003aa2:	2303      	movs	r3, #3
 8003aa4:	f885 3035 	strb.w	r3, [r5, #53]	; 0x35
 8003aa8:	e6b8      	b.n	800381c <HAL_DMA_Abort+0x18>
 8003aaa:	213f      	movs	r1, #63	; 0x3f
 8003aac:	42b3      	cmp	r3, r6
 8003aae:	fa01 f202 	lsl.w	r2, r1, r2
 8003ab2:	6082      	str	r2, [r0, #8]
 8003ab4:	d112      	bne.n	8003adc <HAL_DMA_Abort+0x2d8>
 8003ab6:	e9d5 3219 	ldrd	r3, r2, [r5, #100]	; 0x64
 8003aba:	605a      	str	r2, [r3, #4]
 8003abc:	6eeb      	ldr	r3, [r5, #108]	; 0x6c
 8003abe:	2b00      	cmp	r3, #0
 8003ac0:	d13b      	bne.n	8003b3a <HAL_DMA_Abort+0x336>
 8003ac2:	2301      	movs	r3, #1
 8003ac4:	2000      	movs	r0, #0
 8003ac6:	f885 3035 	strb.w	r3, [r5, #53]	; 0x35
 8003aca:	f885 0034 	strb.w	r0, [r5, #52]	; 0x34
 8003ace:	bdf8      	pop	{r3, r4, r5, r6, r7, pc}
 8003ad0:	40020010 	.word	0x40020010
 8003ad4:	40020028 	.word	0x40020028
 8003ad8:	58025408 	.word	0x58025408
 8003adc:	4a1b      	ldr	r2, [pc, #108]	; (8003b4c <HAL_DMA_Abort+0x348>)
 8003ade:	4293      	cmp	r3, r2
 8003ae0:	d0e9      	beq.n	8003ab6 <HAL_DMA_Abort+0x2b2>
 8003ae2:	3218      	adds	r2, #24
 8003ae4:	4293      	cmp	r3, r2
 8003ae6:	d0e6      	beq.n	8003ab6 <HAL_DMA_Abort+0x2b2>
 8003ae8:	3218      	adds	r2, #24
 8003aea:	4293      	cmp	r3, r2
 8003aec:	d0e3      	beq.n	8003ab6 <HAL_DMA_Abort+0x2b2>
 8003aee:	3218      	adds	r2, #24
 8003af0:	4293      	cmp	r3, r2
 8003af2:	d0e0      	beq.n	8003ab6 <HAL_DMA_Abort+0x2b2>
 8003af4:	3218      	adds	r2, #24
 8003af6:	4293      	cmp	r3, r2
 8003af8:	d0dd      	beq.n	8003ab6 <HAL_DMA_Abort+0x2b2>
 8003afa:	3218      	adds	r2, #24
 8003afc:	4293      	cmp	r3, r2
 8003afe:	d0da      	beq.n	8003ab6 <HAL_DMA_Abort+0x2b2>
 8003b00:	3218      	adds	r2, #24
 8003b02:	4293      	cmp	r3, r2
 8003b04:	d0d7      	beq.n	8003ab6 <HAL_DMA_Abort+0x2b2>
 8003b06:	f502 7256 	add.w	r2, r2, #856	; 0x358
 8003b0a:	4293      	cmp	r3, r2
 8003b0c:	d0d3      	beq.n	8003ab6 <HAL_DMA_Abort+0x2b2>
 8003b0e:	3218      	adds	r2, #24
 8003b10:	4293      	cmp	r3, r2
 8003b12:	d0d0      	beq.n	8003ab6 <HAL_DMA_Abort+0x2b2>
 8003b14:	3218      	adds	r2, #24
 8003b16:	4293      	cmp	r3, r2
 8003b18:	d0cd      	beq.n	8003ab6 <HAL_DMA_Abort+0x2b2>
 8003b1a:	3218      	adds	r2, #24
 8003b1c:	4293      	cmp	r3, r2
 8003b1e:	d0ca      	beq.n	8003ab6 <HAL_DMA_Abort+0x2b2>
 8003b20:	3218      	adds	r2, #24
 8003b22:	4293      	cmp	r3, r2
 8003b24:	d0c7      	beq.n	8003ab6 <HAL_DMA_Abort+0x2b2>
 8003b26:	3218      	adds	r2, #24
 8003b28:	4293      	cmp	r3, r2
 8003b2a:	d0c4      	beq.n	8003ab6 <HAL_DMA_Abort+0x2b2>
 8003b2c:	3218      	adds	r2, #24
 8003b2e:	4293      	cmp	r3, r2
 8003b30:	d0c1      	beq.n	8003ab6 <HAL_DMA_Abort+0x2b2>
 8003b32:	3218      	adds	r2, #24
 8003b34:	4293      	cmp	r3, r2
 8003b36:	d0be      	beq.n	8003ab6 <HAL_DMA_Abort+0x2b2>
 8003b38:	e727      	b.n	800398a <HAL_DMA_Abort+0x186>
 8003b3a:	681a      	ldr	r2, [r3, #0]
 8003b3c:	f422 7280 	bic.w	r2, r2, #256	; 0x100
 8003b40:	601a      	str	r2, [r3, #0]
 8003b42:	e9d5 321c 	ldrd	r3, r2, [r5, #112]	; 0x70
 8003b46:	605a      	str	r2, [r3, #4]
 8003b48:	e7bb      	b.n	8003ac2 <HAL_DMA_Abort+0x2be>
 8003b4a:	bf00      	nop
 8003b4c:	40020028 	.word	0x40020028

08003b50 <HAL_DMA_Abort_IT>:
 8003b50:	b510      	push	{r4, lr}
 8003b52:	b128      	cbz	r0, 8003b60 <HAL_DMA_Abort_IT+0x10>
 8003b54:	f890 3035 	ldrb.w	r3, [r0, #53]	; 0x35
 8003b58:	2b02      	cmp	r3, #2
 8003b5a:	d003      	beq.n	8003b64 <HAL_DMA_Abort_IT+0x14>
 8003b5c:	2380      	movs	r3, #128	; 0x80
 8003b5e:	6543      	str	r3, [r0, #84]	; 0x54
 8003b60:	2001      	movs	r0, #1
 8003b62:	e07f      	b.n	8003c64 <HAL_DMA_Abort_IT+0x114>
 8003b64:	6803      	ldr	r3, [r0, #0]
 8003b66:	4a50      	ldr	r2, [pc, #320]	; (8003ca8 <HAL_DMA_Abort_IT+0x158>)
 8003b68:	4293      	cmp	r3, r2
 8003b6a:	d052      	beq.n	8003c12 <HAL_DMA_Abort_IT+0xc2>
 8003b6c:	494f      	ldr	r1, [pc, #316]	; (8003cac <HAL_DMA_Abort_IT+0x15c>)
 8003b6e:	428b      	cmp	r3, r1
 8003b70:	d04f      	beq.n	8003c12 <HAL_DMA_Abort_IT+0xc2>
 8003b72:	3118      	adds	r1, #24
 8003b74:	428b      	cmp	r3, r1
 8003b76:	d04c      	beq.n	8003c12 <HAL_DMA_Abort_IT+0xc2>
 8003b78:	3118      	adds	r1, #24
 8003b7a:	428b      	cmp	r3, r1
 8003b7c:	d049      	beq.n	8003c12 <HAL_DMA_Abort_IT+0xc2>
 8003b7e:	3118      	adds	r1, #24
 8003b80:	428b      	cmp	r3, r1
 8003b82:	d046      	beq.n	8003c12 <HAL_DMA_Abort_IT+0xc2>
 8003b84:	3118      	adds	r1, #24
 8003b86:	428b      	cmp	r3, r1
 8003b88:	d043      	beq.n	8003c12 <HAL_DMA_Abort_IT+0xc2>
 8003b8a:	3118      	adds	r1, #24
 8003b8c:	428b      	cmp	r3, r1
 8003b8e:	d040      	beq.n	8003c12 <HAL_DMA_Abort_IT+0xc2>
 8003b90:	3118      	adds	r1, #24
 8003b92:	428b      	cmp	r3, r1
 8003b94:	d03d      	beq.n	8003c12 <HAL_DMA_Abort_IT+0xc2>
 8003b96:	f501 7156 	add.w	r1, r1, #856	; 0x358
 8003b9a:	428b      	cmp	r3, r1
 8003b9c:	d039      	beq.n	8003c12 <HAL_DMA_Abort_IT+0xc2>
 8003b9e:	3118      	adds	r1, #24
 8003ba0:	428b      	cmp	r3, r1
 8003ba2:	d036      	beq.n	8003c12 <HAL_DMA_Abort_IT+0xc2>
 8003ba4:	3118      	adds	r1, #24
 8003ba6:	428b      	cmp	r3, r1
 8003ba8:	d033      	beq.n	8003c12 <HAL_DMA_Abort_IT+0xc2>
 8003baa:	3118      	adds	r1, #24
 8003bac:	428b      	cmp	r3, r1
 8003bae:	d030      	beq.n	8003c12 <HAL_DMA_Abort_IT+0xc2>
 8003bb0:	3118      	adds	r1, #24
 8003bb2:	428b      	cmp	r3, r1
 8003bb4:	d02d      	beq.n	8003c12 <HAL_DMA_Abort_IT+0xc2>
 8003bb6:	3118      	adds	r1, #24
 8003bb8:	428b      	cmp	r3, r1
 8003bba:	d02a      	beq.n	8003c12 <HAL_DMA_Abort_IT+0xc2>
 8003bbc:	3118      	adds	r1, #24
 8003bbe:	428b      	cmp	r3, r1
 8003bc0:	d027      	beq.n	8003c12 <HAL_DMA_Abort_IT+0xc2>
 8003bc2:	3118      	adds	r1, #24
 8003bc4:	428b      	cmp	r3, r1
 8003bc6:	d024      	beq.n	8003c12 <HAL_DMA_Abort_IT+0xc2>
 8003bc8:	681a      	ldr	r2, [r3, #0]
 8003bca:	f022 020e 	bic.w	r2, r2, #14
 8003bce:	601a      	str	r2, [r3, #0]
 8003bd0:	681a      	ldr	r2, [r3, #0]
 8003bd2:	f022 0201 	bic.w	r2, r2, #1
 8003bd6:	601a      	str	r2, [r3, #0]
 8003bd8:	4a35      	ldr	r2, [pc, #212]	; (8003cb0 <HAL_DMA_Abort_IT+0x160>)
 8003bda:	4293      	cmp	r3, r2
 8003bdc:	d143      	bne.n	8003c66 <HAL_DMA_Abort_IT+0x116>
 8003bde:	6e02      	ldr	r2, [r0, #96]	; 0x60
 8003be0:	6813      	ldr	r3, [r2, #0]
 8003be2:	f423 7380 	bic.w	r3, r3, #256	; 0x100
 8003be6:	6013      	str	r3, [r2, #0]
 8003be8:	e9d0 1316 	ldrd	r1, r3, [r0, #88]	; 0x58
 8003bec:	f003 021f 	and.w	r2, r3, #31
 8003bf0:	2301      	movs	r3, #1
 8003bf2:	4093      	lsls	r3, r2
 8003bf4:	604b      	str	r3, [r1, #4]
 8003bf6:	e9d0 3219 	ldrd	r3, r2, [r0, #100]	; 0x64
 8003bfa:	605a      	str	r2, [r3, #4]
 8003bfc:	6ec3      	ldr	r3, [r0, #108]	; 0x6c
 8003bfe:	2b00      	cmp	r3, #0
 8003c00:	d046      	beq.n	8003c90 <HAL_DMA_Abort_IT+0x140>
 8003c02:	681a      	ldr	r2, [r3, #0]
 8003c04:	f422 7280 	bic.w	r2, r2, #256	; 0x100
 8003c08:	601a      	str	r2, [r3, #0]
 8003c0a:	e9d0 321c 	ldrd	r3, r2, [r0, #112]	; 0x70
 8003c0e:	605a      	str	r2, [r3, #4]
 8003c10:	e03e      	b.n	8003c90 <HAL_DMA_Abort_IT+0x140>
 8003c12:	2104      	movs	r1, #4
 8003c14:	4293      	cmp	r3, r2
 8003c16:	f880 1035 	strb.w	r1, [r0, #53]	; 0x35
 8003c1a:	d01e      	beq.n	8003c5a <HAL_DMA_Abort_IT+0x10a>
 8003c1c:	4a23      	ldr	r2, [pc, #140]	; (8003cac <HAL_DMA_Abort_IT+0x15c>)
 8003c1e:	4293      	cmp	r3, r2
 8003c20:	d01b      	beq.n	8003c5a <HAL_DMA_Abort_IT+0x10a>
 8003c22:	3218      	adds	r2, #24
 8003c24:	4293      	cmp	r3, r2
 8003c26:	d018      	beq.n	8003c5a <HAL_DMA_Abort_IT+0x10a>
 8003c28:	3218      	adds	r2, #24
 8003c2a:	4293      	cmp	r3, r2
 8003c2c:	d015      	beq.n	8003c5a <HAL_DMA_Abort_IT+0x10a>
 8003c2e:	3218      	adds	r2, #24
 8003c30:	4293      	cmp	r3, r2
 8003c32:	d012      	beq.n	8003c5a <HAL_DMA_Abort_IT+0x10a>
 8003c34:	3218      	adds	r2, #24
 8003c36:	4293      	cmp	r3, r2
 8003c38:	d00f      	beq.n	8003c5a <HAL_DMA_Abort_IT+0x10a>
 8003c3a:	3218      	adds	r2, #24
 8003c3c:	4293      	cmp	r3, r2
 8003c3e:	d00c      	beq.n	8003c5a <HAL_DMA_Abort_IT+0x10a>
 8003c40:	3218      	adds	r2, #24
 8003c42:	4293      	cmp	r3, r2
 8003c44:	d009      	beq.n	8003c5a <HAL_DMA_Abort_IT+0x10a>
 8003c46:	f502 7256 	add.w	r2, r2, #856	; 0x358
 8003c4a:	4293      	cmp	r3, r2
 8003c4c:	d005      	beq.n	8003c5a <HAL_DMA_Abort_IT+0x10a>
 8003c4e:	3218      	adds	r2, #24
 8003c50:	4293      	cmp	r3, r2
 8003c52:	d002      	beq.n	8003c5a <HAL_DMA_Abort_IT+0x10a>
 8003c54:	3218      	adds	r2, #24
 8003c56:	4293      	cmp	r3, r2
 8003c58:	d0ff      	beq.n	8003c5a <HAL_DMA_Abort_IT+0x10a>
 8003c5a:	681a      	ldr	r2, [r3, #0]
 8003c5c:	f022 0201 	bic.w	r2, r2, #1
 8003c60:	601a      	str	r2, [r3, #0]
 8003c62:	2000      	movs	r0, #0
 8003c64:	bd10      	pop	{r4, pc}
 8003c66:	4a13      	ldr	r2, [pc, #76]	; (8003cb4 <HAL_DMA_Abort_IT+0x164>)
 8003c68:	4293      	cmp	r3, r2
 8003c6a:	d0b8      	beq.n	8003bde <HAL_DMA_Abort_IT+0x8e>
 8003c6c:	3214      	adds	r2, #20
 8003c6e:	4293      	cmp	r3, r2
 8003c70:	d0b5      	beq.n	8003bde <HAL_DMA_Abort_IT+0x8e>
 8003c72:	3214      	adds	r2, #20
 8003c74:	4293      	cmp	r3, r2
 8003c76:	d0b2      	beq.n	8003bde <HAL_DMA_Abort_IT+0x8e>
 8003c78:	3214      	adds	r2, #20
 8003c7a:	4293      	cmp	r3, r2
 8003c7c:	d0af      	beq.n	8003bde <HAL_DMA_Abort_IT+0x8e>
 8003c7e:	3214      	adds	r2, #20
 8003c80:	4293      	cmp	r3, r2
 8003c82:	d0ac      	beq.n	8003bde <HAL_DMA_Abort_IT+0x8e>
 8003c84:	3214      	adds	r2, #20
 8003c86:	4293      	cmp	r3, r2
 8003c88:	d0a9      	beq.n	8003bde <HAL_DMA_Abort_IT+0x8e>
 8003c8a:	3214      	adds	r2, #20
 8003c8c:	4293      	cmp	r3, r2
 8003c8e:	d0a6      	beq.n	8003bde <HAL_DMA_Abort_IT+0x8e>
 8003c90:	2301      	movs	r3, #1
 8003c92:	2400      	movs	r4, #0
 8003c94:	f880 3035 	strb.w	r3, [r0, #53]	; 0x35
 8003c98:	6d03      	ldr	r3, [r0, #80]	; 0x50
 8003c9a:	f880 4034 	strb.w	r4, [r0, #52]	; 0x34
 8003c9e:	b10b      	cbz	r3, 8003ca4 <HAL_DMA_Abort_IT+0x154>
 8003ca0:	4798      	blx	r3
 8003ca2:	e7de      	b.n	8003c62 <HAL_DMA_Abort_IT+0x112>
 8003ca4:	4618      	mov	r0, r3
 8003ca6:	e7dd      	b.n	8003c64 <HAL_DMA_Abort_IT+0x114>
 8003ca8:	40020010 	.word	0x40020010
 8003cac:	40020028 	.word	0x40020028
 8003cb0:	58025408 	.word	0x58025408
 8003cb4:	5802541c 	.word	0x5802541c

08003cb8 <HAL_DMA_IRQHandler>:
 8003cb8:	2300      	movs	r3, #0
 8003cba:	e92d 41f3 	stmdb	sp!, {r0, r1, r4, r5, r6, r7, r8, lr}
 8003cbe:	9301      	str	r3, [sp, #4]
 8003cc0:	4604      	mov	r4, r0
 8003cc2:	4b29      	ldr	r3, [pc, #164]	; (8003d68 <HAL_DMA_IRQHandler+0xb0>)
 8003cc4:	4e29      	ldr	r6, [pc, #164]	; (8003d6c <HAL_DMA_IRQHandler+0xb4>)
 8003cc6:	681f      	ldr	r7, [r3, #0]
 8003cc8:	6803      	ldr	r3, [r0, #0]
 8003cca:	6d85      	ldr	r5, [r0, #88]	; 0x58
 8003ccc:	42b3      	cmp	r3, r6
 8003cce:	f8d5 8000 	ldr.w	r8, [r5]
 8003cd2:	f8d5 c000 	ldr.w	ip, [r5]
 8003cd6:	d04f      	beq.n	8003d78 <HAL_DMA_IRQHandler+0xc0>
 8003cd8:	4a25      	ldr	r2, [pc, #148]	; (8003d70 <HAL_DMA_IRQHandler+0xb8>)
 8003cda:	4293      	cmp	r3, r2
 8003cdc:	d04c      	beq.n	8003d78 <HAL_DMA_IRQHandler+0xc0>
 8003cde:	3218      	adds	r2, #24
 8003ce0:	4293      	cmp	r3, r2
 8003ce2:	d049      	beq.n	8003d78 <HAL_DMA_IRQHandler+0xc0>
 8003ce4:	3218      	adds	r2, #24
 8003ce6:	4293      	cmp	r3, r2
 8003ce8:	d046      	beq.n	8003d78 <HAL_DMA_IRQHandler+0xc0>
 8003cea:	3218      	adds	r2, #24
 8003cec:	4293      	cmp	r3, r2
 8003cee:	d043      	beq.n	8003d78 <HAL_DMA_IRQHandler+0xc0>
 8003cf0:	3218      	adds	r2, #24
 8003cf2:	4293      	cmp	r3, r2
 8003cf4:	d040      	beq.n	8003d78 <HAL_DMA_IRQHandler+0xc0>
 8003cf6:	3218      	adds	r2, #24
 8003cf8:	4293      	cmp	r3, r2
 8003cfa:	d03d      	beq.n	8003d78 <HAL_DMA_IRQHandler+0xc0>
 8003cfc:	3218      	adds	r2, #24
 8003cfe:	4293      	cmp	r3, r2
 8003d00:	d03a      	beq.n	8003d78 <HAL_DMA_IRQHandler+0xc0>
 8003d02:	f502 7256 	add.w	r2, r2, #856	; 0x358
 8003d06:	4293      	cmp	r3, r2
 8003d08:	d036      	beq.n	8003d78 <HAL_DMA_IRQHandler+0xc0>
 8003d0a:	3218      	adds	r2, #24
 8003d0c:	4293      	cmp	r3, r2
 8003d0e:	d033      	beq.n	8003d78 <HAL_DMA_IRQHandler+0xc0>
 8003d10:	3218      	adds	r2, #24
 8003d12:	4293      	cmp	r3, r2
 8003d14:	d030      	beq.n	8003d78 <HAL_DMA_IRQHandler+0xc0>
 8003d16:	3218      	adds	r2, #24
 8003d18:	4293      	cmp	r3, r2
 8003d1a:	d02d      	beq.n	8003d78 <HAL_DMA_IRQHandler+0xc0>
 8003d1c:	3218      	adds	r2, #24
 8003d1e:	4293      	cmp	r3, r2
 8003d20:	d02a      	beq.n	8003d78 <HAL_DMA_IRQHandler+0xc0>
 8003d22:	3218      	adds	r2, #24
 8003d24:	4293      	cmp	r3, r2
 8003d26:	d027      	beq.n	8003d78 <HAL_DMA_IRQHandler+0xc0>
 8003d28:	3218      	adds	r2, #24
 8003d2a:	4293      	cmp	r3, r2
 8003d2c:	d024      	beq.n	8003d78 <HAL_DMA_IRQHandler+0xc0>
 8003d2e:	3218      	adds	r2, #24
 8003d30:	4293      	cmp	r3, r2
 8003d32:	d021      	beq.n	8003d78 <HAL_DMA_IRQHandler+0xc0>
 8003d34:	4a0f      	ldr	r2, [pc, #60]	; (8003d74 <HAL_DMA_IRQHandler+0xbc>)
 8003d36:	4293      	cmp	r3, r2
 8003d38:	f040 820d 	bne.w	8004156 <HAL_DMA_IRQHandler+0x49e>
 8003d3c:	6de1      	ldr	r1, [r4, #92]	; 0x5c
 8003d3e:	2004      	movs	r0, #4
 8003d40:	681a      	ldr	r2, [r3, #0]
 8003d42:	f001 011f 	and.w	r1, r1, #31
 8003d46:	4088      	lsls	r0, r1
 8003d48:	ea10 0f0c 	tst.w	r0, ip
 8003d4c:	f000 824a 	beq.w	80041e4 <HAL_DMA_IRQHandler+0x52c>
 8003d50:	0756      	lsls	r6, r2, #29
 8003d52:	f140 8247 	bpl.w	80041e4 <HAL_DMA_IRQHandler+0x52c>
 8003d56:	0411      	lsls	r1, r2, #16
 8003d58:	6068      	str	r0, [r5, #4]
 8003d5a:	f140 823b 	bpl.w	80041d4 <HAL_DMA_IRQHandler+0x51c>
 8003d5e:	03d3      	lsls	r3, r2, #15
 8003d60:	f100 823e 	bmi.w	80041e0 <HAL_DMA_IRQHandler+0x528>
 8003d64:	6ca3      	ldr	r3, [r4, #72]	; 0x48
 8003d66:	e180      	b.n	800406a <HAL_DMA_IRQHandler+0x3b2>
 8003d68:	24000044 	.word	0x24000044
 8003d6c:	40020010 	.word	0x40020010
 8003d70:	40020028 	.word	0x40020028
 8003d74:	48022c08 	.word	0x48022c08
 8003d78:	6de2      	ldr	r2, [r4, #92]	; 0x5c
 8003d7a:	2008      	movs	r0, #8
 8003d7c:	f002 021f 	and.w	r2, r2, #31
 8003d80:	4090      	lsls	r0, r2
 8003d82:	ea10 0f08 	tst.w	r0, r8
 8003d86:	d03d      	beq.n	8003e04 <HAL_DMA_IRQHandler+0x14c>
 8003d88:	42b3      	cmp	r3, r6
 8003d8a:	d02e      	beq.n	8003dea <HAL_DMA_IRQHandler+0x132>
 8003d8c:	4985      	ldr	r1, [pc, #532]	; (8003fa4 <HAL_DMA_IRQHandler+0x2ec>)
 8003d8e:	428b      	cmp	r3, r1
 8003d90:	d02b      	beq.n	8003dea <HAL_DMA_IRQHandler+0x132>
 8003d92:	3118      	adds	r1, #24
 8003d94:	428b      	cmp	r3, r1
 8003d96:	d028      	beq.n	8003dea <HAL_DMA_IRQHandler+0x132>
 8003d98:	3118      	adds	r1, #24
 8003d9a:	428b      	cmp	r3, r1
 8003d9c:	d025      	beq.n	8003dea <HAL_DMA_IRQHandler+0x132>
 8003d9e:	3118      	adds	r1, #24
 8003da0:	428b      	cmp	r3, r1
 8003da2:	d022      	beq.n	8003dea <HAL_DMA_IRQHandler+0x132>
 8003da4:	3118      	adds	r1, #24
 8003da6:	428b      	cmp	r3, r1
 8003da8:	d01f      	beq.n	8003dea <HAL_DMA_IRQHandler+0x132>
 8003daa:	3118      	adds	r1, #24
 8003dac:	428b      	cmp	r3, r1
 8003dae:	d01c      	beq.n	8003dea <HAL_DMA_IRQHandler+0x132>
 8003db0:	3118      	adds	r1, #24
 8003db2:	428b      	cmp	r3, r1
 8003db4:	d019      	beq.n	8003dea <HAL_DMA_IRQHandler+0x132>
 8003db6:	f501 7156 	add.w	r1, r1, #856	; 0x358
 8003dba:	428b      	cmp	r3, r1
 8003dbc:	d015      	beq.n	8003dea <HAL_DMA_IRQHandler+0x132>
 8003dbe:	3118      	adds	r1, #24
 8003dc0:	428b      	cmp	r3, r1
 8003dc2:	d012      	beq.n	8003dea <HAL_DMA_IRQHandler+0x132>
 8003dc4:	3118      	adds	r1, #24
 8003dc6:	428b      	cmp	r3, r1
 8003dc8:	d00f      	beq.n	8003dea <HAL_DMA_IRQHandler+0x132>
 8003dca:	3118      	adds	r1, #24
 8003dcc:	428b      	cmp	r3, r1
 8003dce:	d00c      	beq.n	8003dea <HAL_DMA_IRQHandler+0x132>
 8003dd0:	3118      	adds	r1, #24
 8003dd2:	428b      	cmp	r3, r1
 8003dd4:	d009      	beq.n	8003dea <HAL_DMA_IRQHandler+0x132>
 8003dd6:	3118      	adds	r1, #24
 8003dd8:	428b      	cmp	r3, r1
 8003dda:	d006      	beq.n	8003dea <HAL_DMA_IRQHandler+0x132>
 8003ddc:	3118      	adds	r1, #24
 8003dde:	428b      	cmp	r3, r1
 8003de0:	d003      	beq.n	8003dea <HAL_DMA_IRQHandler+0x132>
 8003de2:	3118      	adds	r1, #24
 8003de4:	428b      	cmp	r3, r1
 8003de6:	f040 80c2 	bne.w	8003f6e <HAL_DMA_IRQHandler+0x2b6>
 8003dea:	6819      	ldr	r1, [r3, #0]
 8003dec:	f3c1 0180 	ubfx	r1, r1, #2, #1
 8003df0:	b141      	cbz	r1, 8003e04 <HAL_DMA_IRQHandler+0x14c>
 8003df2:	6819      	ldr	r1, [r3, #0]
 8003df4:	f021 0104 	bic.w	r1, r1, #4
 8003df8:	6019      	str	r1, [r3, #0]
 8003dfa:	60a8      	str	r0, [r5, #8]
 8003dfc:	6d61      	ldr	r1, [r4, #84]	; 0x54
 8003dfe:	f041 0101 	orr.w	r1, r1, #1
 8003e02:	6561      	str	r1, [r4, #84]	; 0x54
 8003e04:	fa28 f102 	lsr.w	r1, r8, r2
 8003e08:	07c8      	lsls	r0, r1, #31
 8003e0a:	d534      	bpl.n	8003e76 <HAL_DMA_IRQHandler+0x1be>
 8003e0c:	42b3      	cmp	r3, r6
 8003e0e:	d02e      	beq.n	8003e6e <HAL_DMA_IRQHandler+0x1b6>
 8003e10:	4964      	ldr	r1, [pc, #400]	; (8003fa4 <HAL_DMA_IRQHandler+0x2ec>)
 8003e12:	428b      	cmp	r3, r1
 8003e14:	d02b      	beq.n	8003e6e <HAL_DMA_IRQHandler+0x1b6>
 8003e16:	3118      	adds	r1, #24
 8003e18:	428b      	cmp	r3, r1
 8003e1a:	d028      	beq.n	8003e6e <HAL_DMA_IRQHandler+0x1b6>
 8003e1c:	3118      	adds	r1, #24
 8003e1e:	428b      	cmp	r3, r1
 8003e20:	d025      	beq.n	8003e6e <HAL_DMA_IRQHandler+0x1b6>
 8003e22:	3118      	adds	r1, #24
 8003e24:	428b      	cmp	r3, r1
 8003e26:	d022      	beq.n	8003e6e <HAL_DMA_IRQHandler+0x1b6>
 8003e28:	3118      	adds	r1, #24
 8003e2a:	428b      	cmp	r3, r1
 8003e2c:	d01f      	beq.n	8003e6e <HAL_DMA_IRQHandler+0x1b6>
 8003e2e:	3118      	adds	r1, #24
 8003e30:	428b      	cmp	r3, r1
 8003e32:	d01c      	beq.n	8003e6e <HAL_DMA_IRQHandler+0x1b6>
 8003e34:	3118      	adds	r1, #24
 8003e36:	428b      	cmp	r3, r1
 8003e38:	d019      	beq.n	8003e6e <HAL_DMA_IRQHandler+0x1b6>
 8003e3a:	f501 7156 	add.w	r1, r1, #856	; 0x358
 8003e3e:	428b      	cmp	r3, r1
 8003e40:	d015      	beq.n	8003e6e <HAL_DMA_IRQHandler+0x1b6>
 8003e42:	3118      	adds	r1, #24
 8003e44:	428b      	cmp	r3, r1
 8003e46:	d012      	beq.n	8003e6e <HAL_DMA_IRQHandler+0x1b6>
 8003e48:	3118      	adds	r1, #24
 8003e4a:	428b      	cmp	r3, r1
 8003e4c:	d00f      	beq.n	8003e6e <HAL_DMA_IRQHandler+0x1b6>
 8003e4e:	3118      	adds	r1, #24
 8003e50:	428b      	cmp	r3, r1
 8003e52:	d00c      	beq.n	8003e6e <HAL_DMA_IRQHandler+0x1b6>
 8003e54:	3118      	adds	r1, #24
 8003e56:	428b      	cmp	r3, r1
 8003e58:	d009      	beq.n	8003e6e <HAL_DMA_IRQHandler+0x1b6>
 8003e5a:	3118      	adds	r1, #24
 8003e5c:	428b      	cmp	r3, r1
 8003e5e:	d006      	beq.n	8003e6e <HAL_DMA_IRQHandler+0x1b6>
 8003e60:	3118      	adds	r1, #24
 8003e62:	428b      	cmp	r3, r1
 8003e64:	d003      	beq.n	8003e6e <HAL_DMA_IRQHandler+0x1b6>
 8003e66:	3118      	adds	r1, #24
 8003e68:	428b      	cmp	r3, r1
 8003e6a:	f040 8084 	bne.w	8003f76 <HAL_DMA_IRQHandler+0x2be>
 8003e6e:	6959      	ldr	r1, [r3, #20]
 8003e70:	0609      	lsls	r1, r1, #24
 8003e72:	f100 8082 	bmi.w	8003f7a <HAL_DMA_IRQHandler+0x2c2>
 8003e76:	2104      	movs	r1, #4
 8003e78:	4091      	lsls	r1, r2
 8003e7a:	ea11 0f08 	tst.w	r1, r8
 8003e7e:	d032      	beq.n	8003ee6 <HAL_DMA_IRQHandler+0x22e>
 8003e80:	42b3      	cmp	r3, r6
 8003e82:	d02d      	beq.n	8003ee0 <HAL_DMA_IRQHandler+0x228>
 8003e84:	4847      	ldr	r0, [pc, #284]	; (8003fa4 <HAL_DMA_IRQHandler+0x2ec>)
 8003e86:	4283      	cmp	r3, r0
 8003e88:	d02a      	beq.n	8003ee0 <HAL_DMA_IRQHandler+0x228>
 8003e8a:	3018      	adds	r0, #24
 8003e8c:	4283      	cmp	r3, r0
 8003e8e:	d027      	beq.n	8003ee0 <HAL_DMA_IRQHandler+0x228>
 8003e90:	3018      	adds	r0, #24
 8003e92:	4283      	cmp	r3, r0
 8003e94:	d024      	beq.n	8003ee0 <HAL_DMA_IRQHandler+0x228>
 8003e96:	3018      	adds	r0, #24
 8003e98:	4283      	cmp	r3, r0
 8003e9a:	d021      	beq.n	8003ee0 <HAL_DMA_IRQHandler+0x228>
 8003e9c:	3018      	adds	r0, #24
 8003e9e:	4283      	cmp	r3, r0
 8003ea0:	d01e      	beq.n	8003ee0 <HAL_DMA_IRQHandler+0x228>
 8003ea2:	3018      	adds	r0, #24
 8003ea4:	4283      	cmp	r3, r0
 8003ea6:	d01b      	beq.n	8003ee0 <HAL_DMA_IRQHandler+0x228>
 8003ea8:	3018      	adds	r0, #24
 8003eaa:	4283      	cmp	r3, r0
 8003eac:	d018      	beq.n	8003ee0 <HAL_DMA_IRQHandler+0x228>
 8003eae:	f500 7056 	add.w	r0, r0, #856	; 0x358
 8003eb2:	4283      	cmp	r3, r0
 8003eb4:	d014      	beq.n	8003ee0 <HAL_DMA_IRQHandler+0x228>
 8003eb6:	3018      	adds	r0, #24
 8003eb8:	4283      	cmp	r3, r0
 8003eba:	d011      	beq.n	8003ee0 <HAL_DMA_IRQHandler+0x228>
 8003ebc:	3018      	adds	r0, #24
 8003ebe:	4283      	cmp	r3, r0
 8003ec0:	d00e      	beq.n	8003ee0 <HAL_DMA_IRQHandler+0x228>
 8003ec2:	3018      	adds	r0, #24
 8003ec4:	4283      	cmp	r3, r0
 8003ec6:	d00b      	beq.n	8003ee0 <HAL_DMA_IRQHandler+0x228>
 8003ec8:	3018      	adds	r0, #24
 8003eca:	4283      	cmp	r3, r0
 8003ecc:	d008      	beq.n	8003ee0 <HAL_DMA_IRQHandler+0x228>
 8003ece:	3018      	adds	r0, #24
 8003ed0:	4283      	cmp	r3, r0
 8003ed2:	d005      	beq.n	8003ee0 <HAL_DMA_IRQHandler+0x228>
 8003ed4:	3018      	adds	r0, #24
 8003ed6:	4283      	cmp	r3, r0
 8003ed8:	d002      	beq.n	8003ee0 <HAL_DMA_IRQHandler+0x228>
 8003eda:	3018      	adds	r0, #24
 8003edc:	4283      	cmp	r3, r0
 8003ede:	d154      	bne.n	8003f8a <HAL_DMA_IRQHandler+0x2d2>
 8003ee0:	6818      	ldr	r0, [r3, #0]
 8003ee2:	0780      	lsls	r0, r0, #30
 8003ee4:	d453      	bmi.n	8003f8e <HAL_DMA_IRQHandler+0x2d6>
 8003ee6:	2110      	movs	r1, #16
 8003ee8:	fa01 f202 	lsl.w	r2, r1, r2
 8003eec:	ea12 0f08 	tst.w	r2, r8
 8003ef0:	d05e      	beq.n	8003fb0 <HAL_DMA_IRQHandler+0x2f8>
 8003ef2:	42b3      	cmp	r3, r6
 8003ef4:	d02d      	beq.n	8003f52 <HAL_DMA_IRQHandler+0x29a>
 8003ef6:	492b      	ldr	r1, [pc, #172]	; (8003fa4 <HAL_DMA_IRQHandler+0x2ec>)
 8003ef8:	428b      	cmp	r3, r1
 8003efa:	d02a      	beq.n	8003f52 <HAL_DMA_IRQHandler+0x29a>
 8003efc:	3118      	adds	r1, #24
 8003efe:	428b      	cmp	r3, r1
 8003f00:	d027      	beq.n	8003f52 <HAL_DMA_IRQHandler+0x29a>
 8003f02:	3118      	adds	r1, #24
 8003f04:	428b      	cmp	r3, r1
 8003f06:	d024      	beq.n	8003f52 <HAL_DMA_IRQHandler+0x29a>
 8003f08:	3118      	adds	r1, #24
 8003f0a:	428b      	cmp	r3, r1
 8003f0c:	d021      	beq.n	8003f52 <HAL_DMA_IRQHandler+0x29a>
 8003f0e:	3118      	adds	r1, #24
 8003f10:	428b      	cmp	r3, r1
 8003f12:	d01e      	beq.n	8003f52 <HAL_DMA_IRQHandler+0x29a>
 8003f14:	3118      	adds	r1, #24
 8003f16:	428b      	cmp	r3, r1
 8003f18:	d01b      	beq.n	8003f52 <HAL_DMA_IRQHandler+0x29a>
 8003f1a:	3118      	adds	r1, #24
 8003f1c:	428b      	cmp	r3, r1
 8003f1e:	d018      	beq.n	8003f52 <HAL_DMA_IRQHandler+0x29a>
 8003f20:	f501 7156 	add.w	r1, r1, #856	; 0x358
 8003f24:	428b      	cmp	r3, r1
 8003f26:	d014      	beq.n	8003f52 <HAL_DMA_IRQHandler+0x29a>
 8003f28:	3118      	adds	r1, #24
 8003f2a:	428b      	cmp	r3, r1
 8003f2c:	d011      	beq.n	8003f52 <HAL_DMA_IRQHandler+0x29a>
 8003f2e:	3118      	adds	r1, #24
 8003f30:	428b      	cmp	r3, r1
 8003f32:	d00e      	beq.n	8003f52 <HAL_DMA_IRQHandler+0x29a>
 8003f34:	3118      	adds	r1, #24
 8003f36:	428b      	cmp	r3, r1
 8003f38:	d00b      	beq.n	8003f52 <HAL_DMA_IRQHandler+0x29a>
 8003f3a:	3118      	adds	r1, #24
 8003f3c:	428b      	cmp	r3, r1
 8003f3e:	d008      	beq.n	8003f52 <HAL_DMA_IRQHandler+0x29a>
 8003f40:	3118      	adds	r1, #24
 8003f42:	428b      	cmp	r3, r1
 8003f44:	d005      	beq.n	8003f52 <HAL_DMA_IRQHandler+0x29a>
 8003f46:	3118      	adds	r1, #24
 8003f48:	428b      	cmp	r3, r1
 8003f4a:	d002      	beq.n	8003f52 <HAL_DMA_IRQHandler+0x29a>
 8003f4c:	3118      	adds	r1, #24
 8003f4e:	428b      	cmp	r3, r1
 8003f50:	d123      	bne.n	8003f9a <HAL_DMA_IRQHandler+0x2e2>
 8003f52:	6819      	ldr	r1, [r3, #0]
 8003f54:	f011 0f08 	tst.w	r1, #8
 8003f58:	d02a      	beq.n	8003fb0 <HAL_DMA_IRQHandler+0x2f8>
 8003f5a:	60aa      	str	r2, [r5, #8]
 8003f5c:	681a      	ldr	r2, [r3, #0]
 8003f5e:	0350      	lsls	r0, r2, #13
 8003f60:	f140 808b 	bpl.w	800407a <HAL_DMA_IRQHandler+0x3c2>
 8003f64:	681b      	ldr	r3, [r3, #0]
 8003f66:	0319      	lsls	r1, r3, #12
 8003f68:	d41e      	bmi.n	8003fa8 <HAL_DMA_IRQHandler+0x2f0>
 8003f6a:	6c23      	ldr	r3, [r4, #64]	; 0x40
 8003f6c:	e01d      	b.n	8003faa <HAL_DMA_IRQHandler+0x2f2>
 8003f6e:	6819      	ldr	r1, [r3, #0]
 8003f70:	f3c1 01c0 	ubfx	r1, r1, #3, #1
 8003f74:	e73c      	b.n	8003df0 <HAL_DMA_IRQHandler+0x138>
 8003f76:	6819      	ldr	r1, [r3, #0]
 8003f78:	e77d      	b.n	8003e76 <HAL_DMA_IRQHandler+0x1be>
 8003f7a:	2101      	movs	r1, #1
 8003f7c:	4091      	lsls	r1, r2
 8003f7e:	60a9      	str	r1, [r5, #8]
 8003f80:	6d61      	ldr	r1, [r4, #84]	; 0x54
 8003f82:	f041 0102 	orr.w	r1, r1, #2
 8003f86:	6561      	str	r1, [r4, #84]	; 0x54
 8003f88:	e775      	b.n	8003e76 <HAL_DMA_IRQHandler+0x1be>
 8003f8a:	6819      	ldr	r1, [r3, #0]
 8003f8c:	e7ab      	b.n	8003ee6 <HAL_DMA_IRQHandler+0x22e>
 8003f8e:	60a9      	str	r1, [r5, #8]
 8003f90:	6d61      	ldr	r1, [r4, #84]	; 0x54
 8003f92:	f041 0104 	orr.w	r1, r1, #4
 8003f96:	6561      	str	r1, [r4, #84]	; 0x54
 8003f98:	e7a5      	b.n	8003ee6 <HAL_DMA_IRQHandler+0x22e>
 8003f9a:	6819      	ldr	r1, [r3, #0]
 8003f9c:	f011 0f04 	tst.w	r1, #4
 8003fa0:	e7da      	b.n	8003f58 <HAL_DMA_IRQHandler+0x2a0>
 8003fa2:	bf00      	nop
 8003fa4:	40020028 	.word	0x40020028
 8003fa8:	6ca3      	ldr	r3, [r4, #72]	; 0x48
 8003faa:	b10b      	cbz	r3, 8003fb0 <HAL_DMA_IRQHandler+0x2f8>
 8003fac:	4620      	mov	r0, r4
 8003fae:	4798      	blx	r3
 8003fb0:	6de2      	ldr	r2, [r4, #92]	; 0x5c
 8003fb2:	2120      	movs	r1, #32
 8003fb4:	f002 021f 	and.w	r2, r2, #31
 8003fb8:	4091      	lsls	r1, r2
 8003fba:	ea11 0f08 	tst.w	r1, r8
 8003fbe:	d073      	beq.n	80040a8 <HAL_DMA_IRQHandler+0x3f0>
 8003fc0:	6823      	ldr	r3, [r4, #0]
 8003fc2:	42b3      	cmp	r3, r6
 8003fc4:	d02d      	beq.n	8004022 <HAL_DMA_IRQHandler+0x36a>
 8003fc6:	489e      	ldr	r0, [pc, #632]	; (8004240 <HAL_DMA_IRQHandler+0x588>)
 8003fc8:	4283      	cmp	r3, r0
 8003fca:	d02a      	beq.n	8004022 <HAL_DMA_IRQHandler+0x36a>
 8003fcc:	3018      	adds	r0, #24
 8003fce:	4283      	cmp	r3, r0
 8003fd0:	d027      	beq.n	8004022 <HAL_DMA_IRQHandler+0x36a>
 8003fd2:	3018      	adds	r0, #24
 8003fd4:	4283      	cmp	r3, r0
 8003fd6:	d024      	beq.n	8004022 <HAL_DMA_IRQHandler+0x36a>
 8003fd8:	3018      	adds	r0, #24
 8003fda:	4283      	cmp	r3, r0
 8003fdc:	d021      	beq.n	8004022 <HAL_DMA_IRQHandler+0x36a>
 8003fde:	3018      	adds	r0, #24
 8003fe0:	4283      	cmp	r3, r0
 8003fe2:	d01e      	beq.n	8004022 <HAL_DMA_IRQHandler+0x36a>
 8003fe4:	3018      	adds	r0, #24
 8003fe6:	4283      	cmp	r3, r0
 8003fe8:	d01b      	beq.n	8004022 <HAL_DMA_IRQHandler+0x36a>
 8003fea:	3018      	adds	r0, #24
 8003fec:	4283      	cmp	r3, r0
 8003fee:	d018      	beq.n	8004022 <HAL_DMA_IRQHandler+0x36a>
 8003ff0:	f500 7056 	add.w	r0, r0, #856	; 0x358
 8003ff4:	4283      	cmp	r3, r0
 8003ff6:	d014      	beq.n	8004022 <HAL_DMA_IRQHandler+0x36a>
 8003ff8:	3018      	adds	r0, #24
 8003ffa:	4283      	cmp	r3, r0
 8003ffc:	d011      	beq.n	8004022 <HAL_DMA_IRQHandler+0x36a>
 8003ffe:	3018      	adds	r0, #24
 8004000:	4283      	cmp	r3, r0
 8004002:	d00e      	beq.n	8004022 <HAL_DMA_IRQHandler+0x36a>
 8004004:	3018      	adds	r0, #24
 8004006:	4283      	cmp	r3, r0
 8004008:	d00b      	beq.n	8004022 <HAL_DMA_IRQHandler+0x36a>
 800400a:	3018      	adds	r0, #24
 800400c:	4283      	cmp	r3, r0
 800400e:	d008      	beq.n	8004022 <HAL_DMA_IRQHandler+0x36a>
 8004010:	3018      	adds	r0, #24
 8004012:	4283      	cmp	r3, r0
 8004014:	d005      	beq.n	8004022 <HAL_DMA_IRQHandler+0x36a>
 8004016:	3018      	adds	r0, #24
 8004018:	4283      	cmp	r3, r0
 800401a:	d002      	beq.n	8004022 <HAL_DMA_IRQHandler+0x36a>
 800401c:	3018      	adds	r0, #24
 800401e:	4283      	cmp	r3, r0
 8004020:	d134      	bne.n	800408c <HAL_DMA_IRQHandler+0x3d4>
 8004022:	6818      	ldr	r0, [r3, #0]
 8004024:	f010 0f10 	tst.w	r0, #16
 8004028:	d03e      	beq.n	80040a8 <HAL_DMA_IRQHandler+0x3f0>
 800402a:	60a9      	str	r1, [r5, #8]
 800402c:	f894 1035 	ldrb.w	r1, [r4, #53]	; 0x35
 8004030:	2904      	cmp	r1, #4
 8004032:	d12f      	bne.n	8004094 <HAL_DMA_IRQHandler+0x3dc>
 8004034:	6819      	ldr	r1, [r3, #0]
 8004036:	f021 0116 	bic.w	r1, r1, #22
 800403a:	6019      	str	r1, [r3, #0]
 800403c:	6959      	ldr	r1, [r3, #20]
 800403e:	f021 0180 	bic.w	r1, r1, #128	; 0x80
 8004042:	6159      	str	r1, [r3, #20]
 8004044:	6c21      	ldr	r1, [r4, #64]	; 0x40
 8004046:	b909      	cbnz	r1, 800404c <HAL_DMA_IRQHandler+0x394>
 8004048:	6ca1      	ldr	r1, [r4, #72]	; 0x48
 800404a:	b119      	cbz	r1, 8004054 <HAL_DMA_IRQHandler+0x39c>
 800404c:	6819      	ldr	r1, [r3, #0]
 800404e:	f021 0108 	bic.w	r1, r1, #8
 8004052:	6019      	str	r1, [r3, #0]
 8004054:	233f      	movs	r3, #63	; 0x3f
 8004056:	fa03 f202 	lsl.w	r2, r3, r2
 800405a:	2301      	movs	r3, #1
 800405c:	60aa      	str	r2, [r5, #8]
 800405e:	f884 3035 	strb.w	r3, [r4, #53]	; 0x35
 8004062:	2300      	movs	r3, #0
 8004064:	f884 3034 	strb.w	r3, [r4, #52]	; 0x34
 8004068:	6d23      	ldr	r3, [r4, #80]	; 0x50
 800406a:	2b00      	cmp	r3, #0
 800406c:	f000 80af 	beq.w	80041ce <HAL_DMA_IRQHandler+0x516>
 8004070:	4620      	mov	r0, r4
 8004072:	b002      	add	sp, #8
 8004074:	e8bd 41f0 	ldmia.w	sp!, {r4, r5, r6, r7, r8, lr}
 8004078:	4718      	bx	r3
 800407a:	681a      	ldr	r2, [r3, #0]
 800407c:	05d2      	lsls	r2, r2, #23
 800407e:	f53f af74 	bmi.w	8003f6a <HAL_DMA_IRQHandler+0x2b2>
 8004082:	681a      	ldr	r2, [r3, #0]
 8004084:	f022 0208 	bic.w	r2, r2, #8
 8004088:	601a      	str	r2, [r3, #0]
 800408a:	e76e      	b.n	8003f6a <HAL_DMA_IRQHandler+0x2b2>
 800408c:	6818      	ldr	r0, [r3, #0]
 800408e:	f010 0f02 	tst.w	r0, #2
 8004092:	e7c9      	b.n	8004028 <HAL_DMA_IRQHandler+0x370>
 8004094:	681a      	ldr	r2, [r3, #0]
 8004096:	0355      	lsls	r5, r2, #13
 8004098:	d54e      	bpl.n	8004138 <HAL_DMA_IRQHandler+0x480>
 800409a:	681b      	ldr	r3, [r3, #0]
 800409c:	0318      	lsls	r0, r3, #12
 800409e:	d458      	bmi.n	8004152 <HAL_DMA_IRQHandler+0x49a>
 80040a0:	6c63      	ldr	r3, [r4, #68]	; 0x44
 80040a2:	b10b      	cbz	r3, 80040a8 <HAL_DMA_IRQHandler+0x3f0>
 80040a4:	4620      	mov	r0, r4
 80040a6:	4798      	blx	r3
 80040a8:	6d63      	ldr	r3, [r4, #84]	; 0x54
 80040aa:	2b00      	cmp	r3, #0
 80040ac:	f000 808f 	beq.w	80041ce <HAL_DMA_IRQHandler+0x516>
 80040b0:	6d63      	ldr	r3, [r4, #84]	; 0x54
 80040b2:	07d9      	lsls	r1, r3, #31
 80040b4:	d53e      	bpl.n	8004134 <HAL_DMA_IRQHandler+0x47c>
 80040b6:	2304      	movs	r3, #4
 80040b8:	f884 3035 	strb.w	r3, [r4, #53]	; 0x35
 80040bc:	6823      	ldr	r3, [r4, #0]
 80040be:	42b3      	cmp	r3, r6
 80040c0:	d01e      	beq.n	8004100 <HAL_DMA_IRQHandler+0x448>
 80040c2:	4a5f      	ldr	r2, [pc, #380]	; (8004240 <HAL_DMA_IRQHandler+0x588>)
 80040c4:	4293      	cmp	r3, r2
 80040c6:	d01b      	beq.n	8004100 <HAL_DMA_IRQHandler+0x448>
 80040c8:	3218      	adds	r2, #24
 80040ca:	4293      	cmp	r3, r2
 80040cc:	d018      	beq.n	8004100 <HAL_DMA_IRQHandler+0x448>
 80040ce:	3218      	adds	r2, #24
 80040d0:	4293      	cmp	r3, r2
 80040d2:	d015      	beq.n	8004100 <HAL_DMA_IRQHandler+0x448>
 80040d4:	3218      	adds	r2, #24
 80040d6:	4293      	cmp	r3, r2
 80040d8:	d012      	beq.n	8004100 <HAL_DMA_IRQHandler+0x448>
 80040da:	3218      	adds	r2, #24
 80040dc:	4293      	cmp	r3, r2
 80040de:	d00f      	beq.n	8004100 <HAL_DMA_IRQHandler+0x448>
 80040e0:	3218      	adds	r2, #24
 80040e2:	4293      	cmp	r3, r2
 80040e4:	d00c      	beq.n	8004100 <HAL_DMA_IRQHandler+0x448>
 80040e6:	3218      	adds	r2, #24
 80040e8:	4293      	cmp	r3, r2
 80040ea:	d009      	beq.n	8004100 <HAL_DMA_IRQHandler+0x448>
 80040ec:	f502 7256 	add.w	r2, r2, #856	; 0x358
 80040f0:	4293      	cmp	r3, r2
 80040f2:	d005      	beq.n	8004100 <HAL_DMA_IRQHandler+0x448>
 80040f4:	3218      	adds	r2, #24
 80040f6:	4293      	cmp	r3, r2
 80040f8:	d002      	beq.n	8004100 <HAL_DMA_IRQHandler+0x448>
 80040fa:	3218      	adds	r2, #24
 80040fc:	4293      	cmp	r3, r2
 80040fe:	d0ff      	beq.n	8004100 <HAL_DMA_IRQHandler+0x448>
 8004100:	681a      	ldr	r2, [r3, #0]
 8004102:	f022 0201 	bic.w	r2, r2, #1
 8004106:	601a      	str	r2, [r3, #0]
 8004108:	f44f 5216 	mov.w	r2, #9600	; 0x2580
 800410c:	fbb7 f7f2 	udiv	r7, r7, r2
 8004110:	9a01      	ldr	r2, [sp, #4]
 8004112:	3201      	adds	r2, #1
 8004114:	42ba      	cmp	r2, r7
 8004116:	9201      	str	r2, [sp, #4]
 8004118:	d802      	bhi.n	8004120 <HAL_DMA_IRQHandler+0x468>
 800411a:	681a      	ldr	r2, [r3, #0]
 800411c:	07d2      	lsls	r2, r2, #31
 800411e:	d4f7      	bmi.n	8004110 <HAL_DMA_IRQHandler+0x458>
 8004120:	681b      	ldr	r3, [r3, #0]
 8004122:	07df      	lsls	r7, r3, #31
 8004124:	bf4c      	ite	mi
 8004126:	2303      	movmi	r3, #3
 8004128:	2301      	movpl	r3, #1
 800412a:	f884 3035 	strb.w	r3, [r4, #53]	; 0x35
 800412e:	2300      	movs	r3, #0
 8004130:	f884 3034 	strb.w	r3, [r4, #52]	; 0x34
 8004134:	6ce3      	ldr	r3, [r4, #76]	; 0x4c
 8004136:	e798      	b.n	800406a <HAL_DMA_IRQHandler+0x3b2>
 8004138:	681a      	ldr	r2, [r3, #0]
 800413a:	f412 7280 	ands.w	r2, r2, #256	; 0x100
 800413e:	d108      	bne.n	8004152 <HAL_DMA_IRQHandler+0x49a>
 8004140:	6819      	ldr	r1, [r3, #0]
 8004142:	f021 0110 	bic.w	r1, r1, #16
 8004146:	6019      	str	r1, [r3, #0]
 8004148:	2301      	movs	r3, #1
 800414a:	f884 2034 	strb.w	r2, [r4, #52]	; 0x34
 800414e:	f884 3035 	strb.w	r3, [r4, #53]	; 0x35
 8004152:	6be3      	ldr	r3, [r4, #60]	; 0x3c
 8004154:	e7a5      	b.n	80040a2 <HAL_DMA_IRQHandler+0x3ea>
 8004156:	4a3b      	ldr	r2, [pc, #236]	; (8004244 <HAL_DMA_IRQHandler+0x58c>)
 8004158:	4293      	cmp	r3, r2
 800415a:	f43f adef 	beq.w	8003d3c <HAL_DMA_IRQHandler+0x84>
 800415e:	3214      	adds	r2, #20
 8004160:	4293      	cmp	r3, r2
 8004162:	f43f adeb 	beq.w	8003d3c <HAL_DMA_IRQHandler+0x84>
 8004166:	3214      	adds	r2, #20
 8004168:	4293      	cmp	r3, r2
 800416a:	f43f ade7 	beq.w	8003d3c <HAL_DMA_IRQHandler+0x84>
 800416e:	3214      	adds	r2, #20
 8004170:	4293      	cmp	r3, r2
 8004172:	f43f ade3 	beq.w	8003d3c <HAL_DMA_IRQHandler+0x84>
 8004176:	3214      	adds	r2, #20
 8004178:	4293      	cmp	r3, r2
 800417a:	f43f addf 	beq.w	8003d3c <HAL_DMA_IRQHandler+0x84>
 800417e:	3214      	adds	r2, #20
 8004180:	4293      	cmp	r3, r2
 8004182:	f43f addb 	beq.w	8003d3c <HAL_DMA_IRQHandler+0x84>
 8004186:	3214      	adds	r2, #20
 8004188:	4293      	cmp	r3, r2
 800418a:	f43f add7 	beq.w	8003d3c <HAL_DMA_IRQHandler+0x84>
 800418e:	4a2e      	ldr	r2, [pc, #184]	; (8004248 <HAL_DMA_IRQHandler+0x590>)
 8004190:	4293      	cmp	r3, r2
 8004192:	f43f add3 	beq.w	8003d3c <HAL_DMA_IRQHandler+0x84>
 8004196:	3214      	adds	r2, #20
 8004198:	4293      	cmp	r3, r2
 800419a:	f43f adcf 	beq.w	8003d3c <HAL_DMA_IRQHandler+0x84>
 800419e:	3214      	adds	r2, #20
 80041a0:	4293      	cmp	r3, r2
 80041a2:	f43f adcb 	beq.w	8003d3c <HAL_DMA_IRQHandler+0x84>
 80041a6:	3214      	adds	r2, #20
 80041a8:	4293      	cmp	r3, r2
 80041aa:	f43f adc7 	beq.w	8003d3c <HAL_DMA_IRQHandler+0x84>
 80041ae:	3214      	adds	r2, #20
 80041b0:	4293      	cmp	r3, r2
 80041b2:	f43f adc3 	beq.w	8003d3c <HAL_DMA_IRQHandler+0x84>
 80041b6:	3214      	adds	r2, #20
 80041b8:	4293      	cmp	r3, r2
 80041ba:	f43f adbf 	beq.w	8003d3c <HAL_DMA_IRQHandler+0x84>
 80041be:	3214      	adds	r2, #20
 80041c0:	4293      	cmp	r3, r2
 80041c2:	f43f adbb 	beq.w	8003d3c <HAL_DMA_IRQHandler+0x84>
 80041c6:	3214      	adds	r2, #20
 80041c8:	4293      	cmp	r3, r2
 80041ca:	f43f adb7 	beq.w	8003d3c <HAL_DMA_IRQHandler+0x84>
 80041ce:	b002      	add	sp, #8
 80041d0:	e8bd 81f0 	ldmia.w	sp!, {r4, r5, r6, r7, r8, pc}
 80041d4:	0697      	lsls	r7, r2, #26
 80041d6:	d403      	bmi.n	80041e0 <HAL_DMA_IRQHandler+0x528>
 80041d8:	681a      	ldr	r2, [r3, #0]
 80041da:	f022 0204 	bic.w	r2, r2, #4
 80041de:	601a      	str	r2, [r3, #0]
 80041e0:	6c23      	ldr	r3, [r4, #64]	; 0x40
 80041e2:	e742      	b.n	800406a <HAL_DMA_IRQHandler+0x3b2>
 80041e4:	2002      	movs	r0, #2
 80041e6:	4088      	lsls	r0, r1
 80041e8:	ea10 0f0c 	tst.w	r0, ip
 80041ec:	d016      	beq.n	800421c <HAL_DMA_IRQHandler+0x564>
 80041ee:	0796      	lsls	r6, r2, #30
 80041f0:	d514      	bpl.n	800421c <HAL_DMA_IRQHandler+0x564>
 80041f2:	6068      	str	r0, [r5, #4]
 80041f4:	0410      	lsls	r0, r2, #16
 80041f6:	d503      	bpl.n	8004200 <HAL_DMA_IRQHandler+0x548>
 80041f8:	03d1      	lsls	r1, r2, #15
 80041fa:	d40d      	bmi.n	8004218 <HAL_DMA_IRQHandler+0x560>
 80041fc:	6c63      	ldr	r3, [r4, #68]	; 0x44
 80041fe:	e734      	b.n	800406a <HAL_DMA_IRQHandler+0x3b2>
 8004200:	f012 0220 	ands.w	r2, r2, #32
 8004204:	d108      	bne.n	8004218 <HAL_DMA_IRQHandler+0x560>
 8004206:	6819      	ldr	r1, [r3, #0]
 8004208:	f021 010a 	bic.w	r1, r1, #10
 800420c:	6019      	str	r1, [r3, #0]
 800420e:	2301      	movs	r3, #1
 8004210:	f884 2034 	strb.w	r2, [r4, #52]	; 0x34
 8004214:	f884 3035 	strb.w	r3, [r4, #53]	; 0x35
 8004218:	6be3      	ldr	r3, [r4, #60]	; 0x3c
 800421a:	e726      	b.n	800406a <HAL_DMA_IRQHandler+0x3b2>
 800421c:	2008      	movs	r0, #8
 800421e:	4088      	lsls	r0, r1
 8004220:	ea10 0f0c 	tst.w	r0, ip
 8004224:	d0d3      	beq.n	80041ce <HAL_DMA_IRQHandler+0x516>
 8004226:	0712      	lsls	r2, r2, #28
 8004228:	d5d1      	bpl.n	80041ce <HAL_DMA_IRQHandler+0x516>
 800422a:	681a      	ldr	r2, [r3, #0]
 800422c:	f022 020e 	bic.w	r2, r2, #14
 8004230:	601a      	str	r2, [r3, #0]
 8004232:	2301      	movs	r3, #1
 8004234:	fa03 f101 	lsl.w	r1, r3, r1
 8004238:	6069      	str	r1, [r5, #4]
 800423a:	6563      	str	r3, [r4, #84]	; 0x54
 800423c:	e775      	b.n	800412a <HAL_DMA_IRQHandler+0x472>
 800423e:	bf00      	nop
 8004240:	40020028 	.word	0x40020028
 8004244:	48022c1c 	.word	0x48022c1c
 8004248:	58025408 	.word	0x58025408

0800424c <DMA2D_SetConfig>:
 800424c:	b570      	push	{r4, r5, r6, lr}
 800424e:	6804      	ldr	r4, [r0, #0]
 8004250:	9d04      	ldr	r5, [sp, #16]
 8004252:	6c66      	ldr	r6, [r4, #68]	; 0x44
 8004254:	ea45 4303 	orr.w	r3, r5, r3, lsl #16
 8004258:	f006 4640 	and.w	r6, r6, #3221225472	; 0xc0000000
 800425c:	4333      	orrs	r3, r6
 800425e:	6463      	str	r3, [r4, #68]	; 0x44
 8004260:	6843      	ldr	r3, [r0, #4]
 8004262:	63e2      	str	r2, [r4, #60]	; 0x3c
 8004264:	f5b3 3f40 	cmp.w	r3, #196608	; 0x30000
 8004268:	d130      	bne.n	80042cc <DMA2D_SetConfig+0x80>
 800426a:	6886      	ldr	r6, [r0, #8]
 800426c:	b11e      	cbz	r6, 8004276 <DMA2D_SetConfig+0x2a>
 800426e:	2e01      	cmp	r6, #1
 8004270:	d103      	bne.n	800427a <DMA2D_SetConfig+0x2e>
 8004272:	f021 417f 	bic.w	r1, r1, #4278190080	; 0xff000000
 8004276:	63a1      	str	r1, [r4, #56]	; 0x38
 8004278:	bd70      	pop	{r4, r5, r6, pc}
 800427a:	2e02      	cmp	r6, #2
 800427c:	f401 037f 	and.w	r3, r1, #16711680	; 0xff0000
 8004280:	f401 457f 	and.w	r5, r1, #65280	; 0xff00
 8004284:	b2c8      	uxtb	r0, r1
 8004286:	d107      	bne.n	8004298 <DMA2D_SetConfig+0x4c>
 8004288:	0cdb      	lsrs	r3, r3, #19
 800428a:	0aa9      	lsrs	r1, r5, #10
 800428c:	02db      	lsls	r3, r3, #11
 800428e:	ea43 1341 	orr.w	r3, r3, r1, lsl #5
 8004292:	ea43 01d0 	orr.w	r1, r3, r0, lsr #3
 8004296:	e7ee      	b.n	8004276 <DMA2D_SetConfig+0x2a>
 8004298:	2e03      	cmp	r6, #3
 800429a:	f001 427f 	and.w	r2, r1, #4278190080	; 0xff000000
 800429e:	d10a      	bne.n	80042b6 <DMA2D_SetConfig+0x6a>
 80042a0:	0cd9      	lsrs	r1, r3, #19
 80042a2:	0aed      	lsrs	r5, r5, #11
 80042a4:	0289      	lsls	r1, r1, #10
 80042a6:	0fd3      	lsrs	r3, r2, #31
 80042a8:	ea41 1145 	orr.w	r1, r1, r5, lsl #5
 80042ac:	ea41 01d0 	orr.w	r1, r1, r0, lsr #3
 80042b0:	ea41 31c3 	orr.w	r1, r1, r3, lsl #15
 80042b4:	e7df      	b.n	8004276 <DMA2D_SetConfig+0x2a>
 80042b6:	0d19      	lsrs	r1, r3, #20
 80042b8:	0b2d      	lsrs	r5, r5, #12
 80042ba:	0209      	lsls	r1, r1, #8
 80042bc:	0f13      	lsrs	r3, r2, #28
 80042be:	ea41 1105 	orr.w	r1, r1, r5, lsl #4
 80042c2:	ea41 1110 	orr.w	r1, r1, r0, lsr #4
 80042c6:	ea41 3103 	orr.w	r1, r1, r3, lsl #12
 80042ca:	e7d4      	b.n	8004276 <DMA2D_SetConfig+0x2a>
 80042cc:	f5b3 2f80 	cmp.w	r3, #262144	; 0x40000
 80042d0:	d101      	bne.n	80042d6 <DMA2D_SetConfig+0x8a>
 80042d2:	6161      	str	r1, [r4, #20]
 80042d4:	e7d0      	b.n	8004278 <DMA2D_SetConfig+0x2c>
 80042d6:	60e1      	str	r1, [r4, #12]
 80042d8:	e7ce      	b.n	8004278 <DMA2D_SetConfig+0x2c>

080042da <HAL_DMA2D_Init>:
 80042da:	b510      	push	{r4, lr}
 80042dc:	4604      	mov	r4, r0
 80042de:	2800      	cmp	r0, #0
 80042e0:	d036      	beq.n	8004350 <HAL_DMA2D_Init+0x76>
 80042e2:	f890 3061 	ldrb.w	r3, [r0, #97]	; 0x61
 80042e6:	f003 02ff 	and.w	r2, r3, #255	; 0xff
 80042ea:	b91b      	cbnz	r3, 80042f4 <HAL_DMA2D_Init+0x1a>
 80042ec:	f880 2060 	strb.w	r2, [r0, #96]	; 0x60
 80042f0:	f7fc faa6 	bl	8000840 <HAL_DMA2D_MspInit>
 80042f4:	2302      	movs	r3, #2
 80042f6:	69e0      	ldr	r0, [r4, #28]
 80042f8:	6862      	ldr	r2, [r4, #4]
 80042fa:	f884 3061 	strb.w	r3, [r4, #97]	; 0x61
 80042fe:	6823      	ldr	r3, [r4, #0]
 8004300:	4302      	orrs	r2, r0
 8004302:	69a0      	ldr	r0, [r4, #24]
 8004304:	6819      	ldr	r1, [r3, #0]
 8004306:	f421 21e0 	bic.w	r1, r1, #458752	; 0x70000
 800430a:	f021 0140 	bic.w	r1, r1, #64	; 0x40
 800430e:	430a      	orrs	r2, r1
 8004310:	601a      	str	r2, [r3, #0]
 8004312:	6b59      	ldr	r1, [r3, #52]	; 0x34
 8004314:	68a2      	ldr	r2, [r4, #8]
 8004316:	f421 7183 	bic.w	r1, r1, #262	; 0x106
 800431a:	4302      	orrs	r2, r0
 800431c:	f021 0101 	bic.w	r1, r1, #1
 8004320:	430a      	orrs	r2, r1
 8004322:	68e1      	ldr	r1, [r4, #12]
 8004324:	635a      	str	r2, [r3, #52]	; 0x34
 8004326:	6c1a      	ldr	r2, [r3, #64]	; 0x40
 8004328:	0c12      	lsrs	r2, r2, #16
 800432a:	0412      	lsls	r2, r2, #16
 800432c:	430a      	orrs	r2, r1
 800432e:	641a      	str	r2, [r3, #64]	; 0x40
 8004330:	6b59      	ldr	r1, [r3, #52]	; 0x34
 8004332:	e9d4 0204 	ldrd	r0, r2, [r4, #16]
 8004336:	f421 1140 	bic.w	r1, r1, #3145728	; 0x300000
 800433a:	0552      	lsls	r2, r2, #21
 800433c:	ea42 5200 	orr.w	r2, r2, r0, lsl #20
 8004340:	2000      	movs	r0, #0
 8004342:	430a      	orrs	r2, r1
 8004344:	635a      	str	r2, [r3, #52]	; 0x34
 8004346:	2301      	movs	r3, #1
 8004348:	6660      	str	r0, [r4, #100]	; 0x64
 800434a:	f884 3061 	strb.w	r3, [r4, #97]	; 0x61
 800434e:	bd10      	pop	{r4, pc}
 8004350:	2001      	movs	r0, #1
 8004352:	e7fc      	b.n	800434e <HAL_DMA2D_Init+0x74>

08004354 <HAL_DMA2D_Start>:
 8004354:	b573      	push	{r0, r1, r4, r5, r6, lr}
 8004356:	f890 5060 	ldrb.w	r5, [r0, #96]	; 0x60
 800435a:	4604      	mov	r4, r0
 800435c:	2d01      	cmp	r5, #1
 800435e:	f04f 0502 	mov.w	r5, #2
 8004362:	d00f      	beq.n	8004384 <HAL_DMA2D_Start+0x30>
 8004364:	f880 5061 	strb.w	r5, [r0, #97]	; 0x61
 8004368:	2601      	movs	r6, #1
 800436a:	9d06      	ldr	r5, [sp, #24]
 800436c:	f880 6060 	strb.w	r6, [r0, #96]	; 0x60
 8004370:	9500      	str	r5, [sp, #0]
 8004372:	f7ff ff6b 	bl	800424c <DMA2D_SetConfig>
 8004376:	6822      	ldr	r2, [r4, #0]
 8004378:	2000      	movs	r0, #0
 800437a:	6813      	ldr	r3, [r2, #0]
 800437c:	4333      	orrs	r3, r6
 800437e:	6013      	str	r3, [r2, #0]
 8004380:	b002      	add	sp, #8
 8004382:	bd70      	pop	{r4, r5, r6, pc}
 8004384:	4628      	mov	r0, r5
 8004386:	e7fb      	b.n	8004380 <HAL_DMA2D_Start+0x2c>

08004388 <HAL_DMA2D_PollForTransfer>:
 8004388:	2300      	movs	r3, #0
 800438a:	b573      	push	{r0, r1, r4, r5, r6, lr}
 800438c:	9301      	str	r3, [sp, #4]
 800438e:	4604      	mov	r4, r0
 8004390:	6803      	ldr	r3, [r0, #0]
 8004392:	460d      	mov	r5, r1
 8004394:	681b      	ldr	r3, [r3, #0]
 8004396:	07db      	lsls	r3, r3, #31
 8004398:	d417      	bmi.n	80043ca <HAL_DMA2D_PollForTransfer+0x42>
 800439a:	6822      	ldr	r2, [r4, #0]
 800439c:	69d3      	ldr	r3, [r2, #28]
 800439e:	6a52      	ldr	r2, [r2, #36]	; 0x24
 80043a0:	4313      	orrs	r3, r2
 80043a2:	069e      	lsls	r6, r3, #26
 80043a4:	d506      	bpl.n	80043b4 <HAL_DMA2D_PollForTransfer+0x2c>
 80043a6:	f7fe fb81 	bl	8002aac <HAL_GetTick>
 80043aa:	4606      	mov	r6, r0
 80043ac:	6823      	ldr	r3, [r4, #0]
 80043ae:	685a      	ldr	r2, [r3, #4]
 80043b0:	06d2      	lsls	r2, r2, #27
 80043b2:	d543      	bpl.n	800443c <HAL_DMA2D_PollForTransfer+0xb4>
 80043b4:	6823      	ldr	r3, [r4, #0]
 80043b6:	2212      	movs	r2, #18
 80043b8:	2000      	movs	r0, #0
 80043ba:	609a      	str	r2, [r3, #8]
 80043bc:	2301      	movs	r3, #1
 80043be:	f884 0060 	strb.w	r0, [r4, #96]	; 0x60
 80043c2:	f884 3061 	strb.w	r3, [r4, #97]	; 0x61
 80043c6:	b002      	add	sp, #8
 80043c8:	bd70      	pop	{r4, r5, r6, pc}
 80043ca:	f7fe fb6f 	bl	8002aac <HAL_GetTick>
 80043ce:	4606      	mov	r6, r0
 80043d0:	6823      	ldr	r3, [r4, #0]
 80043d2:	685a      	ldr	r2, [r3, #4]
 80043d4:	0792      	lsls	r2, r2, #30
 80043d6:	d4e0      	bmi.n	800439a <HAL_DMA2D_PollForTransfer+0x12>
 80043d8:	685a      	ldr	r2, [r3, #4]
 80043da:	9201      	str	r2, [sp, #4]
 80043dc:	9a01      	ldr	r2, [sp, #4]
 80043de:	f012 0f21 	tst.w	r2, #33	; 0x21
 80043e2:	d017      	beq.n	8004414 <HAL_DMA2D_PollForTransfer+0x8c>
 80043e4:	9a01      	ldr	r2, [sp, #4]
 80043e6:	0695      	lsls	r5, r2, #26
 80043e8:	d503      	bpl.n	80043f2 <HAL_DMA2D_PollForTransfer+0x6a>
 80043ea:	6e62      	ldr	r2, [r4, #100]	; 0x64
 80043ec:	f042 0202 	orr.w	r2, r2, #2
 80043f0:	6662      	str	r2, [r4, #100]	; 0x64
 80043f2:	9a01      	ldr	r2, [sp, #4]
 80043f4:	07d0      	lsls	r0, r2, #31
 80043f6:	d503      	bpl.n	8004400 <HAL_DMA2D_PollForTransfer+0x78>
 80043f8:	6e62      	ldr	r2, [r4, #100]	; 0x64
 80043fa:	f042 0201 	orr.w	r2, r2, #1
 80043fe:	6662      	str	r2, [r4, #100]	; 0x64
 8004400:	2221      	movs	r2, #33	; 0x21
 8004402:	609a      	str	r2, [r3, #8]
 8004404:	2304      	movs	r3, #4
 8004406:	2001      	movs	r0, #1
 8004408:	f884 3061 	strb.w	r3, [r4, #97]	; 0x61
 800440c:	2300      	movs	r3, #0
 800440e:	f884 3060 	strb.w	r3, [r4, #96]	; 0x60
 8004412:	e7d8      	b.n	80043c6 <HAL_DMA2D_PollForTransfer+0x3e>
 8004414:	1c69      	adds	r1, r5, #1
 8004416:	d0dc      	beq.n	80043d2 <HAL_DMA2D_PollForTransfer+0x4a>
 8004418:	f7fe fb48 	bl	8002aac <HAL_GetTick>
 800441c:	1b80      	subs	r0, r0, r6
 800441e:	42a8      	cmp	r0, r5
 8004420:	d801      	bhi.n	8004426 <HAL_DMA2D_PollForTransfer+0x9e>
 8004422:	2d00      	cmp	r5, #0
 8004424:	d1d4      	bne.n	80043d0 <HAL_DMA2D_PollForTransfer+0x48>
 8004426:	6e63      	ldr	r3, [r4, #100]	; 0x64
 8004428:	2003      	movs	r0, #3
 800442a:	f043 0320 	orr.w	r3, r3, #32
 800442e:	6663      	str	r3, [r4, #100]	; 0x64
 8004430:	2300      	movs	r3, #0
 8004432:	f884 0061 	strb.w	r0, [r4, #97]	; 0x61
 8004436:	f884 3060 	strb.w	r3, [r4, #96]	; 0x60
 800443a:	e7c4      	b.n	80043c6 <HAL_DMA2D_PollForTransfer+0x3e>
 800443c:	685a      	ldr	r2, [r3, #4]
 800443e:	9201      	str	r2, [sp, #4]
 8004440:	9a01      	ldr	r2, [sp, #4]
 8004442:	f012 0f29 	tst.w	r2, #41	; 0x29
 8004446:	d016      	beq.n	8004476 <HAL_DMA2D_PollForTransfer+0xee>
 8004448:	9a01      	ldr	r2, [sp, #4]
 800444a:	0716      	lsls	r6, r2, #28
 800444c:	d503      	bpl.n	8004456 <HAL_DMA2D_PollForTransfer+0xce>
 800444e:	6e62      	ldr	r2, [r4, #100]	; 0x64
 8004450:	f042 0204 	orr.w	r2, r2, #4
 8004454:	6662      	str	r2, [r4, #100]	; 0x64
 8004456:	9a01      	ldr	r2, [sp, #4]
 8004458:	0695      	lsls	r5, r2, #26
 800445a:	d503      	bpl.n	8004464 <HAL_DMA2D_PollForTransfer+0xdc>
 800445c:	6e62      	ldr	r2, [r4, #100]	; 0x64
 800445e:	f042 0202 	orr.w	r2, r2, #2
 8004462:	6662      	str	r2, [r4, #100]	; 0x64
 8004464:	9a01      	ldr	r2, [sp, #4]
 8004466:	07d0      	lsls	r0, r2, #31
 8004468:	d503      	bpl.n	8004472 <HAL_DMA2D_PollForTransfer+0xea>
 800446a:	6e62      	ldr	r2, [r4, #100]	; 0x64
 800446c:	f042 0201 	orr.w	r2, r2, #1
 8004470:	6662      	str	r2, [r4, #100]	; 0x64
 8004472:	2229      	movs	r2, #41	; 0x29
 8004474:	e7c5      	b.n	8004402 <HAL_DMA2D_PollForTransfer+0x7a>
 8004476:	1c69      	adds	r1, r5, #1
 8004478:	d099      	beq.n	80043ae <HAL_DMA2D_PollForTransfer+0x26>
 800447a:	f7fe fb17 	bl	8002aac <HAL_GetTick>
 800447e:	1b80      	subs	r0, r0, r6
 8004480:	42a8      	cmp	r0, r5
 8004482:	d8d0      	bhi.n	8004426 <HAL_DMA2D_PollForTransfer+0x9e>
 8004484:	2d00      	cmp	r5, #0
 8004486:	d191      	bne.n	80043ac <HAL_DMA2D_PollForTransfer+0x24>
 8004488:	e7cd      	b.n	8004426 <HAL_DMA2D_PollForTransfer+0x9e>

0800448a <HAL_DMA2D_LineEventCallback>:
 800448a:	4770      	bx	lr

0800448c <HAL_DMA2D_CLUTLoadingCpltCallback>:
 800448c:	4770      	bx	lr

0800448e <HAL_DMA2D_IRQHandler>:
 800448e:	6803      	ldr	r3, [r0, #0]
 8004490:	b570      	push	{r4, r5, r6, lr}
 8004492:	685e      	ldr	r6, [r3, #4]
 8004494:	4604      	mov	r4, r0
 8004496:	681d      	ldr	r5, [r3, #0]
 8004498:	07f2      	lsls	r2, r6, #31
 800449a:	d514      	bpl.n	80044c6 <HAL_DMA2D_IRQHandler+0x38>
 800449c:	05e9      	lsls	r1, r5, #23
 800449e:	d512      	bpl.n	80044c6 <HAL_DMA2D_IRQHandler+0x38>
 80044a0:	681a      	ldr	r2, [r3, #0]
 80044a2:	f422 7280 	bic.w	r2, r2, #256	; 0x100
 80044a6:	601a      	str	r2, [r3, #0]
 80044a8:	6e42      	ldr	r2, [r0, #100]	; 0x64
 80044aa:	f042 0201 	orr.w	r2, r2, #1
 80044ae:	6642      	str	r2, [r0, #100]	; 0x64
 80044b0:	2201      	movs	r2, #1
 80044b2:	609a      	str	r2, [r3, #8]
 80044b4:	2304      	movs	r3, #4
 80044b6:	f880 3061 	strb.w	r3, [r0, #97]	; 0x61
 80044ba:	2300      	movs	r3, #0
 80044bc:	f880 3060 	strb.w	r3, [r0, #96]	; 0x60
 80044c0:	6a43      	ldr	r3, [r0, #36]	; 0x24
 80044c2:	b103      	cbz	r3, 80044c6 <HAL_DMA2D_IRQHandler+0x38>
 80044c4:	4798      	blx	r3
 80044c6:	06b2      	lsls	r2, r6, #26
 80044c8:	d516      	bpl.n	80044f8 <HAL_DMA2D_IRQHandler+0x6a>
 80044ca:	04ab      	lsls	r3, r5, #18
 80044cc:	d514      	bpl.n	80044f8 <HAL_DMA2D_IRQHandler+0x6a>
 80044ce:	6823      	ldr	r3, [r4, #0]
 80044d0:	681a      	ldr	r2, [r3, #0]
 80044d2:	f422 5200 	bic.w	r2, r2, #8192	; 0x2000
 80044d6:	601a      	str	r2, [r3, #0]
 80044d8:	2220      	movs	r2, #32
 80044da:	609a      	str	r2, [r3, #8]
 80044dc:	6e63      	ldr	r3, [r4, #100]	; 0x64
 80044de:	f043 0302 	orr.w	r3, r3, #2
 80044e2:	6663      	str	r3, [r4, #100]	; 0x64
 80044e4:	2304      	movs	r3, #4
 80044e6:	f884 3061 	strb.w	r3, [r4, #97]	; 0x61
 80044ea:	2300      	movs	r3, #0
 80044ec:	f884 3060 	strb.w	r3, [r4, #96]	; 0x60
 80044f0:	6a63      	ldr	r3, [r4, #36]	; 0x24
 80044f2:	b10b      	cbz	r3, 80044f8 <HAL_DMA2D_IRQHandler+0x6a>
 80044f4:	4620      	mov	r0, r4
 80044f6:	4798      	blx	r3
 80044f8:	0730      	lsls	r0, r6, #28
 80044fa:	d516      	bpl.n	800452a <HAL_DMA2D_IRQHandler+0x9c>
 80044fc:	0529      	lsls	r1, r5, #20
 80044fe:	d514      	bpl.n	800452a <HAL_DMA2D_IRQHandler+0x9c>
 8004500:	6823      	ldr	r3, [r4, #0]
 8004502:	681a      	ldr	r2, [r3, #0]
 8004504:	f422 6200 	bic.w	r2, r2, #2048	; 0x800
 8004508:	601a      	str	r2, [r3, #0]
 800450a:	2208      	movs	r2, #8
 800450c:	609a      	str	r2, [r3, #8]
 800450e:	6e63      	ldr	r3, [r4, #100]	; 0x64
 8004510:	f043 0304 	orr.w	r3, r3, #4
 8004514:	6663      	str	r3, [r4, #100]	; 0x64
 8004516:	2304      	movs	r3, #4
 8004518:	f884 3061 	strb.w	r3, [r4, #97]	; 0x61
 800451c:	2300      	movs	r3, #0
 800451e:	f884 3060 	strb.w	r3, [r4, #96]	; 0x60
 8004522:	6a63      	ldr	r3, [r4, #36]	; 0x24
 8004524:	b10b      	cbz	r3, 800452a <HAL_DMA2D_IRQHandler+0x9c>
 8004526:	4620      	mov	r0, r4
 8004528:	4798      	blx	r3
 800452a:	0772      	lsls	r2, r6, #29
 800452c:	d50b      	bpl.n	8004546 <HAL_DMA2D_IRQHandler+0xb8>
 800452e:	056b      	lsls	r3, r5, #21
 8004530:	d509      	bpl.n	8004546 <HAL_DMA2D_IRQHandler+0xb8>
 8004532:	6823      	ldr	r3, [r4, #0]
 8004534:	4620      	mov	r0, r4
 8004536:	681a      	ldr	r2, [r3, #0]
 8004538:	f422 6280 	bic.w	r2, r2, #1024	; 0x400
 800453c:	601a      	str	r2, [r3, #0]
 800453e:	2204      	movs	r2, #4
 8004540:	609a      	str	r2, [r3, #8]
 8004542:	f7ff ffa2 	bl	800448a <HAL_DMA2D_LineEventCallback>
 8004546:	07b0      	lsls	r0, r6, #30
 8004548:	d514      	bpl.n	8004574 <HAL_DMA2D_IRQHandler+0xe6>
 800454a:	05a9      	lsls	r1, r5, #22
 800454c:	d512      	bpl.n	8004574 <HAL_DMA2D_IRQHandler+0xe6>
 800454e:	6823      	ldr	r3, [r4, #0]
 8004550:	681a      	ldr	r2, [r3, #0]
 8004552:	f422 7200 	bic.w	r2, r2, #512	; 0x200
 8004556:	601a      	str	r2, [r3, #0]
 8004558:	2202      	movs	r2, #2
 800455a:	609a      	str	r2, [r3, #8]
 800455c:	6e63      	ldr	r3, [r4, #100]	; 0x64
 800455e:	6663      	str	r3, [r4, #100]	; 0x64
 8004560:	2301      	movs	r3, #1
 8004562:	f884 3061 	strb.w	r3, [r4, #97]	; 0x61
 8004566:	2300      	movs	r3, #0
 8004568:	f884 3060 	strb.w	r3, [r4, #96]	; 0x60
 800456c:	6a23      	ldr	r3, [r4, #32]
 800456e:	b10b      	cbz	r3, 8004574 <HAL_DMA2D_IRQHandler+0xe6>
 8004570:	4620      	mov	r0, r4
 8004572:	4798      	blx	r3
 8004574:	06f2      	lsls	r2, r6, #27
 8004576:	d513      	bpl.n	80045a0 <HAL_DMA2D_IRQHandler+0x112>
 8004578:	04eb      	lsls	r3, r5, #19
 800457a:	d511      	bpl.n	80045a0 <HAL_DMA2D_IRQHandler+0x112>
 800457c:	6823      	ldr	r3, [r4, #0]
 800457e:	4620      	mov	r0, r4
 8004580:	681a      	ldr	r2, [r3, #0]
 8004582:	f422 5280 	bic.w	r2, r2, #4096	; 0x1000
 8004586:	601a      	str	r2, [r3, #0]
 8004588:	2210      	movs	r2, #16
 800458a:	609a      	str	r2, [r3, #8]
 800458c:	6e63      	ldr	r3, [r4, #100]	; 0x64
 800458e:	6663      	str	r3, [r4, #100]	; 0x64
 8004590:	2301      	movs	r3, #1
 8004592:	f884 3061 	strb.w	r3, [r4, #97]	; 0x61
 8004596:	2300      	movs	r3, #0
 8004598:	f884 3060 	strb.w	r3, [r4, #96]	; 0x60
 800459c:	f7ff ff76 	bl	800448c <HAL_DMA2D_CLUTLoadingCpltCallback>
 80045a0:	bd70      	pop	{r4, r5, r6, pc}
	...

080045a4 <HAL_DMA2D_ConfigLayer>:
 80045a4:	b570      	push	{r4, r5, r6, lr}
 80045a6:	f890 3060 	ldrb.w	r3, [r0, #96]	; 0x60
 80045aa:	2b01      	cmp	r3, #1
 80045ac:	f04f 0302 	mov.w	r3, #2
 80045b0:	d032      	beq.n	8004618 <HAL_DMA2D_ConfigLayer+0x74>
 80045b2:	241c      	movs	r4, #28
 80045b4:	2201      	movs	r2, #1
 80045b6:	f880 3061 	strb.w	r3, [r0, #97]	; 0x61
 80045ba:	fb04 0401 	mla	r4, r4, r1, r0
 80045be:	f880 2060 	strb.w	r2, [r0, #96]	; 0x60
 80045c2:	6ba2      	ldr	r2, [r4, #56]	; 0x38
 80045c4:	e9d4 650b 	ldrd	r6, r5, [r4, #44]	; 0x2c
 80045c8:	0513      	lsls	r3, r2, #20
 80045ca:	6be2      	ldr	r2, [r4, #60]	; 0x3c
 80045cc:	ea43 4305 	orr.w	r3, r3, r5, lsl #16
 80045d0:	f1a6 0509 	sub.w	r5, r6, #9
 80045d4:	4333      	orrs	r3, r6
 80045d6:	2d01      	cmp	r5, #1
 80045d8:	ea43 5342 	orr.w	r3, r3, r2, lsl #21
 80045dc:	6b62      	ldr	r2, [r4, #52]	; 0x34
 80045de:	bf96      	itet	ls
 80045e0:	f002 427f 	andls.w	r2, r2, #4278190080	; 0xff000000
 80045e4:	ea43 6302 	orrhi.w	r3, r3, r2, lsl #24
 80045e8:	4313      	orrls	r3, r2
 80045ea:	6802      	ldr	r2, [r0, #0]
 80045ec:	b9b1      	cbnz	r1, 800461c <HAL_DMA2D_ConfigLayer+0x78>
 80045ee:	6a54      	ldr	r4, [r2, #36]	; 0x24
 80045f0:	2d01      	cmp	r5, #1
 80045f2:	4919      	ldr	r1, [pc, #100]	; (8004658 <HAL_DMA2D_ConfigLayer+0xb4>)
 80045f4:	ea01 0104 	and.w	r1, r1, r4
 80045f8:	ea43 0301 	orr.w	r3, r3, r1
 80045fc:	6253      	str	r3, [r2, #36]	; 0x24
 80045fe:	6a83      	ldr	r3, [r0, #40]	; 0x28
 8004600:	6193      	str	r3, [r2, #24]
 8004602:	d803      	bhi.n	800460c <HAL_DMA2D_ConfigLayer+0x68>
 8004604:	6b43      	ldr	r3, [r0, #52]	; 0x34
 8004606:	f023 437f 	bic.w	r3, r3, #4278190080	; 0xff000000
 800460a:	6293      	str	r3, [r2, #40]	; 0x28
 800460c:	2301      	movs	r3, #1
 800460e:	f880 3061 	strb.w	r3, [r0, #97]	; 0x61
 8004612:	2300      	movs	r3, #0
 8004614:	f880 3060 	strb.w	r3, [r0, #96]	; 0x60
 8004618:	4618      	mov	r0, r3
 800461a:	bd70      	pop	{r4, r5, r6, pc}
 800461c:	2e0b      	cmp	r6, #11
 800461e:	bf05      	ittet	eq
 8004620:	241c      	moveq	r4, #28
 8004622:	4e0e      	ldreq	r6, [pc, #56]	; (800465c <HAL_DMA2D_ConfigLayer+0xb8>)
 8004624:	4e0e      	ldrne	r6, [pc, #56]	; (8004660 <HAL_DMA2D_ConfigLayer+0xbc>)
 8004626:	fb04 0401 	mlaeq	r4, r4, r1, r0
 800462a:	bf04      	itt	eq
 800462c:	6c24      	ldreq	r4, [r4, #64]	; 0x40
 800462e:	ea43 4384 	orreq.w	r3, r3, r4, lsl #18
 8004632:	69d4      	ldr	r4, [r2, #28]
 8004634:	2d01      	cmp	r5, #1
 8004636:	ea24 0406 	bic.w	r4, r4, r6
 800463a:	ea43 0304 	orr.w	r3, r3, r4
 800463e:	61d3      	str	r3, [r2, #28]
 8004640:	f04f 031c 	mov.w	r3, #28
 8004644:	fb03 0101 	mla	r1, r3, r1, r0
 8004648:	6a8b      	ldr	r3, [r1, #40]	; 0x28
 800464a:	6113      	str	r3, [r2, #16]
 800464c:	d8de      	bhi.n	800460c <HAL_DMA2D_ConfigLayer+0x68>
 800464e:	6b4b      	ldr	r3, [r1, #52]	; 0x34
 8004650:	f023 437f 	bic.w	r3, r3, #4278190080	; 0xff000000
 8004654:	6213      	str	r3, [r2, #32]
 8004656:	e7d9      	b.n	800460c <HAL_DMA2D_ConfigLayer+0x68>
 8004658:	00ccfff0 	.word	0x00ccfff0
 800465c:	ff3f000f 	.word	0xff3f000f
 8004660:	ff33000f 	.word	0xff33000f

08004664 <DMA_MultiBufferSetConfig>:
 8004664:	b530      	push	{r4, r5, lr}
 8004666:	6804      	ldr	r4, [r0, #0]
 8004668:	4d15      	ldr	r5, [pc, #84]	; (80046c0 <DMA_MultiBufferSetConfig+0x5c>)
 800466a:	6880      	ldr	r0, [r0, #8]
 800466c:	42ac      	cmp	r4, r5
 800466e:	d01e      	beq.n	80046ae <DMA_MultiBufferSetConfig+0x4a>
 8004670:	3518      	adds	r5, #24
 8004672:	42ac      	cmp	r4, r5
 8004674:	d01b      	beq.n	80046ae <DMA_MultiBufferSetConfig+0x4a>
 8004676:	3518      	adds	r5, #24
 8004678:	42ac      	cmp	r4, r5
 800467a:	d018      	beq.n	80046ae <DMA_MultiBufferSetConfig+0x4a>
 800467c:	3518      	adds	r5, #24
 800467e:	42ac      	cmp	r4, r5
 8004680:	d015      	beq.n	80046ae <DMA_MultiBufferSetConfig+0x4a>
 8004682:	3518      	adds	r5, #24
 8004684:	42ac      	cmp	r4, r5
 8004686:	d012      	beq.n	80046ae <DMA_MultiBufferSetConfig+0x4a>
 8004688:	3518      	adds	r5, #24
 800468a:	42ac      	cmp	r4, r5
 800468c:	d00f      	beq.n	80046ae <DMA_MultiBufferSetConfig+0x4a>
 800468e:	3518      	adds	r5, #24
 8004690:	42ac      	cmp	r4, r5
 8004692:	d00c      	beq.n	80046ae <DMA_MultiBufferSetConfig+0x4a>
 8004694:	3518      	adds	r5, #24
 8004696:	42ac      	cmp	r4, r5
 8004698:	d009      	beq.n	80046ae <DMA_MultiBufferSetConfig+0x4a>
 800469a:	f505 7556 	add.w	r5, r5, #856	; 0x358
 800469e:	42ac      	cmp	r4, r5
 80046a0:	d005      	beq.n	80046ae <DMA_MultiBufferSetConfig+0x4a>
 80046a2:	3518      	adds	r5, #24
 80046a4:	42ac      	cmp	r4, r5
 80046a6:	d002      	beq.n	80046ae <DMA_MultiBufferSetConfig+0x4a>
 80046a8:	3518      	adds	r5, #24
 80046aa:	42ac      	cmp	r4, r5
 80046ac:	d0ff      	beq.n	80046ae <DMA_MultiBufferSetConfig+0x4a>
 80046ae:	2840      	cmp	r0, #64	; 0x40
 80046b0:	6063      	str	r3, [r4, #4]
 80046b2:	d102      	bne.n	80046ba <DMA_MultiBufferSetConfig+0x56>
 80046b4:	60a2      	str	r2, [r4, #8]
 80046b6:	60e1      	str	r1, [r4, #12]
 80046b8:	bd30      	pop	{r4, r5, pc}
 80046ba:	60a1      	str	r1, [r4, #8]
 80046bc:	60e2      	str	r2, [r4, #12]
 80046be:	e7fb      	b.n	80046b8 <DMA_MultiBufferSetConfig+0x54>
 80046c0:	40020010 	.word	0x40020010

080046c4 <HAL_DMAEx_MultiBufferStart_IT>:
 80046c4:	b5f8      	push	{r3, r4, r5, r6, r7, lr}
 80046c6:	4604      	mov	r4, r0
 80046c8:	6880      	ldr	r0, [r0, #8]
 80046ca:	2880      	cmp	r0, #128	; 0x80
 80046cc:	d104      	bne.n	80046d8 <HAL_DMAEx_MultiBufferStart_IT+0x14>
 80046ce:	f44f 7380 	mov.w	r3, #256	; 0x100
 80046d2:	2001      	movs	r0, #1
 80046d4:	6563      	str	r3, [r4, #84]	; 0x54
 80046d6:	bdf8      	pop	{r3, r4, r5, r6, r7, pc}
 80046d8:	f894 0034 	ldrb.w	r0, [r4, #52]	; 0x34
 80046dc:	2801      	cmp	r0, #1
 80046de:	f000 81a1 	beq.w	8004a24 <HAL_DMAEx_MultiBufferStart_IT+0x360>
 80046e2:	2001      	movs	r0, #1
 80046e4:	f894 5035 	ldrb.w	r5, [r4, #53]	; 0x35
 80046e8:	4285      	cmp	r5, r0
 80046ea:	f884 0034 	strb.w	r0, [r4, #52]	; 0x34
 80046ee:	f040 8195 	bne.w	8004a1c <HAL_DMAEx_MultiBufferStart_IT+0x358>
 80046f2:	2002      	movs	r0, #2
 80046f4:	4d6d      	ldr	r5, [pc, #436]	; (80048ac <HAL_DMAEx_MultiBufferStart_IT+0x1e8>)
 80046f6:	f884 0035 	strb.w	r0, [r4, #53]	; 0x35
 80046fa:	2000      	movs	r0, #0
 80046fc:	6560      	str	r0, [r4, #84]	; 0x54
 80046fe:	6820      	ldr	r0, [r4, #0]
 8004700:	e9d4 c716 	ldrd	ip, r7, [r4, #88]	; 0x58
 8004704:	42a8      	cmp	r0, r5
 8004706:	f007 071f 	and.w	r7, r7, #31
 800470a:	f000 80c4 	beq.w	8004896 <HAL_DMAEx_MultiBufferStart_IT+0x1d2>
 800470e:	4e68      	ldr	r6, [pc, #416]	; (80048b0 <HAL_DMAEx_MultiBufferStart_IT+0x1ec>)
 8004710:	42b0      	cmp	r0, r6
 8004712:	f000 80c0 	beq.w	8004896 <HAL_DMAEx_MultiBufferStart_IT+0x1d2>
 8004716:	3618      	adds	r6, #24
 8004718:	42b0      	cmp	r0, r6
 800471a:	f000 80bc 	beq.w	8004896 <HAL_DMAEx_MultiBufferStart_IT+0x1d2>
 800471e:	3618      	adds	r6, #24
 8004720:	42b0      	cmp	r0, r6
 8004722:	f000 80b8 	beq.w	8004896 <HAL_DMAEx_MultiBufferStart_IT+0x1d2>
 8004726:	3618      	adds	r6, #24
 8004728:	42b0      	cmp	r0, r6
 800472a:	f000 80b4 	beq.w	8004896 <HAL_DMAEx_MultiBufferStart_IT+0x1d2>
 800472e:	3618      	adds	r6, #24
 8004730:	42b0      	cmp	r0, r6
 8004732:	f000 80b0 	beq.w	8004896 <HAL_DMAEx_MultiBufferStart_IT+0x1d2>
 8004736:	3618      	adds	r6, #24
 8004738:	42b0      	cmp	r0, r6
 800473a:	f000 80ac 	beq.w	8004896 <HAL_DMAEx_MultiBufferStart_IT+0x1d2>
 800473e:	3618      	adds	r6, #24
 8004740:	42b0      	cmp	r0, r6
 8004742:	f000 80a8 	beq.w	8004896 <HAL_DMAEx_MultiBufferStart_IT+0x1d2>
 8004746:	f506 7656 	add.w	r6, r6, #856	; 0x358
 800474a:	42b0      	cmp	r0, r6
 800474c:	f000 80a3 	beq.w	8004896 <HAL_DMAEx_MultiBufferStart_IT+0x1d2>
 8004750:	3618      	adds	r6, #24
 8004752:	42b0      	cmp	r0, r6
 8004754:	f000 809f 	beq.w	8004896 <HAL_DMAEx_MultiBufferStart_IT+0x1d2>
 8004758:	3618      	adds	r6, #24
 800475a:	42b0      	cmp	r0, r6
 800475c:	f000 809b 	beq.w	8004896 <HAL_DMAEx_MultiBufferStart_IT+0x1d2>
 8004760:	3618      	adds	r6, #24
 8004762:	42b0      	cmp	r0, r6
 8004764:	f000 8097 	beq.w	8004896 <HAL_DMAEx_MultiBufferStart_IT+0x1d2>
 8004768:	3618      	adds	r6, #24
 800476a:	42b0      	cmp	r0, r6
 800476c:	f000 8093 	beq.w	8004896 <HAL_DMAEx_MultiBufferStart_IT+0x1d2>
 8004770:	3618      	adds	r6, #24
 8004772:	42b0      	cmp	r0, r6
 8004774:	f000 808f 	beq.w	8004896 <HAL_DMAEx_MultiBufferStart_IT+0x1d2>
 8004778:	3618      	adds	r6, #24
 800477a:	42b0      	cmp	r0, r6
 800477c:	f000 808b 	beq.w	8004896 <HAL_DMAEx_MultiBufferStart_IT+0x1d2>
 8004780:	3618      	adds	r6, #24
 8004782:	42b0      	cmp	r0, r6
 8004784:	f000 8087 	beq.w	8004896 <HAL_DMAEx_MultiBufferStart_IT+0x1d2>
 8004788:	6806      	ldr	r6, [r0, #0]
 800478a:	f446 4600 	orr.w	r6, r6, #32768	; 0x8000
 800478e:	f046 0620 	orr.w	r6, r6, #32
 8004792:	6006      	str	r6, [r0, #0]
 8004794:	6103      	str	r3, [r0, #16]
 8004796:	2301      	movs	r3, #1
 8004798:	fa03 f707 	lsl.w	r7, r3, r7
 800479c:	f8cc 7004 	str.w	r7, [ip, #4]
 80047a0:	9b06      	ldr	r3, [sp, #24]
 80047a2:	4620      	mov	r0, r4
 80047a4:	f7ff ff5e 	bl	8004664 <DMA_MultiBufferSetConfig>
 80047a8:	6823      	ldr	r3, [r4, #0]
 80047aa:	6c21      	ldr	r1, [r4, #64]	; 0x40
 80047ac:	42ab      	cmp	r3, r5
 80047ae:	f000 8085 	beq.w	80048bc <HAL_DMAEx_MultiBufferStart_IT+0x1f8>
 80047b2:	4a3f      	ldr	r2, [pc, #252]	; (80048b0 <HAL_DMAEx_MultiBufferStart_IT+0x1ec>)
 80047b4:	4293      	cmp	r3, r2
 80047b6:	f000 8081 	beq.w	80048bc <HAL_DMAEx_MultiBufferStart_IT+0x1f8>
 80047ba:	3218      	adds	r2, #24
 80047bc:	4293      	cmp	r3, r2
 80047be:	d07d      	beq.n	80048bc <HAL_DMAEx_MultiBufferStart_IT+0x1f8>
 80047c0:	3218      	adds	r2, #24
 80047c2:	4293      	cmp	r3, r2
 80047c4:	d07a      	beq.n	80048bc <HAL_DMAEx_MultiBufferStart_IT+0x1f8>
 80047c6:	3218      	adds	r2, #24
 80047c8:	4293      	cmp	r3, r2
 80047ca:	d077      	beq.n	80048bc <HAL_DMAEx_MultiBufferStart_IT+0x1f8>
 80047cc:	3218      	adds	r2, #24
 80047ce:	4293      	cmp	r3, r2
 80047d0:	d074      	beq.n	80048bc <HAL_DMAEx_MultiBufferStart_IT+0x1f8>
 80047d2:	3218      	adds	r2, #24
 80047d4:	4293      	cmp	r3, r2
 80047d6:	d071      	beq.n	80048bc <HAL_DMAEx_MultiBufferStart_IT+0x1f8>
 80047d8:	3218      	adds	r2, #24
 80047da:	4293      	cmp	r3, r2
 80047dc:	d06e      	beq.n	80048bc <HAL_DMAEx_MultiBufferStart_IT+0x1f8>
 80047de:	f502 7256 	add.w	r2, r2, #856	; 0x358
 80047e2:	4293      	cmp	r3, r2
 80047e4:	d06a      	beq.n	80048bc <HAL_DMAEx_MultiBufferStart_IT+0x1f8>
 80047e6:	3218      	adds	r2, #24
 80047e8:	4293      	cmp	r3, r2
 80047ea:	d067      	beq.n	80048bc <HAL_DMAEx_MultiBufferStart_IT+0x1f8>
 80047ec:	3218      	adds	r2, #24
 80047ee:	4293      	cmp	r3, r2
 80047f0:	d064      	beq.n	80048bc <HAL_DMAEx_MultiBufferStart_IT+0x1f8>
 80047f2:	3218      	adds	r2, #24
 80047f4:	4293      	cmp	r3, r2
 80047f6:	d061      	beq.n	80048bc <HAL_DMAEx_MultiBufferStart_IT+0x1f8>
 80047f8:	3218      	adds	r2, #24
 80047fa:	4293      	cmp	r3, r2
 80047fc:	d05e      	beq.n	80048bc <HAL_DMAEx_MultiBufferStart_IT+0x1f8>
 80047fe:	3218      	adds	r2, #24
 8004800:	4293      	cmp	r3, r2
 8004802:	d05b      	beq.n	80048bc <HAL_DMAEx_MultiBufferStart_IT+0x1f8>
 8004804:	3218      	adds	r2, #24
 8004806:	4293      	cmp	r3, r2
 8004808:	d058      	beq.n	80048bc <HAL_DMAEx_MultiBufferStart_IT+0x1f8>
 800480a:	3218      	adds	r2, #24
 800480c:	4293      	cmp	r3, r2
 800480e:	d055      	beq.n	80048bc <HAL_DMAEx_MultiBufferStart_IT+0x1f8>
 8004810:	4a28      	ldr	r2, [pc, #160]	; (80048b4 <HAL_DMAEx_MultiBufferStart_IT+0x1f0>)
 8004812:	4293      	cmp	r3, r2
 8004814:	d052      	beq.n	80048bc <HAL_DMAEx_MultiBufferStart_IT+0x1f8>
 8004816:	3214      	adds	r2, #20
 8004818:	4293      	cmp	r3, r2
 800481a:	d04f      	beq.n	80048bc <HAL_DMAEx_MultiBufferStart_IT+0x1f8>
 800481c:	3214      	adds	r2, #20
 800481e:	4293      	cmp	r3, r2
 8004820:	d04c      	beq.n	80048bc <HAL_DMAEx_MultiBufferStart_IT+0x1f8>
 8004822:	3214      	adds	r2, #20
 8004824:	4293      	cmp	r3, r2
 8004826:	d049      	beq.n	80048bc <HAL_DMAEx_MultiBufferStart_IT+0x1f8>
 8004828:	3214      	adds	r2, #20
 800482a:	4293      	cmp	r3, r2
 800482c:	d046      	beq.n	80048bc <HAL_DMAEx_MultiBufferStart_IT+0x1f8>
 800482e:	3214      	adds	r2, #20
 8004830:	4293      	cmp	r3, r2
 8004832:	d043      	beq.n	80048bc <HAL_DMAEx_MultiBufferStart_IT+0x1f8>
 8004834:	3214      	adds	r2, #20
 8004836:	4293      	cmp	r3, r2
 8004838:	d040      	beq.n	80048bc <HAL_DMAEx_MultiBufferStart_IT+0x1f8>
 800483a:	3214      	adds	r2, #20
 800483c:	4293      	cmp	r3, r2
 800483e:	d03d      	beq.n	80048bc <HAL_DMAEx_MultiBufferStart_IT+0x1f8>
 8004840:	681a      	ldr	r2, [r3, #0]
 8004842:	f022 020e 	bic.w	r2, r2, #14
 8004846:	f042 020a 	orr.w	r2, r2, #10
 800484a:	601a      	str	r2, [r3, #0]
 800484c:	b909      	cbnz	r1, 8004852 <HAL_DMAEx_MultiBufferStart_IT+0x18e>
 800484e:	6ca2      	ldr	r2, [r4, #72]	; 0x48
 8004850:	b11a      	cbz	r2, 800485a <HAL_DMAEx_MultiBufferStart_IT+0x196>
 8004852:	681a      	ldr	r2, [r3, #0]
 8004854:	f042 0204 	orr.w	r2, r2, #4
 8004858:	601a      	str	r2, [r3, #0]
 800485a:	4a16      	ldr	r2, [pc, #88]	; (80048b4 <HAL_DMAEx_MultiBufferStart_IT+0x1f0>)
 800485c:	4293      	cmp	r3, r2
 800485e:	d078      	beq.n	8004952 <HAL_DMAEx_MultiBufferStart_IT+0x28e>
 8004860:	4a15      	ldr	r2, [pc, #84]	; (80048b8 <HAL_DMAEx_MultiBufferStart_IT+0x1f4>)
 8004862:	4293      	cmp	r3, r2
 8004864:	d075      	beq.n	8004952 <HAL_DMAEx_MultiBufferStart_IT+0x28e>
 8004866:	3214      	adds	r2, #20
 8004868:	4293      	cmp	r3, r2
 800486a:	d072      	beq.n	8004952 <HAL_DMAEx_MultiBufferStart_IT+0x28e>
 800486c:	3214      	adds	r2, #20
 800486e:	4293      	cmp	r3, r2
 8004870:	d06f      	beq.n	8004952 <HAL_DMAEx_MultiBufferStart_IT+0x28e>
 8004872:	3214      	adds	r2, #20
 8004874:	4293      	cmp	r3, r2
 8004876:	d06c      	beq.n	8004952 <HAL_DMAEx_MultiBufferStart_IT+0x28e>
 8004878:	3214      	adds	r2, #20
 800487a:	4293      	cmp	r3, r2
 800487c:	d069      	beq.n	8004952 <HAL_DMAEx_MultiBufferStart_IT+0x28e>
 800487e:	3214      	adds	r2, #20
 8004880:	4293      	cmp	r3, r2
 8004882:	d066      	beq.n	8004952 <HAL_DMAEx_MultiBufferStart_IT+0x28e>
 8004884:	3214      	adds	r2, #20
 8004886:	4293      	cmp	r3, r2
 8004888:	d063      	beq.n	8004952 <HAL_DMAEx_MultiBufferStart_IT+0x28e>
 800488a:	681a      	ldr	r2, [r3, #0]
 800488c:	2000      	movs	r0, #0
 800488e:	f042 0201 	orr.w	r2, r2, #1
 8004892:	601a      	str	r2, [r3, #0]
 8004894:	e71f      	b.n	80046d6 <HAL_DMAEx_MultiBufferStart_IT+0x12>
 8004896:	6806      	ldr	r6, [r0, #0]
 8004898:	f446 2680 	orr.w	r6, r6, #262144	; 0x40000
 800489c:	6006      	str	r6, [r0, #0]
 800489e:	6103      	str	r3, [r0, #16]
 80048a0:	233f      	movs	r3, #63	; 0x3f
 80048a2:	fa03 f707 	lsl.w	r7, r3, r7
 80048a6:	f8cc 7008 	str.w	r7, [ip, #8]
 80048aa:	e779      	b.n	80047a0 <HAL_DMAEx_MultiBufferStart_IT+0xdc>
 80048ac:	40020010 	.word	0x40020010
 80048b0:	40020028 	.word	0x40020028
 80048b4:	58025408 	.word	0x58025408
 80048b8:	5802541c 	.word	0x5802541c
 80048bc:	e9d4 2019 	ldrd	r2, r0, [r4, #100]	; 0x64
 80048c0:	6050      	str	r0, [r2, #4]
 80048c2:	6ee2      	ldr	r2, [r4, #108]	; 0x6c
 80048c4:	b112      	cbz	r2, 80048cc <HAL_DMAEx_MultiBufferStart_IT+0x208>
 80048c6:	e9d4 201c 	ldrd	r2, r0, [r4, #112]	; 0x70
 80048ca:	6050      	str	r0, [r2, #4]
 80048cc:	42ab      	cmp	r3, r5
 80048ce:	d02d      	beq.n	800492c <HAL_DMAEx_MultiBufferStart_IT+0x268>
 80048d0:	4a55      	ldr	r2, [pc, #340]	; (8004a28 <HAL_DMAEx_MultiBufferStart_IT+0x364>)
 80048d2:	4293      	cmp	r3, r2
 80048d4:	d02a      	beq.n	800492c <HAL_DMAEx_MultiBufferStart_IT+0x268>
 80048d6:	3218      	adds	r2, #24
 80048d8:	4293      	cmp	r3, r2
 80048da:	d027      	beq.n	800492c <HAL_DMAEx_MultiBufferStart_IT+0x268>
 80048dc:	3218      	adds	r2, #24
 80048de:	4293      	cmp	r3, r2
 80048e0:	d024      	beq.n	800492c <HAL_DMAEx_MultiBufferStart_IT+0x268>
 80048e2:	3218      	adds	r2, #24
 80048e4:	4293      	cmp	r3, r2
 80048e6:	d021      	beq.n	800492c <HAL_DMAEx_MultiBufferStart_IT+0x268>
 80048e8:	3218      	adds	r2, #24
 80048ea:	4293      	cmp	r3, r2
 80048ec:	d01e      	beq.n	800492c <HAL_DMAEx_MultiBufferStart_IT+0x268>
 80048ee:	3218      	adds	r2, #24
 80048f0:	4293      	cmp	r3, r2
 80048f2:	d01b      	beq.n	800492c <HAL_DMAEx_MultiBufferStart_IT+0x268>
 80048f4:	3218      	adds	r2, #24
 80048f6:	4293      	cmp	r3, r2
 80048f8:	d018      	beq.n	800492c <HAL_DMAEx_MultiBufferStart_IT+0x268>
 80048fa:	f502 7256 	add.w	r2, r2, #856	; 0x358
 80048fe:	4293      	cmp	r3, r2
 8004900:	d014      	beq.n	800492c <HAL_DMAEx_MultiBufferStart_IT+0x268>
 8004902:	3218      	adds	r2, #24
 8004904:	4293      	cmp	r3, r2
 8004906:	d011      	beq.n	800492c <HAL_DMAEx_MultiBufferStart_IT+0x268>
 8004908:	3218      	adds	r2, #24
 800490a:	4293      	cmp	r3, r2
 800490c:	d00e      	beq.n	800492c <HAL_DMAEx_MultiBufferStart_IT+0x268>
 800490e:	3218      	adds	r2, #24
 8004910:	4293      	cmp	r3, r2
 8004912:	d00b      	beq.n	800492c <HAL_DMAEx_MultiBufferStart_IT+0x268>
 8004914:	3218      	adds	r2, #24
 8004916:	4293      	cmp	r3, r2
 8004918:	d008      	beq.n	800492c <HAL_DMAEx_MultiBufferStart_IT+0x268>
 800491a:	3218      	adds	r2, #24
 800491c:	4293      	cmp	r3, r2
 800491e:	d005      	beq.n	800492c <HAL_DMAEx_MultiBufferStart_IT+0x268>
 8004920:	3218      	adds	r2, #24
 8004922:	4293      	cmp	r3, r2
 8004924:	d002      	beq.n	800492c <HAL_DMAEx_MultiBufferStart_IT+0x268>
 8004926:	3218      	adds	r2, #24
 8004928:	4293      	cmp	r3, r2
 800492a:	d189      	bne.n	8004840 <HAL_DMAEx_MultiBufferStart_IT+0x17c>
 800492c:	681a      	ldr	r2, [r3, #0]
 800492e:	f022 021e 	bic.w	r2, r2, #30
 8004932:	f042 0216 	orr.w	r2, r2, #22
 8004936:	601a      	str	r2, [r3, #0]
 8004938:	695a      	ldr	r2, [r3, #20]
 800493a:	f042 0280 	orr.w	r2, r2, #128	; 0x80
 800493e:	615a      	str	r2, [r3, #20]
 8004940:	b909      	cbnz	r1, 8004946 <HAL_DMAEx_MultiBufferStart_IT+0x282>
 8004942:	6ca2      	ldr	r2, [r4, #72]	; 0x48
 8004944:	b11a      	cbz	r2, 800494e <HAL_DMAEx_MultiBufferStart_IT+0x28a>
 8004946:	681a      	ldr	r2, [r3, #0]
 8004948:	f042 0208 	orr.w	r2, r2, #8
 800494c:	601a      	str	r2, [r3, #0]
 800494e:	42ab      	cmp	r3, r5
 8004950:	d130      	bne.n	80049b4 <HAL_DMAEx_MultiBufferStart_IT+0x2f0>
 8004952:	6e22      	ldr	r2, [r4, #96]	; 0x60
 8004954:	6811      	ldr	r1, [r2, #0]
 8004956:	03c9      	lsls	r1, r1, #15
 8004958:	d45b      	bmi.n	8004a12 <HAL_DMAEx_MultiBufferStart_IT+0x34e>
 800495a:	6ee2      	ldr	r2, [r4, #108]	; 0x6c
 800495c:	b11a      	cbz	r2, 8004966 <HAL_DMAEx_MultiBufferStart_IT+0x2a2>
 800495e:	6811      	ldr	r1, [r2, #0]
 8004960:	f441 7180 	orr.w	r1, r1, #256	; 0x100
 8004964:	6011      	str	r1, [r2, #0]
 8004966:	42ab      	cmp	r3, r5
 8004968:	d08f      	beq.n	800488a <HAL_DMAEx_MultiBufferStart_IT+0x1c6>
 800496a:	4a2f      	ldr	r2, [pc, #188]	; (8004a28 <HAL_DMAEx_MultiBufferStart_IT+0x364>)
 800496c:	4293      	cmp	r3, r2
 800496e:	d08c      	beq.n	800488a <HAL_DMAEx_MultiBufferStart_IT+0x1c6>
 8004970:	3218      	adds	r2, #24
 8004972:	4293      	cmp	r3, r2
 8004974:	d089      	beq.n	800488a <HAL_DMAEx_MultiBufferStart_IT+0x1c6>
 8004976:	3218      	adds	r2, #24
 8004978:	4293      	cmp	r3, r2
 800497a:	d086      	beq.n	800488a <HAL_DMAEx_MultiBufferStart_IT+0x1c6>
 800497c:	3218      	adds	r2, #24
 800497e:	4293      	cmp	r3, r2
 8004980:	d083      	beq.n	800488a <HAL_DMAEx_MultiBufferStart_IT+0x1c6>
 8004982:	3218      	adds	r2, #24
 8004984:	4293      	cmp	r3, r2
 8004986:	d080      	beq.n	800488a <HAL_DMAEx_MultiBufferStart_IT+0x1c6>
 8004988:	3218      	adds	r2, #24
 800498a:	4293      	cmp	r3, r2
 800498c:	f43f af7d 	beq.w	800488a <HAL_DMAEx_MultiBufferStart_IT+0x1c6>
 8004990:	3218      	adds	r2, #24
 8004992:	4293      	cmp	r3, r2
 8004994:	f43f af79 	beq.w	800488a <HAL_DMAEx_MultiBufferStart_IT+0x1c6>
 8004998:	f502 7256 	add.w	r2, r2, #856	; 0x358
 800499c:	4293      	cmp	r3, r2
 800499e:	f43f af74 	beq.w	800488a <HAL_DMAEx_MultiBufferStart_IT+0x1c6>
 80049a2:	3218      	adds	r2, #24
 80049a4:	4293      	cmp	r3, r2
 80049a6:	f43f af70 	beq.w	800488a <HAL_DMAEx_MultiBufferStart_IT+0x1c6>
 80049aa:	3218      	adds	r2, #24
 80049ac:	4293      	cmp	r3, r2
 80049ae:	f43f af6c 	beq.w	800488a <HAL_DMAEx_MultiBufferStart_IT+0x1c6>
 80049b2:	e76a      	b.n	800488a <HAL_DMAEx_MultiBufferStart_IT+0x1c6>
 80049b4:	4a1c      	ldr	r2, [pc, #112]	; (8004a28 <HAL_DMAEx_MultiBufferStart_IT+0x364>)
 80049b6:	4293      	cmp	r3, r2
 80049b8:	d0cb      	beq.n	8004952 <HAL_DMAEx_MultiBufferStart_IT+0x28e>
 80049ba:	3218      	adds	r2, #24
 80049bc:	4293      	cmp	r3, r2
 80049be:	d0c8      	beq.n	8004952 <HAL_DMAEx_MultiBufferStart_IT+0x28e>
 80049c0:	3218      	adds	r2, #24
 80049c2:	4293      	cmp	r3, r2
 80049c4:	d0c5      	beq.n	8004952 <HAL_DMAEx_MultiBufferStart_IT+0x28e>
 80049c6:	3218      	adds	r2, #24
 80049c8:	4293      	cmp	r3, r2
 80049ca:	d0c2      	beq.n	8004952 <HAL_DMAEx_MultiBufferStart_IT+0x28e>
 80049cc:	3218      	adds	r2, #24
 80049ce:	4293      	cmp	r3, r2
 80049d0:	d0bf      	beq.n	8004952 <HAL_DMAEx_MultiBufferStart_IT+0x28e>
 80049d2:	3218      	adds	r2, #24
 80049d4:	4293      	cmp	r3, r2
 80049d6:	d0bc      	beq.n	8004952 <HAL_DMAEx_MultiBufferStart_IT+0x28e>
 80049d8:	3218      	adds	r2, #24
 80049da:	4293      	cmp	r3, r2
 80049dc:	d0b9      	beq.n	8004952 <HAL_DMAEx_MultiBufferStart_IT+0x28e>
 80049de:	f502 7256 	add.w	r2, r2, #856	; 0x358
 80049e2:	4293      	cmp	r3, r2
 80049e4:	d0b5      	beq.n	8004952 <HAL_DMAEx_MultiBufferStart_IT+0x28e>
 80049e6:	3218      	adds	r2, #24
 80049e8:	4293      	cmp	r3, r2
 80049ea:	d0b2      	beq.n	8004952 <HAL_DMAEx_MultiBufferStart_IT+0x28e>
 80049ec:	3218      	adds	r2, #24
 80049ee:	4293      	cmp	r3, r2
 80049f0:	d0af      	beq.n	8004952 <HAL_DMAEx_MultiBufferStart_IT+0x28e>
 80049f2:	3218      	adds	r2, #24
 80049f4:	4293      	cmp	r3, r2
 80049f6:	d0ac      	beq.n	8004952 <HAL_DMAEx_MultiBufferStart_IT+0x28e>
 80049f8:	3218      	adds	r2, #24
 80049fa:	4293      	cmp	r3, r2
 80049fc:	d0a9      	beq.n	8004952 <HAL_DMAEx_MultiBufferStart_IT+0x28e>
 80049fe:	3218      	adds	r2, #24
 8004a00:	4293      	cmp	r3, r2
 8004a02:	d0a6      	beq.n	8004952 <HAL_DMAEx_MultiBufferStart_IT+0x28e>
 8004a04:	3218      	adds	r2, #24
 8004a06:	4293      	cmp	r3, r2
 8004a08:	d0a3      	beq.n	8004952 <HAL_DMAEx_MultiBufferStart_IT+0x28e>
 8004a0a:	3218      	adds	r2, #24
 8004a0c:	4293      	cmp	r3, r2
 8004a0e:	d0a0      	beq.n	8004952 <HAL_DMAEx_MultiBufferStart_IT+0x28e>
 8004a10:	e723      	b.n	800485a <HAL_DMAEx_MultiBufferStart_IT+0x196>
 8004a12:	6811      	ldr	r1, [r2, #0]
 8004a14:	f441 7180 	orr.w	r1, r1, #256	; 0x100
 8004a18:	6011      	str	r1, [r2, #0]
 8004a1a:	e79e      	b.n	800495a <HAL_DMAEx_MultiBufferStart_IT+0x296>
 8004a1c:	f44f 6300 	mov.w	r3, #2048	; 0x800
 8004a20:	6563      	str	r3, [r4, #84]	; 0x54
 8004a22:	e658      	b.n	80046d6 <HAL_DMAEx_MultiBufferStart_IT+0x12>
 8004a24:	2002      	movs	r0, #2
 8004a26:	e656      	b.n	80046d6 <HAL_DMAEx_MultiBufferStart_IT+0x12>
 8004a28:	40020028 	.word	0x40020028

08004a2c <HAL_DMAEx_ChangeMemory>:
 8004a2c:	6803      	ldr	r3, [r0, #0]
 8004a2e:	4814      	ldr	r0, [pc, #80]	; (8004a80 <HAL_DMAEx_ChangeMemory+0x54>)
 8004a30:	4283      	cmp	r3, r0
 8004a32:	d01e      	beq.n	8004a72 <HAL_DMAEx_ChangeMemory+0x46>
 8004a34:	3018      	adds	r0, #24
 8004a36:	4283      	cmp	r3, r0
 8004a38:	d01b      	beq.n	8004a72 <HAL_DMAEx_ChangeMemory+0x46>
 8004a3a:	3018      	adds	r0, #24
 8004a3c:	4283      	cmp	r3, r0
 8004a3e:	d018      	beq.n	8004a72 <HAL_DMAEx_ChangeMemory+0x46>
 8004a40:	3018      	adds	r0, #24
 8004a42:	4283      	cmp	r3, r0
 8004a44:	d015      	beq.n	8004a72 <HAL_DMAEx_ChangeMemory+0x46>
 8004a46:	3018      	adds	r0, #24
 8004a48:	4283      	cmp	r3, r0
 8004a4a:	d012      	beq.n	8004a72 <HAL_DMAEx_ChangeMemory+0x46>
 8004a4c:	3018      	adds	r0, #24
 8004a4e:	4283      	cmp	r3, r0
 8004a50:	d00f      	beq.n	8004a72 <HAL_DMAEx_ChangeMemory+0x46>
 8004a52:	3018      	adds	r0, #24
 8004a54:	4283      	cmp	r3, r0
 8004a56:	d00c      	beq.n	8004a72 <HAL_DMAEx_ChangeMemory+0x46>
 8004a58:	3018      	adds	r0, #24
 8004a5a:	4283      	cmp	r3, r0
 8004a5c:	d009      	beq.n	8004a72 <HAL_DMAEx_ChangeMemory+0x46>
 8004a5e:	f500 7056 	add.w	r0, r0, #856	; 0x358
 8004a62:	4283      	cmp	r3, r0
 8004a64:	d005      	beq.n	8004a72 <HAL_DMAEx_ChangeMemory+0x46>
 8004a66:	3018      	adds	r0, #24
 8004a68:	4283      	cmp	r3, r0
 8004a6a:	d002      	beq.n	8004a72 <HAL_DMAEx_ChangeMemory+0x46>
 8004a6c:	3018      	adds	r0, #24
 8004a6e:	4283      	cmp	r3, r0
 8004a70:	d0ff      	beq.n	8004a72 <HAL_DMAEx_ChangeMemory+0x46>
 8004a72:	b912      	cbnz	r2, 8004a7a <HAL_DMAEx_ChangeMemory+0x4e>
 8004a74:	60d9      	str	r1, [r3, #12]
 8004a76:	2000      	movs	r0, #0
 8004a78:	4770      	bx	lr
 8004a7a:	6119      	str	r1, [r3, #16]
 8004a7c:	e7fb      	b.n	8004a76 <HAL_DMAEx_ChangeMemory+0x4a>
 8004a7e:	bf00      	nop
 8004a80:	40020010 	.word	0x40020010

08004a84 <HAL_GPIO_Init>:
 8004a84:	e92d 4ff7 	stmdb	sp!, {r0, r1, r2, r4, r5, r6, r7, r8, r9, sl, fp, lr}
 8004a88:	2300      	movs	r3, #0
 8004a8a:	f8df 91cc 	ldr.w	r9, [pc, #460]	; 8004c58 <HAL_GPIO_Init+0x1d4>
 8004a8e:	f04f 44b0 	mov.w	r4, #1476395008	; 0x58000000
 8004a92:	680a      	ldr	r2, [r1, #0]
 8004a94:	fa32 f503 	lsrs.w	r5, r2, r3
 8004a98:	d102      	bne.n	8004aa0 <HAL_GPIO_Init+0x1c>
 8004a9a:	b003      	add	sp, #12
 8004a9c:	e8bd 8ff0 	ldmia.w	sp!, {r4, r5, r6, r7, r8, r9, sl, fp, pc}
 8004aa0:	f04f 0e01 	mov.w	lr, #1
 8004aa4:	fa0e fe03 	lsl.w	lr, lr, r3
 8004aa8:	ea1e 0202 	ands.w	r2, lr, r2
 8004aac:	f000 80bd 	beq.w	8004c2a <HAL_GPIO_Init+0x1a6>
 8004ab0:	684e      	ldr	r6, [r1, #4]
 8004ab2:	ea4f 0843 	mov.w	r8, r3, lsl #1
 8004ab6:	f04f 0c03 	mov.w	ip, #3
 8004aba:	f006 0503 	and.w	r5, r6, #3
 8004abe:	fa0c fc08 	lsl.w	ip, ip, r8
 8004ac2:	1e6f      	subs	r7, r5, #1
 8004ac4:	ea6f 0c0c 	mvn.w	ip, ip
 8004ac8:	2f01      	cmp	r7, #1
 8004aca:	d834      	bhi.n	8004b36 <HAL_GPIO_Init+0xb2>
 8004acc:	6887      	ldr	r7, [r0, #8]
 8004ace:	ea07 0a0c 	and.w	sl, r7, ip
 8004ad2:	68cf      	ldr	r7, [r1, #12]
 8004ad4:	fa07 f708 	lsl.w	r7, r7, r8
 8004ad8:	ea47 070a 	orr.w	r7, r7, sl
 8004adc:	6087      	str	r7, [r0, #8]
 8004ade:	6847      	ldr	r7, [r0, #4]
 8004ae0:	ea27 0e0e 	bic.w	lr, r7, lr
 8004ae4:	f3c6 1700 	ubfx	r7, r6, #4, #1
 8004ae8:	409f      	lsls	r7, r3
 8004aea:	ea47 070e 	orr.w	r7, r7, lr
 8004aee:	6047      	str	r7, [r0, #4]
 8004af0:	68c7      	ldr	r7, [r0, #12]
 8004af2:	2d02      	cmp	r5, #2
 8004af4:	ea07 0e0c 	and.w	lr, r7, ip
 8004af8:	688f      	ldr	r7, [r1, #8]
 8004afa:	fa07 f708 	lsl.w	r7, r7, r8
 8004afe:	ea47 070e 	orr.w	r7, r7, lr
 8004b02:	60c7      	str	r7, [r0, #12]
 8004b04:	d119      	bne.n	8004b3a <HAL_GPIO_Init+0xb6>
 8004b06:	ea4f 0ad3 	mov.w	sl, r3, lsr #3
 8004b0a:	f003 0b07 	and.w	fp, r3, #7
 8004b0e:	f04f 0e0f 	mov.w	lr, #15
 8004b12:	eb00 0a8a 	add.w	sl, r0, sl, lsl #2
 8004b16:	ea4f 0b8b 	mov.w	fp, fp, lsl #2
 8004b1a:	f8da 7020 	ldr.w	r7, [sl, #32]
 8004b1e:	fa0e fe0b 	lsl.w	lr, lr, fp
 8004b22:	ea27 0e0e 	bic.w	lr, r7, lr
 8004b26:	690f      	ldr	r7, [r1, #16]
 8004b28:	fa07 f70b 	lsl.w	r7, r7, fp
 8004b2c:	ea47 070e 	orr.w	r7, r7, lr
 8004b30:	f8ca 7020 	str.w	r7, [sl, #32]
 8004b34:	e001      	b.n	8004b3a <HAL_GPIO_Init+0xb6>
 8004b36:	2d03      	cmp	r5, #3
 8004b38:	d1da      	bne.n	8004af0 <HAL_GPIO_Init+0x6c>
 8004b3a:	6807      	ldr	r7, [r0, #0]
 8004b3c:	fa05 f508 	lsl.w	r5, r5, r8
 8004b40:	f416 3f40 	tst.w	r6, #196608	; 0x30000
 8004b44:	ea07 070c 	and.w	r7, r7, ip
 8004b48:	ea47 0705 	orr.w	r7, r7, r5
 8004b4c:	6007      	str	r7, [r0, #0]
 8004b4e:	d06c      	beq.n	8004c2a <HAL_GPIO_Init+0x1a6>
 8004b50:	f8d9 5154 	ldr.w	r5, [r9, #340]	; 0x154
 8004b54:	f023 0703 	bic.w	r7, r3, #3
 8004b58:	f003 0c03 	and.w	ip, r3, #3
 8004b5c:	f04f 0e0f 	mov.w	lr, #15
 8004b60:	f045 0502 	orr.w	r5, r5, #2
 8004b64:	f107 47b0 	add.w	r7, r7, #1476395008	; 0x58000000
 8004b68:	ea4f 0c8c 	mov.w	ip, ip, lsl #2
 8004b6c:	f8c9 5154 	str.w	r5, [r9, #340]	; 0x154
 8004b70:	f507 6780 	add.w	r7, r7, #1024	; 0x400
 8004b74:	f8d9 5154 	ldr.w	r5, [r9, #340]	; 0x154
 8004b78:	f005 0502 	and.w	r5, r5, #2
 8004b7c:	9501      	str	r5, [sp, #4]
 8004b7e:	9d01      	ldr	r5, [sp, #4]
 8004b80:	fa0e f50c 	lsl.w	r5, lr, ip
 8004b84:	f8d7 8008 	ldr.w	r8, [r7, #8]
 8004b88:	ea28 0e05 	bic.w	lr, r8, r5
 8004b8c:	4d31      	ldr	r5, [pc, #196]	; (8004c54 <HAL_GPIO_Init+0x1d0>)
 8004b8e:	42a8      	cmp	r0, r5
 8004b90:	d04d      	beq.n	8004c2e <HAL_GPIO_Init+0x1aa>
 8004b92:	f505 6580 	add.w	r5, r5, #1024	; 0x400
 8004b96:	42a8      	cmp	r0, r5
 8004b98:	d04b      	beq.n	8004c32 <HAL_GPIO_Init+0x1ae>
 8004b9a:	f505 6580 	add.w	r5, r5, #1024	; 0x400
 8004b9e:	42a8      	cmp	r0, r5
 8004ba0:	d049      	beq.n	8004c36 <HAL_GPIO_Init+0x1b2>
 8004ba2:	f505 6580 	add.w	r5, r5, #1024	; 0x400
 8004ba6:	42a8      	cmp	r0, r5
 8004ba8:	d047      	beq.n	8004c3a <HAL_GPIO_Init+0x1b6>
 8004baa:	f505 6580 	add.w	r5, r5, #1024	; 0x400
 8004bae:	42a8      	cmp	r0, r5
 8004bb0:	d045      	beq.n	8004c3e <HAL_GPIO_Init+0x1ba>
 8004bb2:	f505 6580 	add.w	r5, r5, #1024	; 0x400
 8004bb6:	42a8      	cmp	r0, r5
 8004bb8:	d043      	beq.n	8004c42 <HAL_GPIO_Init+0x1be>
 8004bba:	f505 6580 	add.w	r5, r5, #1024	; 0x400
 8004bbe:	42a8      	cmp	r0, r5
 8004bc0:	d041      	beq.n	8004c46 <HAL_GPIO_Init+0x1c2>
 8004bc2:	f505 6580 	add.w	r5, r5, #1024	; 0x400
 8004bc6:	42a8      	cmp	r0, r5
 8004bc8:	d03f      	beq.n	8004c4a <HAL_GPIO_Init+0x1c6>
 8004bca:	f505 6580 	add.w	r5, r5, #1024	; 0x400
 8004bce:	42a8      	cmp	r0, r5
 8004bd0:	d03d      	beq.n	8004c4e <HAL_GPIO_Init+0x1ca>
 8004bd2:	f505 6580 	add.w	r5, r5, #1024	; 0x400
 8004bd6:	42a8      	cmp	r0, r5
 8004bd8:	bf0c      	ite	eq
 8004bda:	2509      	moveq	r5, #9
 8004bdc:	250a      	movne	r5, #10
 8004bde:	fa05 f50c 	lsl.w	r5, r5, ip
 8004be2:	f416 1f80 	tst.w	r6, #1048576	; 0x100000
 8004be6:	ea45 050e 	orr.w	r5, r5, lr
 8004bea:	60bd      	str	r5, [r7, #8]
 8004bec:	ea6f 0702 	mvn.w	r7, r2
 8004bf0:	6825      	ldr	r5, [r4, #0]
 8004bf2:	bf0c      	ite	eq
 8004bf4:	403d      	andeq	r5, r7
 8004bf6:	4315      	orrne	r5, r2
 8004bf8:	f416 1f00 	tst.w	r6, #2097152	; 0x200000
 8004bfc:	6025      	str	r5, [r4, #0]
 8004bfe:	6865      	ldr	r5, [r4, #4]
 8004c00:	bf0c      	ite	eq
 8004c02:	403d      	andeq	r5, r7
 8004c04:	4315      	orrne	r5, r2
 8004c06:	f416 3f00 	tst.w	r6, #131072	; 0x20000
 8004c0a:	6065      	str	r5, [r4, #4]
 8004c0c:	f8d4 5084 	ldr.w	r5, [r4, #132]	; 0x84
 8004c10:	bf0c      	ite	eq
 8004c12:	403d      	andeq	r5, r7
 8004c14:	4315      	orrne	r5, r2
 8004c16:	03f6      	lsls	r6, r6, #15
 8004c18:	f8c4 5084 	str.w	r5, [r4, #132]	; 0x84
 8004c1c:	f8d4 5080 	ldr.w	r5, [r4, #128]	; 0x80
 8004c20:	bf54      	ite	pl
 8004c22:	403d      	andpl	r5, r7
 8004c24:	4315      	orrmi	r5, r2
 8004c26:	f8c4 5080 	str.w	r5, [r4, #128]	; 0x80
 8004c2a:	3301      	adds	r3, #1
 8004c2c:	e731      	b.n	8004a92 <HAL_GPIO_Init+0xe>
 8004c2e:	2500      	movs	r5, #0
 8004c30:	e7d5      	b.n	8004bde <HAL_GPIO_Init+0x15a>
 8004c32:	2501      	movs	r5, #1
 8004c34:	e7d3      	b.n	8004bde <HAL_GPIO_Init+0x15a>
 8004c36:	2502      	movs	r5, #2
 8004c38:	e7d1      	b.n	8004bde <HAL_GPIO_Init+0x15a>
 8004c3a:	2503      	movs	r5, #3
 8004c3c:	e7cf      	b.n	8004bde <HAL_GPIO_Init+0x15a>
 8004c3e:	2504      	movs	r5, #4
 8004c40:	e7cd      	b.n	8004bde <HAL_GPIO_Init+0x15a>
 8004c42:	2505      	movs	r5, #5
 8004c44:	e7cb      	b.n	8004bde <HAL_GPIO_Init+0x15a>
 8004c46:	2506      	movs	r5, #6
 8004c48:	e7c9      	b.n	8004bde <HAL_GPIO_Init+0x15a>
 8004c4a:	2507      	movs	r5, #7
 8004c4c:	e7c7      	b.n	8004bde <HAL_GPIO_Init+0x15a>
 8004c4e:	2508      	movs	r5, #8
 8004c50:	e7c5      	b.n	8004bde <HAL_GPIO_Init+0x15a>
 8004c52:	bf00      	nop
 8004c54:	58020000 	.word	0x58020000
 8004c58:	58024400 	.word	0x58024400

08004c5c <HAL_GPIO_DeInit>:
 8004c5c:	e92d 4ff0 	stmdb	sp!, {r4, r5, r6, r7, r8, r9, sl, fp, lr}
 8004c60:	2200      	movs	r2, #0
 8004c62:	f8df 812c 	ldr.w	r8, [pc, #300]	; 8004d90 <HAL_GPIO_DeInit+0x134>
 8004c66:	f8df 912c 	ldr.w	r9, [pc, #300]	; 8004d94 <HAL_GPIO_DeInit+0x138>
 8004c6a:	f8df a12c 	ldr.w	sl, [pc, #300]	; 8004d98 <HAL_GPIO_DeInit+0x13c>
 8004c6e:	f8df b12c 	ldr.w	fp, [pc, #300]	; 8004d9c <HAL_GPIO_DeInit+0x140>
 8004c72:	fa31 f302 	lsrs.w	r3, r1, r2
 8004c76:	d101      	bne.n	8004c7c <HAL_GPIO_DeInit+0x20>
 8004c78:	e8bd 8ff0 	ldmia.w	sp!, {r4, r5, r6, r7, r8, r9, sl, fp, pc}
 8004c7c:	2301      	movs	r3, #1
 8004c7e:	fa03 fc02 	lsl.w	ip, r3, r2
 8004c82:	ea1c 0601 	ands.w	r6, ip, r1
 8004c86:	d06d      	beq.n	8004d64 <HAL_GPIO_DeInit+0x108>
 8004c88:	f022 0403 	bic.w	r4, r2, #3
 8004c8c:	f002 0703 	and.w	r7, r2, #3
 8004c90:	250f      	movs	r5, #15
 8004c92:	4b3e      	ldr	r3, [pc, #248]	; (8004d8c <HAL_GPIO_DeInit+0x130>)
 8004c94:	f104 44b0 	add.w	r4, r4, #1476395008	; 0x58000000
 8004c98:	00bf      	lsls	r7, r7, #2
 8004c9a:	4298      	cmp	r0, r3
 8004c9c:	fa05 f507 	lsl.w	r5, r5, r7
 8004ca0:	f8d4 e408 	ldr.w	lr, [r4, #1032]	; 0x408
 8004ca4:	f504 6480 	add.w	r4, r4, #1024	; 0x400
 8004ca8:	ea05 0e0e 	and.w	lr, r5, lr
 8004cac:	d05c      	beq.n	8004d68 <HAL_GPIO_DeInit+0x10c>
 8004cae:	f503 6380 	add.w	r3, r3, #1024	; 0x400
 8004cb2:	4298      	cmp	r0, r3
 8004cb4:	d05a      	beq.n	8004d6c <HAL_GPIO_DeInit+0x110>
 8004cb6:	f503 6380 	add.w	r3, r3, #1024	; 0x400
 8004cba:	4298      	cmp	r0, r3
 8004cbc:	d058      	beq.n	8004d70 <HAL_GPIO_DeInit+0x114>
 8004cbe:	f503 6380 	add.w	r3, r3, #1024	; 0x400
 8004cc2:	4298      	cmp	r0, r3
 8004cc4:	d056      	beq.n	8004d74 <HAL_GPIO_DeInit+0x118>
 8004cc6:	f503 6380 	add.w	r3, r3, #1024	; 0x400
 8004cca:	4298      	cmp	r0, r3
 8004ccc:	d054      	beq.n	8004d78 <HAL_GPIO_DeInit+0x11c>
 8004cce:	4540      	cmp	r0, r8
 8004cd0:	d054      	beq.n	8004d7c <HAL_GPIO_DeInit+0x120>
 8004cd2:	4548      	cmp	r0, r9
 8004cd4:	d054      	beq.n	8004d80 <HAL_GPIO_DeInit+0x124>
 8004cd6:	4550      	cmp	r0, sl
 8004cd8:	d054      	beq.n	8004d84 <HAL_GPIO_DeInit+0x128>
 8004cda:	4558      	cmp	r0, fp
 8004cdc:	d054      	beq.n	8004d88 <HAL_GPIO_DeInit+0x12c>
 8004cde:	f503 53a0 	add.w	r3, r3, #5120	; 0x1400
 8004ce2:	4298      	cmp	r0, r3
 8004ce4:	bf0c      	ite	eq
 8004ce6:	2309      	moveq	r3, #9
 8004ce8:	230a      	movne	r3, #10
 8004cea:	40bb      	lsls	r3, r7
 8004cec:	4573      	cmp	r3, lr
 8004cee:	d119      	bne.n	8004d24 <HAL_GPIO_DeInit+0xc8>
 8004cf0:	f04f 43b0 	mov.w	r3, #1476395008	; 0x58000000
 8004cf4:	f8d3 7080 	ldr.w	r7, [r3, #128]	; 0x80
 8004cf8:	ea27 0706 	bic.w	r7, r7, r6
 8004cfc:	f8c3 7080 	str.w	r7, [r3, #128]	; 0x80
 8004d00:	f8d3 7084 	ldr.w	r7, [r3, #132]	; 0x84
 8004d04:	ea27 0706 	bic.w	r7, r7, r6
 8004d08:	f8c3 7084 	str.w	r7, [r3, #132]	; 0x84
 8004d0c:	685f      	ldr	r7, [r3, #4]
 8004d0e:	ea27 0706 	bic.w	r7, r7, r6
 8004d12:	605f      	str	r7, [r3, #4]
 8004d14:	681f      	ldr	r7, [r3, #0]
 8004d16:	ea27 0606 	bic.w	r6, r7, r6
 8004d1a:	601e      	str	r6, [r3, #0]
 8004d1c:	68a3      	ldr	r3, [r4, #8]
 8004d1e:	ea23 0305 	bic.w	r3, r3, r5
 8004d22:	60a3      	str	r3, [r4, #8]
 8004d24:	2503      	movs	r5, #3
 8004d26:	0053      	lsls	r3, r2, #1
 8004d28:	6804      	ldr	r4, [r0, #0]
 8004d2a:	f002 0707 	and.w	r7, r2, #7
 8004d2e:	fa05 f303 	lsl.w	r3, r5, r3
 8004d32:	260f      	movs	r6, #15
 8004d34:	00bf      	lsls	r7, r7, #2
 8004d36:	431c      	orrs	r4, r3
 8004d38:	40be      	lsls	r6, r7
 8004d3a:	6004      	str	r4, [r0, #0]
 8004d3c:	fa22 f405 	lsr.w	r4, r2, r5
 8004d40:	eb00 0484 	add.w	r4, r0, r4, lsl #2
 8004d44:	6a25      	ldr	r5, [r4, #32]
 8004d46:	ea25 0606 	bic.w	r6, r5, r6
 8004d4a:	6226      	str	r6, [r4, #32]
 8004d4c:	68c4      	ldr	r4, [r0, #12]
 8004d4e:	ea24 0403 	bic.w	r4, r4, r3
 8004d52:	60c4      	str	r4, [r0, #12]
 8004d54:	6844      	ldr	r4, [r0, #4]
 8004d56:	ea24 040c 	bic.w	r4, r4, ip
 8004d5a:	6044      	str	r4, [r0, #4]
 8004d5c:	6884      	ldr	r4, [r0, #8]
 8004d5e:	ea24 0303 	bic.w	r3, r4, r3
 8004d62:	6083      	str	r3, [r0, #8]
 8004d64:	3201      	adds	r2, #1
 8004d66:	e784      	b.n	8004c72 <HAL_GPIO_DeInit+0x16>
 8004d68:	2300      	movs	r3, #0
 8004d6a:	e7be      	b.n	8004cea <HAL_GPIO_DeInit+0x8e>
 8004d6c:	2301      	movs	r3, #1
 8004d6e:	e7bc      	b.n	8004cea <HAL_GPIO_DeInit+0x8e>
 8004d70:	2302      	movs	r3, #2
 8004d72:	e7ba      	b.n	8004cea <HAL_GPIO_DeInit+0x8e>
 8004d74:	2303      	movs	r3, #3
 8004d76:	e7b8      	b.n	8004cea <HAL_GPIO_DeInit+0x8e>
 8004d78:	2304      	movs	r3, #4
 8004d7a:	e7b6      	b.n	8004cea <HAL_GPIO_DeInit+0x8e>
 8004d7c:	2305      	movs	r3, #5
 8004d7e:	e7b4      	b.n	8004cea <HAL_GPIO_DeInit+0x8e>
 8004d80:	2306      	movs	r3, #6
 8004d82:	e7b2      	b.n	8004cea <HAL_GPIO_DeInit+0x8e>
 8004d84:	2307      	movs	r3, #7
 8004d86:	e7b0      	b.n	8004cea <HAL_GPIO_DeInit+0x8e>
 8004d88:	2308      	movs	r3, #8
 8004d8a:	e7ae      	b.n	8004cea <HAL_GPIO_DeInit+0x8e>
 8004d8c:	58020000 	.word	0x58020000
 8004d90:	58021400 	.word	0x58021400
 8004d94:	58021800 	.word	0x58021800
 8004d98:	58021c00 	.word	0x58021c00
 8004d9c:	58022000 	.word	0x58022000

08004da0 <HAL_GPIO_WritePin>:
 8004da0:	b10a      	cbz	r2, 8004da6 <HAL_GPIO_WritePin+0x6>
 8004da2:	6181      	str	r1, [r0, #24]
 8004da4:	4770      	bx	lr
 8004da6:	0409      	lsls	r1, r1, #16
 8004da8:	e7fb      	b.n	8004da2 <HAL_GPIO_WritePin+0x2>

08004daa <HAL_GPIO_TogglePin>:
 8004daa:	6943      	ldr	r3, [r0, #20]
 8004dac:	ea01 0203 	and.w	r2, r1, r3
 8004db0:	ea21 0103 	bic.w	r1, r1, r3
 8004db4:	ea41 4102 	orr.w	r1, r1, r2, lsl #16
 8004db8:	6181      	str	r1, [r0, #24]
 8004dba:	4770      	bx	lr

08004dbc <I2C_Flush_TXDR>:
 8004dbc:	6803      	ldr	r3, [r0, #0]
 8004dbe:	699a      	ldr	r2, [r3, #24]
 8004dc0:	0791      	lsls	r1, r2, #30
 8004dc2:	d501      	bpl.n	8004dc8 <I2C_Flush_TXDR+0xc>
 8004dc4:	2200      	movs	r2, #0
 8004dc6:	629a      	str	r2, [r3, #40]	; 0x28
 8004dc8:	699a      	ldr	r2, [r3, #24]
 8004dca:	07d2      	lsls	r2, r2, #31
 8004dcc:	d403      	bmi.n	8004dd6 <I2C_Flush_TXDR+0x1a>
 8004dce:	699a      	ldr	r2, [r3, #24]
 8004dd0:	f042 0201 	orr.w	r2, r2, #1
 8004dd4:	619a      	str	r2, [r3, #24]
 8004dd6:	4770      	bx	lr

08004dd8 <I2C_TransferConfig>:
 8004dd8:	b530      	push	{r4, r5, lr}
 8004dda:	9d03      	ldr	r5, [sp, #12]
 8004ddc:	f3c1 0109 	ubfx	r1, r1, #0, #10
 8004de0:	6804      	ldr	r4, [r0, #0]
 8004de2:	432b      	orrs	r3, r5
 8004de4:	6860      	ldr	r0, [r4, #4]
 8004de6:	ea43 4302 	orr.w	r3, r3, r2, lsl #16
 8004dea:	4a05      	ldr	r2, [pc, #20]	; (8004e00 <I2C_TransferConfig+0x28>)
 8004dec:	430b      	orrs	r3, r1
 8004dee:	ea42 5255 	orr.w	r2, r2, r5, lsr #21
 8004df2:	f023 4300 	bic.w	r3, r3, #2147483648	; 0x80000000
 8004df6:	ea20 0002 	bic.w	r0, r0, r2
 8004dfa:	4303      	orrs	r3, r0
 8004dfc:	6063      	str	r3, [r4, #4]
 8004dfe:	bd30      	pop	{r4, r5, pc}
 8004e00:	03ff63ff 	.word	0x03ff63ff

08004e04 <I2C_IsErrorOccurred>:
 8004e04:	6803      	ldr	r3, [r0, #0]
 8004e06:	e92d 41f0 	stmdb	sp!, {r4, r5, r6, r7, r8, lr}
 8004e0a:	699c      	ldr	r4, [r3, #24]
 8004e0c:	4605      	mov	r5, r0
 8004e0e:	460f      	mov	r7, r1
 8004e10:	4616      	mov	r6, r2
 8004e12:	f014 0410 	ands.w	r4, r4, #16
 8004e16:	d070      	beq.n	8004efa <I2C_IsErrorOccurred+0xf6>
 8004e18:	2400      	movs	r4, #0
 8004e1a:	2210      	movs	r2, #16
 8004e1c:	46a0      	mov	r8, r4
 8004e1e:	61da      	str	r2, [r3, #28]
 8004e20:	682b      	ldr	r3, [r5, #0]
 8004e22:	699a      	ldr	r2, [r3, #24]
 8004e24:	0692      	lsls	r2, r2, #26
 8004e26:	d462      	bmi.n	8004eee <I2C_IsErrorOccurred+0xea>
 8004e28:	f1b8 0f00 	cmp.w	r8, #0
 8004e2c:	d036      	beq.n	8004e9c <I2C_IsErrorOccurred+0x98>
 8004e2e:	f044 0404 	orr.w	r4, r4, #4
 8004e32:	2001      	movs	r0, #1
 8004e34:	682b      	ldr	r3, [r5, #0]
 8004e36:	699a      	ldr	r2, [r3, #24]
 8004e38:	05d6      	lsls	r6, r2, #23
 8004e3a:	d505      	bpl.n	8004e48 <I2C_IsErrorOccurred+0x44>
 8004e3c:	f44f 7180 	mov.w	r1, #256	; 0x100
 8004e40:	f044 0401 	orr.w	r4, r4, #1
 8004e44:	2001      	movs	r0, #1
 8004e46:	61d9      	str	r1, [r3, #28]
 8004e48:	0551      	lsls	r1, r2, #21
 8004e4a:	d505      	bpl.n	8004e58 <I2C_IsErrorOccurred+0x54>
 8004e4c:	f44f 6180 	mov.w	r1, #1024	; 0x400
 8004e50:	f044 0408 	orr.w	r4, r4, #8
 8004e54:	2001      	movs	r0, #1
 8004e56:	61d9      	str	r1, [r3, #28]
 8004e58:	0592      	lsls	r2, r2, #22
 8004e5a:	d550      	bpl.n	8004efe <I2C_IsErrorOccurred+0xfa>
 8004e5c:	f44f 7200 	mov.w	r2, #512	; 0x200
 8004e60:	f044 0402 	orr.w	r4, r4, #2
 8004e64:	61da      	str	r2, [r3, #28]
 8004e66:	4628      	mov	r0, r5
 8004e68:	f7ff ffa8 	bl	8004dbc <I2C_Flush_TXDR>
 8004e6c:	682a      	ldr	r2, [r5, #0]
 8004e6e:	2001      	movs	r0, #1
 8004e70:	6853      	ldr	r3, [r2, #4]
 8004e72:	f023 73ff 	bic.w	r3, r3, #33423360	; 0x1fe0000
 8004e76:	f423 338b 	bic.w	r3, r3, #71168	; 0x11600
 8004e7a:	f423 73ff 	bic.w	r3, r3, #510	; 0x1fe
 8004e7e:	f023 0301 	bic.w	r3, r3, #1
 8004e82:	6053      	str	r3, [r2, #4]
 8004e84:	6c6b      	ldr	r3, [r5, #68]	; 0x44
 8004e86:	431c      	orrs	r4, r3
 8004e88:	2320      	movs	r3, #32
 8004e8a:	646c      	str	r4, [r5, #68]	; 0x44
 8004e8c:	f885 3041 	strb.w	r3, [r5, #65]	; 0x41
 8004e90:	2300      	movs	r3, #0
 8004e92:	f885 3042 	strb.w	r3, [r5, #66]	; 0x42
 8004e96:	f885 3040 	strb.w	r3, [r5, #64]	; 0x40
 8004e9a:	e032      	b.n	8004f02 <I2C_IsErrorOccurred+0xfe>
 8004e9c:	1c7a      	adds	r2, r7, #1
 8004e9e:	d0c0      	beq.n	8004e22 <I2C_IsErrorOccurred+0x1e>
 8004ea0:	f7fd fe04 	bl	8002aac <HAL_GetTick>
 8004ea4:	1b80      	subs	r0, r0, r6
 8004ea6:	42b8      	cmp	r0, r7
 8004ea8:	d801      	bhi.n	8004eae <I2C_IsErrorOccurred+0xaa>
 8004eaa:	2f00      	cmp	r7, #0
 8004eac:	d1b8      	bne.n	8004e20 <I2C_IsErrorOccurred+0x1c>
 8004eae:	682b      	ldr	r3, [r5, #0]
 8004eb0:	6859      	ldr	r1, [r3, #4]
 8004eb2:	f895 2042 	ldrb.w	r2, [r5, #66]	; 0x42
 8004eb6:	6998      	ldr	r0, [r3, #24]
 8004eb8:	b2d2      	uxtb	r2, r2
 8004eba:	0400      	lsls	r0, r0, #16
 8004ebc:	d50a      	bpl.n	8004ed4 <I2C_IsErrorOccurred+0xd0>
 8004ebe:	0448      	lsls	r0, r1, #17
 8004ec0:	d408      	bmi.n	8004ed4 <I2C_IsErrorOccurred+0xd0>
 8004ec2:	2a20      	cmp	r2, #32
 8004ec4:	d006      	beq.n	8004ed4 <I2C_IsErrorOccurred+0xd0>
 8004ec6:	685a      	ldr	r2, [r3, #4]
 8004ec8:	f442 4280 	orr.w	r2, r2, #16384	; 0x4000
 8004ecc:	605a      	str	r2, [r3, #4]
 8004ece:	f7fd fded 	bl	8002aac <HAL_GetTick>
 8004ed2:	4606      	mov	r6, r0
 8004ed4:	682b      	ldr	r3, [r5, #0]
 8004ed6:	699b      	ldr	r3, [r3, #24]
 8004ed8:	0699      	lsls	r1, r3, #26
 8004eda:	d4a1      	bmi.n	8004e20 <I2C_IsErrorOccurred+0x1c>
 8004edc:	f7fd fde6 	bl	8002aac <HAL_GetTick>
 8004ee0:	1b80      	subs	r0, r0, r6
 8004ee2:	2819      	cmp	r0, #25
 8004ee4:	d9f6      	bls.n	8004ed4 <I2C_IsErrorOccurred+0xd0>
 8004ee6:	2420      	movs	r4, #32
 8004ee8:	f04f 0801 	mov.w	r8, #1
 8004eec:	e798      	b.n	8004e20 <I2C_IsErrorOccurred+0x1c>
 8004eee:	f1b8 0f00 	cmp.w	r8, #0
 8004ef2:	d19c      	bne.n	8004e2e <I2C_IsErrorOccurred+0x2a>
 8004ef4:	2220      	movs	r2, #32
 8004ef6:	61da      	str	r2, [r3, #28]
 8004ef8:	e799      	b.n	8004e2e <I2C_IsErrorOccurred+0x2a>
 8004efa:	4620      	mov	r0, r4
 8004efc:	e79a      	b.n	8004e34 <I2C_IsErrorOccurred+0x30>
 8004efe:	2800      	cmp	r0, #0
 8004f00:	d1b1      	bne.n	8004e66 <I2C_IsErrorOccurred+0x62>
 8004f02:	e8bd 81f0 	ldmia.w	sp!, {r4, r5, r6, r7, r8, pc}

08004f06 <I2C_WaitOnTXISFlagUntilTimeout>:
 8004f06:	b570      	push	{r4, r5, r6, lr}
 8004f08:	4604      	mov	r4, r0
 8004f0a:	460d      	mov	r5, r1
 8004f0c:	4616      	mov	r6, r2
 8004f0e:	6823      	ldr	r3, [r4, #0]
 8004f10:	699b      	ldr	r3, [r3, #24]
 8004f12:	079b      	lsls	r3, r3, #30
 8004f14:	d501      	bpl.n	8004f1a <I2C_WaitOnTXISFlagUntilTimeout+0x14>
 8004f16:	2000      	movs	r0, #0
 8004f18:	bd70      	pop	{r4, r5, r6, pc}
 8004f1a:	4632      	mov	r2, r6
 8004f1c:	4629      	mov	r1, r5
 8004f1e:	4620      	mov	r0, r4
 8004f20:	f7ff ff70 	bl	8004e04 <I2C_IsErrorOccurred>
 8004f24:	b9c0      	cbnz	r0, 8004f58 <I2C_WaitOnTXISFlagUntilTimeout+0x52>
 8004f26:	1c6a      	adds	r2, r5, #1
 8004f28:	d0f1      	beq.n	8004f0e <I2C_WaitOnTXISFlagUntilTimeout+0x8>
 8004f2a:	f7fd fdbf 	bl	8002aac <HAL_GetTick>
 8004f2e:	1b80      	subs	r0, r0, r6
 8004f30:	42a8      	cmp	r0, r5
 8004f32:	d801      	bhi.n	8004f38 <I2C_WaitOnTXISFlagUntilTimeout+0x32>
 8004f34:	2d00      	cmp	r5, #0
 8004f36:	d1ea      	bne.n	8004f0e <I2C_WaitOnTXISFlagUntilTimeout+0x8>
 8004f38:	6823      	ldr	r3, [r4, #0]
 8004f3a:	699b      	ldr	r3, [r3, #24]
 8004f3c:	f013 0302 	ands.w	r3, r3, #2
 8004f40:	d1e5      	bne.n	8004f0e <I2C_WaitOnTXISFlagUntilTimeout+0x8>
 8004f42:	6c62      	ldr	r2, [r4, #68]	; 0x44
 8004f44:	f884 3040 	strb.w	r3, [r4, #64]	; 0x40
 8004f48:	f042 0220 	orr.w	r2, r2, #32
 8004f4c:	6462      	str	r2, [r4, #68]	; 0x44
 8004f4e:	2220      	movs	r2, #32
 8004f50:	f884 2041 	strb.w	r2, [r4, #65]	; 0x41
 8004f54:	f884 3042 	strb.w	r3, [r4, #66]	; 0x42
 8004f58:	2001      	movs	r0, #1
 8004f5a:	e7dd      	b.n	8004f18 <I2C_WaitOnTXISFlagUntilTimeout+0x12>

08004f5c <I2C_WaitOnFlagUntilTimeout>:
 8004f5c:	e92d 41f0 	stmdb	sp!, {r4, r5, r6, r7, r8, lr}
 8004f60:	9f06      	ldr	r7, [sp, #24]
 8004f62:	4604      	mov	r4, r0
 8004f64:	4688      	mov	r8, r1
 8004f66:	4616      	mov	r6, r2
 8004f68:	461d      	mov	r5, r3
 8004f6a:	6822      	ldr	r2, [r4, #0]
 8004f6c:	6993      	ldr	r3, [r2, #24]
 8004f6e:	ea38 0303 	bics.w	r3, r8, r3
 8004f72:	bf0c      	ite	eq
 8004f74:	2301      	moveq	r3, #1
 8004f76:	2300      	movne	r3, #0
 8004f78:	42b3      	cmp	r3, r6
 8004f7a:	d001      	beq.n	8004f80 <I2C_WaitOnFlagUntilTimeout+0x24>
 8004f7c:	2000      	movs	r0, #0
 8004f7e:	e01e      	b.n	8004fbe <I2C_WaitOnFlagUntilTimeout+0x62>
 8004f80:	1c6b      	adds	r3, r5, #1
 8004f82:	d0f3      	beq.n	8004f6c <I2C_WaitOnFlagUntilTimeout+0x10>
 8004f84:	f7fd fd92 	bl	8002aac <HAL_GetTick>
 8004f88:	1bc0      	subs	r0, r0, r7
 8004f8a:	42a8      	cmp	r0, r5
 8004f8c:	d801      	bhi.n	8004f92 <I2C_WaitOnFlagUntilTimeout+0x36>
 8004f8e:	2d00      	cmp	r5, #0
 8004f90:	d1eb      	bne.n	8004f6a <I2C_WaitOnFlagUntilTimeout+0xe>
 8004f92:	6823      	ldr	r3, [r4, #0]
 8004f94:	699b      	ldr	r3, [r3, #24]
 8004f96:	ea38 0303 	bics.w	r3, r8, r3
 8004f9a:	bf0c      	ite	eq
 8004f9c:	2301      	moveq	r3, #1
 8004f9e:	2300      	movne	r3, #0
 8004fa0:	42b3      	cmp	r3, r6
 8004fa2:	d1e2      	bne.n	8004f6a <I2C_WaitOnFlagUntilTimeout+0xe>
 8004fa4:	6c63      	ldr	r3, [r4, #68]	; 0x44
 8004fa6:	2001      	movs	r0, #1
 8004fa8:	f043 0320 	orr.w	r3, r3, #32
 8004fac:	6463      	str	r3, [r4, #68]	; 0x44
 8004fae:	2320      	movs	r3, #32
 8004fb0:	f884 3041 	strb.w	r3, [r4, #65]	; 0x41
 8004fb4:	2300      	movs	r3, #0
 8004fb6:	f884 3042 	strb.w	r3, [r4, #66]	; 0x42
 8004fba:	f884 3040 	strb.w	r3, [r4, #64]	; 0x40
 8004fbe:	e8bd 81f0 	ldmia.w	sp!, {r4, r5, r6, r7, r8, pc}

08004fc2 <I2C_WaitOnSTOPFlagUntilTimeout>:
 8004fc2:	b570      	push	{r4, r5, r6, lr}
 8004fc4:	4604      	mov	r4, r0
 8004fc6:	460d      	mov	r5, r1
 8004fc8:	4616      	mov	r6, r2
 8004fca:	6823      	ldr	r3, [r4, #0]
 8004fcc:	699b      	ldr	r3, [r3, #24]
 8004fce:	069b      	lsls	r3, r3, #26
 8004fd0:	d501      	bpl.n	8004fd6 <I2C_WaitOnSTOPFlagUntilTimeout+0x14>
 8004fd2:	2000      	movs	r0, #0
 8004fd4:	bd70      	pop	{r4, r5, r6, pc}
 8004fd6:	4632      	mov	r2, r6
 8004fd8:	4629      	mov	r1, r5
 8004fda:	4620      	mov	r0, r4
 8004fdc:	f7ff ff12 	bl	8004e04 <I2C_IsErrorOccurred>
 8004fe0:	b9b0      	cbnz	r0, 8005010 <I2C_WaitOnSTOPFlagUntilTimeout+0x4e>
 8004fe2:	f7fd fd63 	bl	8002aac <HAL_GetTick>
 8004fe6:	1b80      	subs	r0, r0, r6
 8004fe8:	42a8      	cmp	r0, r5
 8004fea:	d801      	bhi.n	8004ff0 <I2C_WaitOnSTOPFlagUntilTimeout+0x2e>
 8004fec:	2d00      	cmp	r5, #0
 8004fee:	d1ec      	bne.n	8004fca <I2C_WaitOnSTOPFlagUntilTimeout+0x8>
 8004ff0:	6823      	ldr	r3, [r4, #0]
 8004ff2:	699b      	ldr	r3, [r3, #24]
 8004ff4:	f013 0320 	ands.w	r3, r3, #32
 8004ff8:	d1e7      	bne.n	8004fca <I2C_WaitOnSTOPFlagUntilTimeout+0x8>
 8004ffa:	6c62      	ldr	r2, [r4, #68]	; 0x44
 8004ffc:	f884 3040 	strb.w	r3, [r4, #64]	; 0x40
 8005000:	f042 0220 	orr.w	r2, r2, #32
 8005004:	6462      	str	r2, [r4, #68]	; 0x44
 8005006:	2220      	movs	r2, #32
 8005008:	f884 2041 	strb.w	r2, [r4, #65]	; 0x41
 800500c:	f884 3042 	strb.w	r3, [r4, #66]	; 0x42
 8005010:	2001      	movs	r0, #1
 8005012:	e7df      	b.n	8004fd4 <I2C_WaitOnSTOPFlagUntilTimeout+0x12>

08005014 <HAL_I2C_MspInit>:
 8005014:	4770      	bx	lr

08005016 <HAL_I2C_Init>:
 8005016:	b510      	push	{r4, lr}
 8005018:	4604      	mov	r4, r0
 800501a:	2800      	cmp	r0, #0
 800501c:	d04a      	beq.n	80050b4 <HAL_I2C_Init+0x9e>
 800501e:	f890 3041 	ldrb.w	r3, [r0, #65]	; 0x41
 8005022:	f003 02ff 	and.w	r2, r3, #255	; 0xff
 8005026:	b91b      	cbnz	r3, 8005030 <HAL_I2C_Init+0x1a>
 8005028:	f880 2040 	strb.w	r2, [r0, #64]	; 0x40
 800502c:	f7ff fff2 	bl	8005014 <HAL_I2C_MspInit>
 8005030:	2324      	movs	r3, #36	; 0x24
 8005032:	f884 3041 	strb.w	r3, [r4, #65]	; 0x41
 8005036:	6823      	ldr	r3, [r4, #0]
 8005038:	681a      	ldr	r2, [r3, #0]
 800503a:	f022 0201 	bic.w	r2, r2, #1
 800503e:	601a      	str	r2, [r3, #0]
 8005040:	6862      	ldr	r2, [r4, #4]
 8005042:	f022 6270 	bic.w	r2, r2, #251658240	; 0xf000000
 8005046:	611a      	str	r2, [r3, #16]
 8005048:	689a      	ldr	r2, [r3, #8]
 800504a:	f422 4200 	bic.w	r2, r2, #32768	; 0x8000
 800504e:	609a      	str	r2, [r3, #8]
 8005050:	e9d4 2102 	ldrd	r2, r1, [r4, #8]
 8005054:	2901      	cmp	r1, #1
 8005056:	d124      	bne.n	80050a2 <HAL_I2C_Init+0x8c>
 8005058:	f442 4200 	orr.w	r2, r2, #32768	; 0x8000
 800505c:	609a      	str	r2, [r3, #8]
 800505e:	685a      	ldr	r2, [r3, #4]
 8005060:	2000      	movs	r0, #0
 8005062:	f042 7200 	orr.w	r2, r2, #33554432	; 0x2000000
 8005066:	f442 4200 	orr.w	r2, r2, #32768	; 0x8000
 800506a:	605a      	str	r2, [r3, #4]
 800506c:	68da      	ldr	r2, [r3, #12]
 800506e:	f422 4200 	bic.w	r2, r2, #32768	; 0x8000
 8005072:	60da      	str	r2, [r3, #12]
 8005074:	e9d4 2104 	ldrd	r2, r1, [r4, #16]
 8005078:	430a      	orrs	r2, r1
 800507a:	69a1      	ldr	r1, [r4, #24]
 800507c:	ea42 2201 	orr.w	r2, r2, r1, lsl #8
 8005080:	60da      	str	r2, [r3, #12]
 8005082:	e9d4 2107 	ldrd	r2, r1, [r4, #28]
 8005086:	430a      	orrs	r2, r1
 8005088:	601a      	str	r2, [r3, #0]
 800508a:	681a      	ldr	r2, [r3, #0]
 800508c:	f042 0201 	orr.w	r2, r2, #1
 8005090:	601a      	str	r2, [r3, #0]
 8005092:	2320      	movs	r3, #32
 8005094:	6460      	str	r0, [r4, #68]	; 0x44
 8005096:	f884 3041 	strb.w	r3, [r4, #65]	; 0x41
 800509a:	6320      	str	r0, [r4, #48]	; 0x30
 800509c:	f884 0042 	strb.w	r0, [r4, #66]	; 0x42
 80050a0:	bd10      	pop	{r4, pc}
 80050a2:	f442 4204 	orr.w	r2, r2, #33792	; 0x8400
 80050a6:	2902      	cmp	r1, #2
 80050a8:	609a      	str	r2, [r3, #8]
 80050aa:	d1d8      	bne.n	800505e <HAL_I2C_Init+0x48>
 80050ac:	f44f 6200 	mov.w	r2, #2048	; 0x800
 80050b0:	605a      	str	r2, [r3, #4]
 80050b2:	e7d4      	b.n	800505e <HAL_I2C_Init+0x48>
 80050b4:	2001      	movs	r0, #1
 80050b6:	e7f3      	b.n	80050a0 <HAL_I2C_Init+0x8a>

080050b8 <HAL_I2C_MspDeInit>:
 80050b8:	4770      	bx	lr

080050ba <HAL_I2C_DeInit>:
 80050ba:	b510      	push	{r4, lr}
 80050bc:	4604      	mov	r4, r0
 80050be:	b198      	cbz	r0, 80050e8 <HAL_I2C_DeInit+0x2e>
 80050c0:	6802      	ldr	r2, [r0, #0]
 80050c2:	2324      	movs	r3, #36	; 0x24
 80050c4:	f880 3041 	strb.w	r3, [r0, #65]	; 0x41
 80050c8:	6813      	ldr	r3, [r2, #0]
 80050ca:	f023 0301 	bic.w	r3, r3, #1
 80050ce:	6013      	str	r3, [r2, #0]
 80050d0:	f7ff fff2 	bl	80050b8 <HAL_I2C_MspDeInit>
 80050d4:	2000      	movs	r0, #0
 80050d6:	6460      	str	r0, [r4, #68]	; 0x44
 80050d8:	f884 0040 	strb.w	r0, [r4, #64]	; 0x40
 80050dc:	f884 0041 	strb.w	r0, [r4, #65]	; 0x41
 80050e0:	6320      	str	r0, [r4, #48]	; 0x30
 80050e2:	f884 0042 	strb.w	r0, [r4, #66]	; 0x42
 80050e6:	bd10      	pop	{r4, pc}
 80050e8:	2001      	movs	r0, #1
 80050ea:	e7fc      	b.n	80050e6 <HAL_I2C_DeInit+0x2c>

080050ec <HAL_I2C_Mem_Write>:
 80050ec:	e92d 4ff7 	stmdb	sp!, {r0, r1, r2, r4, r5, r6, r7, r8, r9, sl, fp, lr}
 80050f0:	4699      	mov	r9, r3
 80050f2:	f890 3041 	ldrb.w	r3, [r0, #65]	; 0x41
 80050f6:	4604      	mov	r4, r0
 80050f8:	460f      	mov	r7, r1
 80050fa:	2b20      	cmp	r3, #32
 80050fc:	4616      	mov	r6, r2
 80050fe:	f8bd a034 	ldrh.w	sl, [sp, #52]	; 0x34
 8005102:	f8dd 8038 	ldr.w	r8, [sp, #56]	; 0x38
 8005106:	f040 80c6 	bne.w	8005296 <HAL_I2C_Mem_Write+0x1aa>
 800510a:	9b0c      	ldr	r3, [sp, #48]	; 0x30
 800510c:	b113      	cbz	r3, 8005114 <HAL_I2C_Mem_Write+0x28>
 800510e:	f1ba 0f00 	cmp.w	sl, #0
 8005112:	d106      	bne.n	8005122 <HAL_I2C_Mem_Write+0x36>
 8005114:	f44f 7300 	mov.w	r3, #512	; 0x200
 8005118:	6463      	str	r3, [r4, #68]	; 0x44
 800511a:	2001      	movs	r0, #1
 800511c:	b003      	add	sp, #12
 800511e:	e8bd 8ff0 	ldmia.w	sp!, {r4, r5, r6, r7, r8, r9, sl, fp, pc}
 8005122:	f890 3040 	ldrb.w	r3, [r0, #64]	; 0x40
 8005126:	2b01      	cmp	r3, #1
 8005128:	f000 80b5 	beq.w	8005296 <HAL_I2C_Mem_Write+0x1aa>
 800512c:	f04f 0b01 	mov.w	fp, #1
 8005130:	f880 b040 	strb.w	fp, [r0, #64]	; 0x40
 8005134:	f7fd fcba 	bl	8002aac <HAL_GetTick>
 8005138:	2319      	movs	r3, #25
 800513a:	4605      	mov	r5, r0
 800513c:	9000      	str	r0, [sp, #0]
 800513e:	465a      	mov	r2, fp
 8005140:	f44f 4100 	mov.w	r1, #32768	; 0x8000
 8005144:	4620      	mov	r0, r4
 8005146:	f7ff ff09 	bl	8004f5c <I2C_WaitOnFlagUntilTimeout>
 800514a:	2800      	cmp	r0, #0
 800514c:	d1e5      	bne.n	800511a <HAL_I2C_Mem_Write+0x2e>
 800514e:	2321      	movs	r3, #33	; 0x21
 8005150:	fa5f f289 	uxtb.w	r2, r9
 8005154:	4639      	mov	r1, r7
 8005156:	6360      	str	r0, [r4, #52]	; 0x34
 8005158:	f884 3041 	strb.w	r3, [r4, #65]	; 0x41
 800515c:	2340      	movs	r3, #64	; 0x40
 800515e:	f884 3042 	strb.w	r3, [r4, #66]	; 0x42
 8005162:	9b0c      	ldr	r3, [sp, #48]	; 0x30
 8005164:	6460      	str	r0, [r4, #68]	; 0x44
 8005166:	4620      	mov	r0, r4
 8005168:	6263      	str	r3, [r4, #36]	; 0x24
 800516a:	4b4c      	ldr	r3, [pc, #304]	; (800529c <HAL_I2C_Mem_Write+0x1b0>)
 800516c:	f8a4 a02a 	strh.w	sl, [r4, #42]	; 0x2a
 8005170:	9300      	str	r3, [sp, #0]
 8005172:	f04f 7380 	mov.w	r3, #16777216	; 0x1000000
 8005176:	f7ff fe2f 	bl	8004dd8 <I2C_TransferConfig>
 800517a:	462a      	mov	r2, r5
 800517c:	4641      	mov	r1, r8
 800517e:	4620      	mov	r0, r4
 8005180:	f7ff fec1 	bl	8004f06 <I2C_WaitOnTXISFlagUntilTimeout>
 8005184:	bb18      	cbnz	r0, 80051ce <HAL_I2C_Mem_Write+0xe2>
 8005186:	f1b9 0f01 	cmp.w	r9, #1
 800518a:	6823      	ldr	r3, [r4, #0]
 800518c:	d115      	bne.n	80051ba <HAL_I2C_Mem_Write+0xce>
 800518e:	b2f6      	uxtb	r6, r6
 8005190:	2200      	movs	r2, #0
 8005192:	2180      	movs	r1, #128	; 0x80
 8005194:	4620      	mov	r0, r4
 8005196:	629e      	str	r6, [r3, #40]	; 0x28
 8005198:	4643      	mov	r3, r8
 800519a:	9500      	str	r5, [sp, #0]
 800519c:	f7ff fede 	bl	8004f5c <I2C_WaitOnFlagUntilTimeout>
 80051a0:	b9a8      	cbnz	r0, 80051ce <HAL_I2C_Mem_Write+0xe2>
 80051a2:	8d63      	ldrh	r3, [r4, #42]	; 0x2a
 80051a4:	b29b      	uxth	r3, r3
 80051a6:	2bff      	cmp	r3, #255	; 0xff
 80051a8:	d815      	bhi.n	80051d6 <HAL_I2C_Mem_Write+0xea>
 80051aa:	8d62      	ldrh	r2, [r4, #42]	; 0x2a
 80051ac:	f04f 7300 	mov.w	r3, #33554432	; 0x2000000
 80051b0:	9000      	str	r0, [sp, #0]
 80051b2:	b292      	uxth	r2, r2
 80051b4:	8522      	strh	r2, [r4, #40]	; 0x28
 80051b6:	b2d2      	uxtb	r2, r2
 80051b8:	e012      	b.n	80051e0 <HAL_I2C_Mem_Write+0xf4>
 80051ba:	0a32      	lsrs	r2, r6, #8
 80051bc:	4641      	mov	r1, r8
 80051be:	4620      	mov	r0, r4
 80051c0:	629a      	str	r2, [r3, #40]	; 0x28
 80051c2:	462a      	mov	r2, r5
 80051c4:	f7ff fe9f 	bl	8004f06 <I2C_WaitOnTXISFlagUntilTimeout>
 80051c8:	b908      	cbnz	r0, 80051ce <HAL_I2C_Mem_Write+0xe2>
 80051ca:	6823      	ldr	r3, [r4, #0]
 80051cc:	e7df      	b.n	800518e <HAL_I2C_Mem_Write+0xa2>
 80051ce:	2300      	movs	r3, #0
 80051d0:	f884 3040 	strb.w	r3, [r4, #64]	; 0x40
 80051d4:	e7a1      	b.n	800511a <HAL_I2C_Mem_Write+0x2e>
 80051d6:	22ff      	movs	r2, #255	; 0xff
 80051d8:	f04f 7380 	mov.w	r3, #16777216	; 0x1000000
 80051dc:	9000      	str	r0, [sp, #0]
 80051de:	8522      	strh	r2, [r4, #40]	; 0x28
 80051e0:	4639      	mov	r1, r7
 80051e2:	4620      	mov	r0, r4
 80051e4:	f7ff fdf8 	bl	8004dd8 <I2C_TransferConfig>
 80051e8:	462a      	mov	r2, r5
 80051ea:	4641      	mov	r1, r8
 80051ec:	4620      	mov	r0, r4
 80051ee:	f7ff fe8a 	bl	8004f06 <I2C_WaitOnTXISFlagUntilTimeout>
 80051f2:	2800      	cmp	r0, #0
 80051f4:	d191      	bne.n	800511a <HAL_I2C_Mem_Write+0x2e>
 80051f6:	6a63      	ldr	r3, [r4, #36]	; 0x24
 80051f8:	6822      	ldr	r2, [r4, #0]
 80051fa:	f813 1b01 	ldrb.w	r1, [r3], #1
 80051fe:	6291      	str	r1, [r2, #40]	; 0x28
 8005200:	6263      	str	r3, [r4, #36]	; 0x24
 8005202:	8d63      	ldrh	r3, [r4, #42]	; 0x2a
 8005204:	8d22      	ldrh	r2, [r4, #40]	; 0x28
 8005206:	3b01      	subs	r3, #1
 8005208:	3a01      	subs	r2, #1
 800520a:	b29b      	uxth	r3, r3
 800520c:	b292      	uxth	r2, r2
 800520e:	8563      	strh	r3, [r4, #42]	; 0x2a
 8005210:	8d63      	ldrh	r3, [r4, #42]	; 0x2a
 8005212:	8522      	strh	r2, [r4, #40]	; 0x28
 8005214:	b29b      	uxth	r3, r3
 8005216:	b1b3      	cbz	r3, 8005246 <HAL_I2C_Mem_Write+0x15a>
 8005218:	b9aa      	cbnz	r2, 8005246 <HAL_I2C_Mem_Write+0x15a>
 800521a:	4643      	mov	r3, r8
 800521c:	2180      	movs	r1, #128	; 0x80
 800521e:	4620      	mov	r0, r4
 8005220:	9500      	str	r5, [sp, #0]
 8005222:	f7ff fe9b 	bl	8004f5c <I2C_WaitOnFlagUntilTimeout>
 8005226:	2800      	cmp	r0, #0
 8005228:	f47f af77 	bne.w	800511a <HAL_I2C_Mem_Write+0x2e>
 800522c:	8d63      	ldrh	r3, [r4, #42]	; 0x2a
 800522e:	b29b      	uxth	r3, r3
 8005230:	2bff      	cmp	r3, #255	; 0xff
 8005232:	d928      	bls.n	8005286 <HAL_I2C_Mem_Write+0x19a>
 8005234:	22ff      	movs	r2, #255	; 0xff
 8005236:	f04f 7380 	mov.w	r3, #16777216	; 0x1000000
 800523a:	9000      	str	r0, [sp, #0]
 800523c:	8522      	strh	r2, [r4, #40]	; 0x28
 800523e:	4639      	mov	r1, r7
 8005240:	4620      	mov	r0, r4
 8005242:	f7ff fdc9 	bl	8004dd8 <I2C_TransferConfig>
 8005246:	8d63      	ldrh	r3, [r4, #42]	; 0x2a
 8005248:	b29b      	uxth	r3, r3
 800524a:	2b00      	cmp	r3, #0
 800524c:	d1cc      	bne.n	80051e8 <HAL_I2C_Mem_Write+0xfc>
 800524e:	462a      	mov	r2, r5
 8005250:	4641      	mov	r1, r8
 8005252:	4620      	mov	r0, r4
 8005254:	f7ff feb5 	bl	8004fc2 <I2C_WaitOnSTOPFlagUntilTimeout>
 8005258:	2800      	cmp	r0, #0
 800525a:	f47f af5e 	bne.w	800511a <HAL_I2C_Mem_Write+0x2e>
 800525e:	6823      	ldr	r3, [r4, #0]
 8005260:	2120      	movs	r1, #32
 8005262:	61d9      	str	r1, [r3, #28]
 8005264:	685a      	ldr	r2, [r3, #4]
 8005266:	f022 72ff 	bic.w	r2, r2, #33423360	; 0x1fe0000
 800526a:	f422 328b 	bic.w	r2, r2, #71168	; 0x11600
 800526e:	f422 72ff 	bic.w	r2, r2, #510	; 0x1fe
 8005272:	f022 0201 	bic.w	r2, r2, #1
 8005276:	605a      	str	r2, [r3, #4]
 8005278:	f884 1041 	strb.w	r1, [r4, #65]	; 0x41
 800527c:	f884 0040 	strb.w	r0, [r4, #64]	; 0x40
 8005280:	f884 0042 	strb.w	r0, [r4, #66]	; 0x42
 8005284:	e74a      	b.n	800511c <HAL_I2C_Mem_Write+0x30>
 8005286:	8d62      	ldrh	r2, [r4, #42]	; 0x2a
 8005288:	f04f 7300 	mov.w	r3, #33554432	; 0x2000000
 800528c:	9000      	str	r0, [sp, #0]
 800528e:	b292      	uxth	r2, r2
 8005290:	8522      	strh	r2, [r4, #40]	; 0x28
 8005292:	b2d2      	uxtb	r2, r2
 8005294:	e7d3      	b.n	800523e <HAL_I2C_Mem_Write+0x152>
 8005296:	2002      	movs	r0, #2
 8005298:	e740      	b.n	800511c <HAL_I2C_Mem_Write+0x30>
 800529a:	bf00      	nop
 800529c:	80002000 	.word	0x80002000

080052a0 <HAL_I2C_Mem_Read>:
 80052a0:	e92d 4ff7 	stmdb	sp!, {r0, r1, r2, r4, r5, r6, r7, r8, r9, sl, fp, lr}
 80052a4:	4699      	mov	r9, r3
 80052a6:	f890 3041 	ldrb.w	r3, [r0, #65]	; 0x41
 80052aa:	4604      	mov	r4, r0
 80052ac:	460f      	mov	r7, r1
 80052ae:	2b20      	cmp	r3, #32
 80052b0:	4616      	mov	r6, r2
 80052b2:	f8bd a034 	ldrh.w	sl, [sp, #52]	; 0x34
 80052b6:	f8dd 8038 	ldr.w	r8, [sp, #56]	; 0x38
 80052ba:	f040 80c9 	bne.w	8005450 <HAL_I2C_Mem_Read+0x1b0>
 80052be:	9b0c      	ldr	r3, [sp, #48]	; 0x30
 80052c0:	b113      	cbz	r3, 80052c8 <HAL_I2C_Mem_Read+0x28>
 80052c2:	f1ba 0f00 	cmp.w	sl, #0
 80052c6:	d106      	bne.n	80052d6 <HAL_I2C_Mem_Read+0x36>
 80052c8:	f44f 7300 	mov.w	r3, #512	; 0x200
 80052cc:	6463      	str	r3, [r4, #68]	; 0x44
 80052ce:	2001      	movs	r0, #1
 80052d0:	b003      	add	sp, #12
 80052d2:	e8bd 8ff0 	ldmia.w	sp!, {r4, r5, r6, r7, r8, r9, sl, fp, pc}
 80052d6:	f890 3040 	ldrb.w	r3, [r0, #64]	; 0x40
 80052da:	2b01      	cmp	r3, #1
 80052dc:	f000 80b8 	beq.w	8005450 <HAL_I2C_Mem_Read+0x1b0>
 80052e0:	f04f 0b01 	mov.w	fp, #1
 80052e4:	f880 b040 	strb.w	fp, [r0, #64]	; 0x40
 80052e8:	f7fd fbe0 	bl	8002aac <HAL_GetTick>
 80052ec:	2319      	movs	r3, #25
 80052ee:	4605      	mov	r5, r0
 80052f0:	9000      	str	r0, [sp, #0]
 80052f2:	465a      	mov	r2, fp
 80052f4:	f44f 4100 	mov.w	r1, #32768	; 0x8000
 80052f8:	4620      	mov	r0, r4
 80052fa:	f7ff fe2f 	bl	8004f5c <I2C_WaitOnFlagUntilTimeout>
 80052fe:	2800      	cmp	r0, #0
 8005300:	d1e5      	bne.n	80052ce <HAL_I2C_Mem_Read+0x2e>
 8005302:	2322      	movs	r3, #34	; 0x22
 8005304:	fa5f f289 	uxtb.w	r2, r9
 8005308:	4639      	mov	r1, r7
 800530a:	6360      	str	r0, [r4, #52]	; 0x34
 800530c:	f884 3041 	strb.w	r3, [r4, #65]	; 0x41
 8005310:	2340      	movs	r3, #64	; 0x40
 8005312:	f884 3042 	strb.w	r3, [r4, #66]	; 0x42
 8005316:	9b0c      	ldr	r3, [sp, #48]	; 0x30
 8005318:	6460      	str	r0, [r4, #68]	; 0x44
 800531a:	6263      	str	r3, [r4, #36]	; 0x24
 800531c:	4b4d      	ldr	r3, [pc, #308]	; (8005454 <HAL_I2C_Mem_Read+0x1b4>)
 800531e:	f8a4 a02a 	strh.w	sl, [r4, #42]	; 0x2a
 8005322:	9300      	str	r3, [sp, #0]
 8005324:	4603      	mov	r3, r0
 8005326:	4620      	mov	r0, r4
 8005328:	f7ff fd56 	bl	8004dd8 <I2C_TransferConfig>
 800532c:	462a      	mov	r2, r5
 800532e:	4641      	mov	r1, r8
 8005330:	4620      	mov	r0, r4
 8005332:	f7ff fde8 	bl	8004f06 <I2C_WaitOnTXISFlagUntilTimeout>
 8005336:	bb20      	cbnz	r0, 8005382 <HAL_I2C_Mem_Read+0xe2>
 8005338:	f1b9 0f01 	cmp.w	r9, #1
 800533c:	6823      	ldr	r3, [r4, #0]
 800533e:	d116      	bne.n	800536e <HAL_I2C_Mem_Read+0xce>
 8005340:	b2f6      	uxtb	r6, r6
 8005342:	2200      	movs	r2, #0
 8005344:	2140      	movs	r1, #64	; 0x40
 8005346:	4620      	mov	r0, r4
 8005348:	629e      	str	r6, [r3, #40]	; 0x28
 800534a:	4643      	mov	r3, r8
 800534c:	9500      	str	r5, [sp, #0]
 800534e:	f7ff fe05 	bl	8004f5c <I2C_WaitOnFlagUntilTimeout>
 8005352:	b9b0      	cbnz	r0, 8005382 <HAL_I2C_Mem_Read+0xe2>
 8005354:	8d63      	ldrh	r3, [r4, #42]	; 0x2a
 8005356:	b29b      	uxth	r3, r3
 8005358:	2bff      	cmp	r3, #255	; 0xff
 800535a:	4b3f      	ldr	r3, [pc, #252]	; (8005458 <HAL_I2C_Mem_Read+0x1b8>)
 800535c:	d815      	bhi.n	800538a <HAL_I2C_Mem_Read+0xea>
 800535e:	8d62      	ldrh	r2, [r4, #42]	; 0x2a
 8005360:	9300      	str	r3, [sp, #0]
 8005362:	f04f 7300 	mov.w	r3, #33554432	; 0x2000000
 8005366:	b292      	uxth	r2, r2
 8005368:	8522      	strh	r2, [r4, #40]	; 0x28
 800536a:	b2d2      	uxtb	r2, r2
 800536c:	e012      	b.n	8005394 <HAL_I2C_Mem_Read+0xf4>
 800536e:	0a32      	lsrs	r2, r6, #8
 8005370:	4641      	mov	r1, r8
 8005372:	4620      	mov	r0, r4
 8005374:	629a      	str	r2, [r3, #40]	; 0x28
 8005376:	462a      	mov	r2, r5
 8005378:	f7ff fdc5 	bl	8004f06 <I2C_WaitOnTXISFlagUntilTimeout>
 800537c:	b908      	cbnz	r0, 8005382 <HAL_I2C_Mem_Read+0xe2>
 800537e:	6823      	ldr	r3, [r4, #0]
 8005380:	e7de      	b.n	8005340 <HAL_I2C_Mem_Read+0xa0>
 8005382:	2300      	movs	r3, #0
 8005384:	f884 3040 	strb.w	r3, [r4, #64]	; 0x40
 8005388:	e7a1      	b.n	80052ce <HAL_I2C_Mem_Read+0x2e>
 800538a:	22ff      	movs	r2, #255	; 0xff
 800538c:	9300      	str	r3, [sp, #0]
 800538e:	f04f 7380 	mov.w	r3, #16777216	; 0x1000000
 8005392:	8522      	strh	r2, [r4, #40]	; 0x28
 8005394:	4639      	mov	r1, r7
 8005396:	4620      	mov	r0, r4
 8005398:	f7ff fd1e 	bl	8004dd8 <I2C_TransferConfig>
 800539c:	4643      	mov	r3, r8
 800539e:	2200      	movs	r2, #0
 80053a0:	2104      	movs	r1, #4
 80053a2:	4620      	mov	r0, r4
 80053a4:	9500      	str	r5, [sp, #0]
 80053a6:	f7ff fdd9 	bl	8004f5c <I2C_WaitOnFlagUntilTimeout>
 80053aa:	2800      	cmp	r0, #0
 80053ac:	d18f      	bne.n	80052ce <HAL_I2C_Mem_Read+0x2e>
 80053ae:	6823      	ldr	r3, [r4, #0]
 80053b0:	6a5a      	ldr	r2, [r3, #36]	; 0x24
 80053b2:	6a63      	ldr	r3, [r4, #36]	; 0x24
 80053b4:	701a      	strb	r2, [r3, #0]
 80053b6:	6a63      	ldr	r3, [r4, #36]	; 0x24
 80053b8:	8d22      	ldrh	r2, [r4, #40]	; 0x28
 80053ba:	3301      	adds	r3, #1
 80053bc:	3a01      	subs	r2, #1
 80053be:	6263      	str	r3, [r4, #36]	; 0x24
 80053c0:	8d63      	ldrh	r3, [r4, #42]	; 0x2a
 80053c2:	b292      	uxth	r2, r2
 80053c4:	3b01      	subs	r3, #1
 80053c6:	8522      	strh	r2, [r4, #40]	; 0x28
 80053c8:	b29b      	uxth	r3, r3
 80053ca:	8563      	strh	r3, [r4, #42]	; 0x2a
 80053cc:	8d63      	ldrh	r3, [r4, #42]	; 0x2a
 80053ce:	b29b      	uxth	r3, r3
 80053d0:	b1b3      	cbz	r3, 8005400 <HAL_I2C_Mem_Read+0x160>
 80053d2:	b9aa      	cbnz	r2, 8005400 <HAL_I2C_Mem_Read+0x160>
 80053d4:	4643      	mov	r3, r8
 80053d6:	2180      	movs	r1, #128	; 0x80
 80053d8:	4620      	mov	r0, r4
 80053da:	9500      	str	r5, [sp, #0]
 80053dc:	f7ff fdbe 	bl	8004f5c <I2C_WaitOnFlagUntilTimeout>
 80053e0:	2800      	cmp	r0, #0
 80053e2:	f47f af74 	bne.w	80052ce <HAL_I2C_Mem_Read+0x2e>
 80053e6:	8d63      	ldrh	r3, [r4, #42]	; 0x2a
 80053e8:	b29b      	uxth	r3, r3
 80053ea:	2bff      	cmp	r3, #255	; 0xff
 80053ec:	d928      	bls.n	8005440 <HAL_I2C_Mem_Read+0x1a0>
 80053ee:	22ff      	movs	r2, #255	; 0xff
 80053f0:	f04f 7380 	mov.w	r3, #16777216	; 0x1000000
 80053f4:	9000      	str	r0, [sp, #0]
 80053f6:	8522      	strh	r2, [r4, #40]	; 0x28
 80053f8:	4639      	mov	r1, r7
 80053fa:	4620      	mov	r0, r4
 80053fc:	f7ff fcec 	bl	8004dd8 <I2C_TransferConfig>
 8005400:	8d63      	ldrh	r3, [r4, #42]	; 0x2a
 8005402:	b29b      	uxth	r3, r3
 8005404:	2b00      	cmp	r3, #0
 8005406:	d1c9      	bne.n	800539c <HAL_I2C_Mem_Read+0xfc>
 8005408:	462a      	mov	r2, r5
 800540a:	4641      	mov	r1, r8
 800540c:	4620      	mov	r0, r4
 800540e:	f7ff fdd8 	bl	8004fc2 <I2C_WaitOnSTOPFlagUntilTimeout>
 8005412:	2800      	cmp	r0, #0
 8005414:	f47f af5b 	bne.w	80052ce <HAL_I2C_Mem_Read+0x2e>
 8005418:	6823      	ldr	r3, [r4, #0]
 800541a:	2120      	movs	r1, #32
 800541c:	61d9      	str	r1, [r3, #28]
 800541e:	685a      	ldr	r2, [r3, #4]
 8005420:	f022 72ff 	bic.w	r2, r2, #33423360	; 0x1fe0000
 8005424:	f422 328b 	bic.w	r2, r2, #71168	; 0x11600
 8005428:	f422 72ff 	bic.w	r2, r2, #510	; 0x1fe
 800542c:	f022 0201 	bic.w	r2, r2, #1
 8005430:	605a      	str	r2, [r3, #4]
 8005432:	f884 1041 	strb.w	r1, [r4, #65]	; 0x41
 8005436:	f884 0040 	strb.w	r0, [r4, #64]	; 0x40
 800543a:	f884 0042 	strb.w	r0, [r4, #66]	; 0x42
 800543e:	e747      	b.n	80052d0 <HAL_I2C_Mem_Read+0x30>
 8005440:	8d62      	ldrh	r2, [r4, #42]	; 0x2a
 8005442:	f04f 7300 	mov.w	r3, #33554432	; 0x2000000
 8005446:	9000      	str	r0, [sp, #0]
 8005448:	b292      	uxth	r2, r2
 800544a:	8522      	strh	r2, [r4, #40]	; 0x28
 800544c:	b2d2      	uxtb	r2, r2
 800544e:	e7d3      	b.n	80053f8 <HAL_I2C_Mem_Read+0x158>
 8005450:	2002      	movs	r0, #2
 8005452:	e73d      	b.n	80052d0 <HAL_I2C_Mem_Read+0x30>
 8005454:	80002000 	.word	0x80002000
 8005458:	80002400 	.word	0x80002400

0800545c <HAL_I2C_GetState>:
 800545c:	f890 0041 	ldrb.w	r0, [r0, #65]	; 0x41
 8005460:	4770      	bx	lr

08005462 <HAL_I2C_GetError>:
 8005462:	6c40      	ldr	r0, [r0, #68]	; 0x44
 8005464:	4770      	bx	lr

08005466 <HAL_I2CEx_ConfigAnalogFilter>:
 8005466:	b510      	push	{r4, lr}
 8005468:	f890 3041 	ldrb.w	r3, [r0, #65]	; 0x41
 800546c:	2b20      	cmp	r3, #32
 800546e:	b2dc      	uxtb	r4, r3
 8005470:	d11d      	bne.n	80054ae <HAL_I2CEx_ConfigAnalogFilter+0x48>
 8005472:	f890 3040 	ldrb.w	r3, [r0, #64]	; 0x40
 8005476:	2b01      	cmp	r3, #1
 8005478:	d019      	beq.n	80054ae <HAL_I2CEx_ConfigAnalogFilter+0x48>
 800547a:	2324      	movs	r3, #36	; 0x24
 800547c:	f880 3041 	strb.w	r3, [r0, #65]	; 0x41
 8005480:	6803      	ldr	r3, [r0, #0]
 8005482:	681a      	ldr	r2, [r3, #0]
 8005484:	f022 0201 	bic.w	r2, r2, #1
 8005488:	601a      	str	r2, [r3, #0]
 800548a:	681a      	ldr	r2, [r3, #0]
 800548c:	f422 5280 	bic.w	r2, r2, #4096	; 0x1000
 8005490:	601a      	str	r2, [r3, #0]
 8005492:	681a      	ldr	r2, [r3, #0]
 8005494:	4311      	orrs	r1, r2
 8005496:	6019      	str	r1, [r3, #0]
 8005498:	681a      	ldr	r2, [r3, #0]
 800549a:	f042 0201 	orr.w	r2, r2, #1
 800549e:	601a      	str	r2, [r3, #0]
 80054a0:	2300      	movs	r3, #0
 80054a2:	f880 4041 	strb.w	r4, [r0, #65]	; 0x41
 80054a6:	f880 3040 	strb.w	r3, [r0, #64]	; 0x40
 80054aa:	4618      	mov	r0, r3
 80054ac:	bd10      	pop	{r4, pc}
 80054ae:	2002      	movs	r0, #2
 80054b0:	e7fc      	b.n	80054ac <HAL_I2CEx_ConfigAnalogFilter+0x46>

080054b2 <HAL_I2CEx_ConfigDigitalFilter>:
 80054b2:	b510      	push	{r4, lr}
 80054b4:	f890 3041 	ldrb.w	r3, [r0, #65]	; 0x41
 80054b8:	2b20      	cmp	r3, #32
 80054ba:	b2dc      	uxtb	r4, r3
 80054bc:	d11c      	bne.n	80054f8 <HAL_I2CEx_ConfigDigitalFilter+0x46>
 80054be:	f890 3040 	ldrb.w	r3, [r0, #64]	; 0x40
 80054c2:	2b01      	cmp	r3, #1
 80054c4:	d018      	beq.n	80054f8 <HAL_I2CEx_ConfigDigitalFilter+0x46>
 80054c6:	2324      	movs	r3, #36	; 0x24
 80054c8:	f880 3041 	strb.w	r3, [r0, #65]	; 0x41
 80054cc:	6803      	ldr	r3, [r0, #0]
 80054ce:	681a      	ldr	r2, [r3, #0]
 80054d0:	f022 0201 	bic.w	r2, r2, #1
 80054d4:	601a      	str	r2, [r3, #0]
 80054d6:	681a      	ldr	r2, [r3, #0]
 80054d8:	f422 6270 	bic.w	r2, r2, #3840	; 0xf00
 80054dc:	ea42 2101 	orr.w	r1, r2, r1, lsl #8
 80054e0:	6019      	str	r1, [r3, #0]
 80054e2:	681a      	ldr	r2, [r3, #0]
 80054e4:	f042 0201 	orr.w	r2, r2, #1
 80054e8:	601a      	str	r2, [r3, #0]
 80054ea:	2300      	movs	r3, #0
 80054ec:	f880 4041 	strb.w	r4, [r0, #65]	; 0x41
 80054f0:	f880 3040 	strb.w	r3, [r0, #64]	; 0x40
 80054f4:	4618      	mov	r0, r3
 80054f6:	bd10      	pop	{r4, pc}
 80054f8:	2002      	movs	r0, #2
 80054fa:	e7fc      	b.n	80054f6 <HAL_I2CEx_ConfigDigitalFilter+0x44>

080054fc <LTDC_SetConfig>:
 80054fc:	01d2      	lsls	r2, r2, #7
 80054fe:	6800      	ldr	r0, [r0, #0]
 8005500:	f8d1 c000 	ldr.w	ip, [r1]
 8005504:	3284      	adds	r2, #132	; 0x84
 8005506:	1883      	adds	r3, r0, r2
 8005508:	e92d 43f0 	stmdb	sp!, {r4, r5, r6, r7, r8, r9, lr}
 800550c:	68c6      	ldr	r6, [r0, #12]
 800550e:	f10c 0701 	add.w	r7, ip, #1
 8005512:	685d      	ldr	r5, [r3, #4]
 8005514:	f04f 0e00 	mov.w	lr, #0
 8005518:	684c      	ldr	r4, [r1, #4]
 800551a:	f3c6 460b 	ubfx	r6, r6, #16, #12
 800551e:	f405 4570 	and.w	r5, r5, #61440	; 0xf000
 8005522:	f8d1 9018 	ldr.w	r9, [r1, #24]
 8005526:	4426      	add	r6, r4
 8005528:	605d      	str	r5, [r3, #4]
 800552a:	68c5      	ldr	r5, [r0, #12]
 800552c:	f3c5 450b 	ubfx	r5, r5, #16, #12
 8005530:	443d      	add	r5, r7
 8005532:	ea45 4506 	orr.w	r5, r5, r6, lsl #16
 8005536:	68ce      	ldr	r6, [r1, #12]
 8005538:	605d      	str	r5, [r3, #4]
 800553a:	68c5      	ldr	r5, [r0, #12]
 800553c:	f3c5 050a 	ubfx	r5, r5, #0, #11
 8005540:	442e      	add	r6, r5
 8005542:	689d      	ldr	r5, [r3, #8]
 8005544:	f405 4570 	and.w	r5, r5, #61440	; 0xf000
 8005548:	609d      	str	r5, [r3, #8]
 800554a:	688d      	ldr	r5, [r1, #8]
 800554c:	68c7      	ldr	r7, [r0, #12]
 800554e:	3501      	adds	r5, #1
 8005550:	f3c7 070a 	ubfx	r7, r7, #0, #11
 8005554:	443d      	add	r5, r7
 8005556:	ea45 4506 	orr.w	r5, r5, r6, lsl #16
 800555a:	690e      	ldr	r6, [r1, #16]
 800555c:	609d      	str	r5, [r3, #8]
 800555e:	691d      	ldr	r5, [r3, #16]
 8005560:	f025 0507 	bic.w	r5, r5, #7
 8005564:	611d      	str	r5, [r3, #16]
 8005566:	611e      	str	r6, [r3, #16]
 8005568:	699d      	ldr	r5, [r3, #24]
 800556a:	f891 7032 	ldrb.w	r7, [r1, #50]	; 0x32
 800556e:	f891 8031 	ldrb.w	r8, [r1, #49]	; 0x31
 8005572:	f8c3 e018 	str.w	lr, [r3, #24]
 8005576:	f891 5030 	ldrb.w	r5, [r1, #48]	; 0x30
 800557a:	ea45 6509 	orr.w	r5, r5, r9, lsl #24
 800557e:	ea45 2508 	orr.w	r5, r5, r8, lsl #8
 8005582:	ea45 4507 	orr.w	r5, r5, r7, lsl #16
 8005586:	619d      	str	r5, [r3, #24]
 8005588:	695d      	ldr	r5, [r3, #20]
 800558a:	f025 05ff 	bic.w	r5, r5, #255	; 0xff
 800558e:	615d      	str	r5, [r3, #20]
 8005590:	694d      	ldr	r5, [r1, #20]
 8005592:	615d      	str	r5, [r3, #20]
 8005594:	69dd      	ldr	r5, [r3, #28]
 8005596:	f425 65e0 	bic.w	r5, r5, #1792	; 0x700
 800559a:	f025 0507 	bic.w	r5, r5, #7
 800559e:	61dd      	str	r5, [r3, #28]
 80055a0:	e9d1 5707 	ldrd	r5, r7, [r1, #28]
 80055a4:	433d      	orrs	r5, r7
 80055a6:	61dd      	str	r5, [r3, #28]
 80055a8:	6a9d      	ldr	r5, [r3, #40]	; 0x28
 80055aa:	6a4d      	ldr	r5, [r1, #36]	; 0x24
 80055ac:	f8c3 e028 	str.w	lr, [r3, #40]	; 0x28
 80055b0:	629d      	str	r5, [r3, #40]	; 0x28
 80055b2:	b31e      	cbz	r6, 80055fc <LTDC_SetConfig+0x100>
 80055b4:	2e01      	cmp	r6, #1
 80055b6:	d023      	beq.n	8005600 <LTDC_SetConfig+0x104>
 80055b8:	1eb5      	subs	r5, r6, #2
 80055ba:	2d02      	cmp	r5, #2
 80055bc:	d922      	bls.n	8005604 <LTDC_SetConfig+0x108>
 80055be:	2e07      	cmp	r6, #7
 80055c0:	bf0c      	ite	eq
 80055c2:	2502      	moveq	r5, #2
 80055c4:	2501      	movne	r5, #1
 80055c6:	6ade      	ldr	r6, [r3, #44]	; 0x2c
 80055c8:	eba4 040c 	sub.w	r4, r4, ip
 80055cc:	f006 26e0 	and.w	r6, r6, #3758153728	; 0xe000e000
 80055d0:	436c      	muls	r4, r5
 80055d2:	62de      	str	r6, [r3, #44]	; 0x2c
 80055d4:	3407      	adds	r4, #7
 80055d6:	6a8e      	ldr	r6, [r1, #40]	; 0x28
 80055d8:	6ac9      	ldr	r1, [r1, #44]	; 0x2c
 80055da:	436e      	muls	r6, r5
 80055dc:	ea44 4406 	orr.w	r4, r4, r6, lsl #16
 80055e0:	62dc      	str	r4, [r3, #44]	; 0x2c
 80055e2:	6b1c      	ldr	r4, [r3, #48]	; 0x30
 80055e4:	f424 64ff 	bic.w	r4, r4, #2040	; 0x7f8
 80055e8:	f024 0407 	bic.w	r4, r4, #7
 80055ec:	631c      	str	r4, [r3, #48]	; 0x30
 80055ee:	6319      	str	r1, [r3, #48]	; 0x30
 80055f0:	5883      	ldr	r3, [r0, r2]
 80055f2:	f043 0301 	orr.w	r3, r3, #1
 80055f6:	5083      	str	r3, [r0, r2]
 80055f8:	e8bd 83f0 	ldmia.w	sp!, {r4, r5, r6, r7, r8, r9, pc}
 80055fc:	2504      	movs	r5, #4
 80055fe:	e7e2      	b.n	80055c6 <LTDC_SetConfig+0xca>
 8005600:	2503      	movs	r5, #3
 8005602:	e7e0      	b.n	80055c6 <LTDC_SetConfig+0xca>
 8005604:	2502      	movs	r5, #2
 8005606:	e7de      	b.n	80055c6 <LTDC_SetConfig+0xca>

08005608 <HAL_LTDC_Init>:
 8005608:	b538      	push	{r3, r4, r5, lr}
 800560a:	4604      	mov	r4, r0
 800560c:	2800      	cmp	r0, #0
 800560e:	d063      	beq.n	80056d8 <HAL_LTDC_Init+0xd0>
 8005610:	f890 30a1 	ldrb.w	r3, [r0, #161]	; 0xa1
 8005614:	f003 02ff 	and.w	r2, r3, #255	; 0xff
 8005618:	b91b      	cbnz	r3, 8005622 <HAL_LTDC_Init+0x1a>
 800561a:	f880 20a0 	strb.w	r2, [r0, #160]	; 0xa0
 800561e:	f7fb fc37 	bl	8000e90 <HAL_LTDC_MspInit>
 8005622:	2302      	movs	r3, #2
 8005624:	f884 30a1 	strb.w	r3, [r4, #161]	; 0xa1
 8005628:	6823      	ldr	r3, [r4, #0]
 800562a:	699a      	ldr	r2, [r3, #24]
 800562c:	f022 4270 	bic.w	r2, r2, #4026531840	; 0xf0000000
 8005630:	619a      	str	r2, [r3, #24]
 8005632:	6999      	ldr	r1, [r3, #24]
 8005634:	e9d4 2001 	ldrd	r2, r0, [r4, #4]
 8005638:	4302      	orrs	r2, r0
 800563a:	68e0      	ldr	r0, [r4, #12]
 800563c:	4302      	orrs	r2, r0
 800563e:	6920      	ldr	r0, [r4, #16]
 8005640:	4302      	orrs	r2, r0
 8005642:	6960      	ldr	r0, [r4, #20]
 8005644:	430a      	orrs	r2, r1
 8005646:	4925      	ldr	r1, [pc, #148]	; (80056dc <HAL_LTDC_Init+0xd4>)
 8005648:	619a      	str	r2, [r3, #24]
 800564a:	689a      	ldr	r2, [r3, #8]
 800564c:	400a      	ands	r2, r1
 800564e:	609a      	str	r2, [r3, #8]
 8005650:	689a      	ldr	r2, [r3, #8]
 8005652:	ea42 4200 	orr.w	r2, r2, r0, lsl #16
 8005656:	69a0      	ldr	r0, [r4, #24]
 8005658:	4302      	orrs	r2, r0
 800565a:	69e0      	ldr	r0, [r4, #28]
 800565c:	609a      	str	r2, [r3, #8]
 800565e:	68da      	ldr	r2, [r3, #12]
 8005660:	400a      	ands	r2, r1
 8005662:	60da      	str	r2, [r3, #12]
 8005664:	68da      	ldr	r2, [r3, #12]
 8005666:	ea42 4200 	orr.w	r2, r2, r0, lsl #16
 800566a:	6a20      	ldr	r0, [r4, #32]
 800566c:	4302      	orrs	r2, r0
 800566e:	6a60      	ldr	r0, [r4, #36]	; 0x24
 8005670:	60da      	str	r2, [r3, #12]
 8005672:	691a      	ldr	r2, [r3, #16]
 8005674:	400a      	ands	r2, r1
 8005676:	611a      	str	r2, [r3, #16]
 8005678:	691a      	ldr	r2, [r3, #16]
 800567a:	ea42 4200 	orr.w	r2, r2, r0, lsl #16
 800567e:	6aa0      	ldr	r0, [r4, #40]	; 0x28
 8005680:	4302      	orrs	r2, r0
 8005682:	611a      	str	r2, [r3, #16]
 8005684:	695a      	ldr	r2, [r3, #20]
 8005686:	4011      	ands	r1, r2
 8005688:	6159      	str	r1, [r3, #20]
 800568a:	6ae1      	ldr	r1, [r4, #44]	; 0x2c
 800568c:	695a      	ldr	r2, [r3, #20]
 800568e:	ea42 4201 	orr.w	r2, r2, r1, lsl #16
 8005692:	6b21      	ldr	r1, [r4, #48]	; 0x30
 8005694:	430a      	orrs	r2, r1
 8005696:	615a      	str	r2, [r3, #20]
 8005698:	6ad9      	ldr	r1, [r3, #44]	; 0x2c
 800569a:	f894 0036 	ldrb.w	r0, [r4, #54]	; 0x36
 800569e:	f001 417f 	and.w	r1, r1, #4278190080	; 0xff000000
 80056a2:	f894 5035 	ldrb.w	r5, [r4, #53]	; 0x35
 80056a6:	62d9      	str	r1, [r3, #44]	; 0x2c
 80056a8:	6ad9      	ldr	r1, [r3, #44]	; 0x2c
 80056aa:	f894 2034 	ldrb.w	r2, [r4, #52]	; 0x34
 80056ae:	430a      	orrs	r2, r1
 80056b0:	ea42 2205 	orr.w	r2, r2, r5, lsl #8
 80056b4:	ea42 4200 	orr.w	r2, r2, r0, lsl #16
 80056b8:	2000      	movs	r0, #0
 80056ba:	62da      	str	r2, [r3, #44]	; 0x2c
 80056bc:	6b5a      	ldr	r2, [r3, #52]	; 0x34
 80056be:	f042 0206 	orr.w	r2, r2, #6
 80056c2:	635a      	str	r2, [r3, #52]	; 0x34
 80056c4:	699a      	ldr	r2, [r3, #24]
 80056c6:	f042 0201 	orr.w	r2, r2, #1
 80056ca:	619a      	str	r2, [r3, #24]
 80056cc:	2301      	movs	r3, #1
 80056ce:	f8c4 00a4 	str.w	r0, [r4, #164]	; 0xa4
 80056d2:	f884 30a1 	strb.w	r3, [r4, #161]	; 0xa1
 80056d6:	bd38      	pop	{r3, r4, r5, pc}
 80056d8:	2001      	movs	r0, #1
 80056da:	e7fc      	b.n	80056d6 <HAL_LTDC_Init+0xce>
 80056dc:	f000f800 	.word	0xf000f800

080056e0 <HAL_LTDC_ErrorCallback>:
 80056e0:	4770      	bx	lr

080056e2 <HAL_LTDC_LineEventCallback>:
 80056e2:	4770      	bx	lr

080056e4 <HAL_LTDC_ReloadEventCallback>:
 80056e4:	4770      	bx	lr

080056e6 <HAL_LTDC_IRQHandler>:
 80056e6:	6803      	ldr	r3, [r0, #0]
 80056e8:	b570      	push	{r4, r5, r6, lr}
 80056ea:	6b9e      	ldr	r6, [r3, #56]	; 0x38
 80056ec:	4604      	mov	r4, r0
 80056ee:	6b5d      	ldr	r5, [r3, #52]	; 0x34
 80056f0:	0772      	lsls	r2, r6, #29
 80056f2:	d514      	bpl.n	800571e <HAL_LTDC_IRQHandler+0x38>
 80056f4:	0769      	lsls	r1, r5, #29
 80056f6:	d512      	bpl.n	800571e <HAL_LTDC_IRQHandler+0x38>
 80056f8:	6b5a      	ldr	r2, [r3, #52]	; 0x34
 80056fa:	f022 0204 	bic.w	r2, r2, #4
 80056fe:	635a      	str	r2, [r3, #52]	; 0x34
 8005700:	2204      	movs	r2, #4
 8005702:	63da      	str	r2, [r3, #60]	; 0x3c
 8005704:	f8d0 30a4 	ldr.w	r3, [r0, #164]	; 0xa4
 8005708:	f043 0301 	orr.w	r3, r3, #1
 800570c:	f8c0 30a4 	str.w	r3, [r0, #164]	; 0xa4
 8005710:	2300      	movs	r3, #0
 8005712:	f880 20a1 	strb.w	r2, [r0, #161]	; 0xa1
 8005716:	f880 30a0 	strb.w	r3, [r0, #160]	; 0xa0
 800571a:	f7ff ffe1 	bl	80056e0 <HAL_LTDC_ErrorCallback>
 800571e:	07b2      	lsls	r2, r6, #30
 8005720:	d516      	bpl.n	8005750 <HAL_LTDC_IRQHandler+0x6a>
 8005722:	07ab      	lsls	r3, r5, #30
 8005724:	d514      	bpl.n	8005750 <HAL_LTDC_IRQHandler+0x6a>
 8005726:	6823      	ldr	r3, [r4, #0]
 8005728:	4620      	mov	r0, r4
 800572a:	6b5a      	ldr	r2, [r3, #52]	; 0x34
 800572c:	f022 0202 	bic.w	r2, r2, #2
 8005730:	635a      	str	r2, [r3, #52]	; 0x34
 8005732:	2202      	movs	r2, #2
 8005734:	63da      	str	r2, [r3, #60]	; 0x3c
 8005736:	f8d4 30a4 	ldr.w	r3, [r4, #164]	; 0xa4
 800573a:	4313      	orrs	r3, r2
 800573c:	f8c4 30a4 	str.w	r3, [r4, #164]	; 0xa4
 8005740:	2304      	movs	r3, #4
 8005742:	f884 30a1 	strb.w	r3, [r4, #161]	; 0xa1
 8005746:	2300      	movs	r3, #0
 8005748:	f884 30a0 	strb.w	r3, [r4, #160]	; 0xa0
 800574c:	f7ff ffc8 	bl	80056e0 <HAL_LTDC_ErrorCallback>
 8005750:	07f0      	lsls	r0, r6, #31
 8005752:	d510      	bpl.n	8005776 <HAL_LTDC_IRQHandler+0x90>
 8005754:	07e9      	lsls	r1, r5, #31
 8005756:	d50e      	bpl.n	8005776 <HAL_LTDC_IRQHandler+0x90>
 8005758:	6823      	ldr	r3, [r4, #0]
 800575a:	4620      	mov	r0, r4
 800575c:	6b5a      	ldr	r2, [r3, #52]	; 0x34
 800575e:	f022 0201 	bic.w	r2, r2, #1
 8005762:	635a      	str	r2, [r3, #52]	; 0x34
 8005764:	2201      	movs	r2, #1
 8005766:	63da      	str	r2, [r3, #60]	; 0x3c
 8005768:	2300      	movs	r3, #0
 800576a:	f884 20a1 	strb.w	r2, [r4, #161]	; 0xa1
 800576e:	f884 30a0 	strb.w	r3, [r4, #160]	; 0xa0
 8005772:	f7ff ffb6 	bl	80056e2 <HAL_LTDC_LineEventCallback>
 8005776:	0732      	lsls	r2, r6, #28
 8005778:	d511      	bpl.n	800579e <HAL_LTDC_IRQHandler+0xb8>
 800577a:	072b      	lsls	r3, r5, #28
 800577c:	d50f      	bpl.n	800579e <HAL_LTDC_IRQHandler+0xb8>
 800577e:	6823      	ldr	r3, [r4, #0]
 8005780:	4620      	mov	r0, r4
 8005782:	6b5a      	ldr	r2, [r3, #52]	; 0x34
 8005784:	f022 0208 	bic.w	r2, r2, #8
 8005788:	635a      	str	r2, [r3, #52]	; 0x34
 800578a:	2208      	movs	r2, #8
 800578c:	63da      	str	r2, [r3, #60]	; 0x3c
 800578e:	2301      	movs	r3, #1
 8005790:	f884 30a1 	strb.w	r3, [r4, #161]	; 0xa1
 8005794:	2300      	movs	r3, #0
 8005796:	f884 30a0 	strb.w	r3, [r4, #160]	; 0xa0
 800579a:	f7ff ffa3 	bl	80056e4 <HAL_LTDC_ReloadEventCallback>
 800579e:	bd70      	pop	{r4, r5, r6, pc}

080057a0 <HAL_LTDC_ConfigLayer>:
 80057a0:	e92d 41f0 	stmdb	sp!, {r4, r5, r6, r7, r8, lr}
 80057a4:	f890 30a0 	ldrb.w	r3, [r0, #160]	; 0xa0
 80057a8:	4606      	mov	r6, r0
 80057aa:	460f      	mov	r7, r1
 80057ac:	4694      	mov	ip, r2
 80057ae:	2b01      	cmp	r3, #1
 80057b0:	f04f 0002 	mov.w	r0, #2
 80057b4:	d01f      	beq.n	80057f6 <HAL_LTDC_ConfigLayer+0x56>
 80057b6:	2434      	movs	r4, #52	; 0x34
 80057b8:	f04f 0801 	mov.w	r8, #1
 80057bc:	460d      	mov	r5, r1
 80057be:	f886 00a1 	strb.w	r0, [r6, #161]	; 0xa1
 80057c2:	fb04 6402 	mla	r4, r4, r2, r6
 80057c6:	f886 80a0 	strb.w	r8, [r6, #160]	; 0xa0
 80057ca:	3438      	adds	r4, #56	; 0x38
 80057cc:	cd0f      	ldmia	r5!, {r0, r1, r2, r3}
 80057ce:	c40f      	stmia	r4!, {r0, r1, r2, r3}
 80057d0:	cd0f      	ldmia	r5!, {r0, r1, r2, r3}
 80057d2:	c40f      	stmia	r4!, {r0, r1, r2, r3}
 80057d4:	cd0f      	ldmia	r5!, {r0, r1, r2, r3}
 80057d6:	c40f      	stmia	r4!, {r0, r1, r2, r3}
 80057d8:	682b      	ldr	r3, [r5, #0]
 80057da:	4630      	mov	r0, r6
 80057dc:	4662      	mov	r2, ip
 80057de:	4639      	mov	r1, r7
 80057e0:	6023      	str	r3, [r4, #0]
 80057e2:	f7ff fe8b 	bl	80054fc <LTDC_SetConfig>
 80057e6:	6833      	ldr	r3, [r6, #0]
 80057e8:	2000      	movs	r0, #0
 80057ea:	f8c3 8024 	str.w	r8, [r3, #36]	; 0x24
 80057ee:	f886 80a1 	strb.w	r8, [r6, #161]	; 0xa1
 80057f2:	f886 00a0 	strb.w	r0, [r6, #160]	; 0xa0
 80057f6:	e8bd 81f0 	ldmia.w	sp!, {r4, r5, r6, r7, r8, pc}
	...

080057fc <HAL_PWR_EnableBkUpAccess>:
 80057fc:	4a02      	ldr	r2, [pc, #8]	; (8005808 <HAL_PWR_EnableBkUpAccess+0xc>)
 80057fe:	6813      	ldr	r3, [r2, #0]
 8005800:	f443 7380 	orr.w	r3, r3, #256	; 0x100
 8005804:	6013      	str	r3, [r2, #0]
 8005806:	4770      	bx	lr
 8005808:	58024800 	.word	0x58024800

0800580c <HAL_PWREx_ConfigSupply>:
 800580c:	b570      	push	{r4, r5, r6, lr}
 800580e:	4d1c      	ldr	r5, [pc, #112]	; (8005880 <HAL_PWREx_ConfigSupply+0x74>)
 8005810:	4604      	mov	r4, r0
 8005812:	68eb      	ldr	r3, [r5, #12]
 8005814:	f003 0307 	and.w	r3, r3, #7
 8005818:	2b06      	cmp	r3, #6
 800581a:	d006      	beq.n	800582a <HAL_PWREx_ConfigSupply+0x1e>
 800581c:	68e8      	ldr	r0, [r5, #12]
 800581e:	f000 003f 	and.w	r0, r0, #63	; 0x3f
 8005822:	1b00      	subs	r0, r0, r4
 8005824:	bf18      	it	ne
 8005826:	2001      	movne	r0, #1
 8005828:	bd70      	pop	{r4, r5, r6, pc}
 800582a:	68eb      	ldr	r3, [r5, #12]
 800582c:	f023 033f 	bic.w	r3, r3, #63	; 0x3f
 8005830:	4303      	orrs	r3, r0
 8005832:	60eb      	str	r3, [r5, #12]
 8005834:	f7fd f93a 	bl	8002aac <HAL_GetTick>
 8005838:	4606      	mov	r6, r0
 800583a:	686b      	ldr	r3, [r5, #4]
 800583c:	049a      	lsls	r2, r3, #18
 800583e:	d508      	bpl.n	8005852 <HAL_PWREx_ConfigSupply+0x46>
 8005840:	f1a4 031d 	sub.w	r3, r4, #29
 8005844:	2b01      	cmp	r3, #1
 8005846:	d90c      	bls.n	8005862 <HAL_PWREx_ConfigSupply+0x56>
 8005848:	3c2d      	subs	r4, #45	; 0x2d
 800584a:	2c01      	cmp	r4, #1
 800584c:	d909      	bls.n	8005862 <HAL_PWREx_ConfigSupply+0x56>
 800584e:	2000      	movs	r0, #0
 8005850:	e7ea      	b.n	8005828 <HAL_PWREx_ConfigSupply+0x1c>
 8005852:	f7fd f92b 	bl	8002aac <HAL_GetTick>
 8005856:	1b80      	subs	r0, r0, r6
 8005858:	f5b0 7f7a 	cmp.w	r0, #1000	; 0x3e8
 800585c:	d9ed      	bls.n	800583a <HAL_PWREx_ConfigSupply+0x2e>
 800585e:	2001      	movs	r0, #1
 8005860:	e7e2      	b.n	8005828 <HAL_PWREx_ConfigSupply+0x1c>
 8005862:	f7fd f923 	bl	8002aac <HAL_GetTick>
 8005866:	4d06      	ldr	r5, [pc, #24]	; (8005880 <HAL_PWREx_ConfigSupply+0x74>)
 8005868:	4604      	mov	r4, r0
 800586a:	68eb      	ldr	r3, [r5, #12]
 800586c:	03db      	lsls	r3, r3, #15
 800586e:	d4ee      	bmi.n	800584e <HAL_PWREx_ConfigSupply+0x42>
 8005870:	f7fd f91c 	bl	8002aac <HAL_GetTick>
 8005874:	1b00      	subs	r0, r0, r4
 8005876:	f5b0 7f7a 	cmp.w	r0, #1000	; 0x3e8
 800587a:	d9f6      	bls.n	800586a <HAL_PWREx_ConfigSupply+0x5e>
 800587c:	e7ef      	b.n	800585e <HAL_PWREx_ConfigSupply+0x52>
 800587e:	bf00      	nop
 8005880:	58024800 	.word	0x58024800

08005884 <HAL_RCC_OscConfig>:
 8005884:	b5f8      	push	{r3, r4, r5, r6, r7, lr}
 8005886:	4604      	mov	r4, r0
 8005888:	b908      	cbnz	r0, 800588e <HAL_RCC_OscConfig+0xa>
 800588a:	2001      	movs	r0, #1
 800588c:	e07f      	b.n	800598e <HAL_RCC_OscConfig+0x10a>
 800588e:	6803      	ldr	r3, [r0, #0]
 8005890:	07df      	lsls	r7, r3, #31
 8005892:	d453      	bmi.n	800593c <HAL_RCC_OscConfig+0xb8>
 8005894:	6823      	ldr	r3, [r4, #0]
 8005896:	079e      	lsls	r6, r3, #30
 8005898:	f100 80b9 	bmi.w	8005a0e <HAL_RCC_OscConfig+0x18a>
 800589c:	6823      	ldr	r3, [r4, #0]
 800589e:	06da      	lsls	r2, r3, #27
 80058a0:	d51c      	bpl.n	80058dc <HAL_RCC_OscConfig+0x58>
 80058a2:	4b99      	ldr	r3, [pc, #612]	; (8005b08 <HAL_RCC_OscConfig+0x284>)
 80058a4:	691a      	ldr	r2, [r3, #16]
 80058a6:	6a99      	ldr	r1, [r3, #40]	; 0x28
 80058a8:	f002 0238 	and.w	r2, r2, #56	; 0x38
 80058ac:	2a08      	cmp	r2, #8
 80058ae:	d007      	beq.n	80058c0 <HAL_RCC_OscConfig+0x3c>
 80058b0:	2a18      	cmp	r2, #24
 80058b2:	f040 80fb 	bne.w	8005aac <HAL_RCC_OscConfig+0x228>
 80058b6:	f001 0203 	and.w	r2, r1, #3
 80058ba:	2a01      	cmp	r2, #1
 80058bc:	f040 80f6 	bne.w	8005aac <HAL_RCC_OscConfig+0x228>
 80058c0:	681b      	ldr	r3, [r3, #0]
 80058c2:	05db      	lsls	r3, r3, #23
 80058c4:	d502      	bpl.n	80058cc <HAL_RCC_OscConfig+0x48>
 80058c6:	69e3      	ldr	r3, [r4, #28]
 80058c8:	2b80      	cmp	r3, #128	; 0x80
 80058ca:	d1de      	bne.n	800588a <HAL_RCC_OscConfig+0x6>
 80058cc:	4a8e      	ldr	r2, [pc, #568]	; (8005b08 <HAL_RCC_OscConfig+0x284>)
 80058ce:	6a21      	ldr	r1, [r4, #32]
 80058d0:	68d3      	ldr	r3, [r2, #12]
 80058d2:	f023 537c 	bic.w	r3, r3, #1056964608	; 0x3f000000
 80058d6:	ea43 6301 	orr.w	r3, r3, r1, lsl #24
 80058da:	60d3      	str	r3, [r2, #12]
 80058dc:	6823      	ldr	r3, [r4, #0]
 80058de:	0719      	lsls	r1, r3, #28
 80058e0:	f100 8116 	bmi.w	8005b10 <HAL_RCC_OscConfig+0x28c>
 80058e4:	6823      	ldr	r3, [r4, #0]
 80058e6:	069a      	lsls	r2, r3, #26
 80058e8:	f100 8137 	bmi.w	8005b5a <HAL_RCC_OscConfig+0x2d6>
 80058ec:	6823      	ldr	r3, [r4, #0]
 80058ee:	075d      	lsls	r5, r3, #29
 80058f0:	d51e      	bpl.n	8005930 <HAL_RCC_OscConfig+0xac>
 80058f2:	4d86      	ldr	r5, [pc, #536]	; (8005b0c <HAL_RCC_OscConfig+0x288>)
 80058f4:	682b      	ldr	r3, [r5, #0]
 80058f6:	f443 7380 	orr.w	r3, r3, #256	; 0x100
 80058fa:	602b      	str	r3, [r5, #0]
 80058fc:	f7fd f8d6 	bl	8002aac <HAL_GetTick>
 8005900:	4606      	mov	r6, r0
 8005902:	682b      	ldr	r3, [r5, #0]
 8005904:	05da      	lsls	r2, r3, #23
 8005906:	f140 814d 	bpl.w	8005ba4 <HAL_RCC_OscConfig+0x320>
 800590a:	68a3      	ldr	r3, [r4, #8]
 800590c:	4d7e      	ldr	r5, [pc, #504]	; (8005b08 <HAL_RCC_OscConfig+0x284>)
 800590e:	2b01      	cmp	r3, #1
 8005910:	f040 814f 	bne.w	8005bb2 <HAL_RCC_OscConfig+0x32e>
 8005914:	6f2b      	ldr	r3, [r5, #112]	; 0x70
 8005916:	f043 0301 	orr.w	r3, r3, #1
 800591a:	672b      	str	r3, [r5, #112]	; 0x70
 800591c:	f241 3788 	movw	r7, #5000	; 0x1388
 8005920:	f7fd f8c4 	bl	8002aac <HAL_GetTick>
 8005924:	4e78      	ldr	r6, [pc, #480]	; (8005b08 <HAL_RCC_OscConfig+0x284>)
 8005926:	4605      	mov	r5, r0
 8005928:	6f33      	ldr	r3, [r6, #112]	; 0x70
 800592a:	079b      	lsls	r3, r3, #30
 800592c:	f140 817d 	bpl.w	8005c2a <HAL_RCC_OscConfig+0x3a6>
 8005930:	6a60      	ldr	r0, [r4, #36]	; 0x24
 8005932:	2800      	cmp	r0, #0
 8005934:	f040 8180 	bne.w	8005c38 <HAL_RCC_OscConfig+0x3b4>
 8005938:	2000      	movs	r0, #0
 800593a:	e028      	b.n	800598e <HAL_RCC_OscConfig+0x10a>
 800593c:	4b72      	ldr	r3, [pc, #456]	; (8005b08 <HAL_RCC_OscConfig+0x284>)
 800593e:	691a      	ldr	r2, [r3, #16]
 8005940:	6a99      	ldr	r1, [r3, #40]	; 0x28
 8005942:	f002 0238 	and.w	r2, r2, #56	; 0x38
 8005946:	2a10      	cmp	r2, #16
 8005948:	d005      	beq.n	8005956 <HAL_RCC_OscConfig+0xd2>
 800594a:	2a18      	cmp	r2, #24
 800594c:	d10a      	bne.n	8005964 <HAL_RCC_OscConfig+0xe0>
 800594e:	f001 0203 	and.w	r2, r1, #3
 8005952:	2a02      	cmp	r2, #2
 8005954:	d106      	bne.n	8005964 <HAL_RCC_OscConfig+0xe0>
 8005956:	681b      	ldr	r3, [r3, #0]
 8005958:	039d      	lsls	r5, r3, #14
 800595a:	d59b      	bpl.n	8005894 <HAL_RCC_OscConfig+0x10>
 800595c:	6863      	ldr	r3, [r4, #4]
 800595e:	2b00      	cmp	r3, #0
 8005960:	d198      	bne.n	8005894 <HAL_RCC_OscConfig+0x10>
 8005962:	e792      	b.n	800588a <HAL_RCC_OscConfig+0x6>
 8005964:	6862      	ldr	r2, [r4, #4]
 8005966:	f5b2 3f80 	cmp.w	r2, #65536	; 0x10000
 800596a:	d111      	bne.n	8005990 <HAL_RCC_OscConfig+0x10c>
 800596c:	681a      	ldr	r2, [r3, #0]
 800596e:	f442 3280 	orr.w	r2, r2, #65536	; 0x10000
 8005972:	601a      	str	r2, [r3, #0]
 8005974:	f7fd f89a 	bl	8002aac <HAL_GetTick>
 8005978:	4e63      	ldr	r6, [pc, #396]	; (8005b08 <HAL_RCC_OscConfig+0x284>)
 800597a:	4605      	mov	r5, r0
 800597c:	6833      	ldr	r3, [r6, #0]
 800597e:	0398      	lsls	r0, r3, #14
 8005980:	d488      	bmi.n	8005894 <HAL_RCC_OscConfig+0x10>
 8005982:	f7fd f893 	bl	8002aac <HAL_GetTick>
 8005986:	1b40      	subs	r0, r0, r5
 8005988:	2864      	cmp	r0, #100	; 0x64
 800598a:	d9f7      	bls.n	800597c <HAL_RCC_OscConfig+0xf8>
 800598c:	2003      	movs	r0, #3
 800598e:	bdf8      	pop	{r3, r4, r5, r6, r7, pc}
 8005990:	4d5d      	ldr	r5, [pc, #372]	; (8005b08 <HAL_RCC_OscConfig+0x284>)
 8005992:	682b      	ldr	r3, [r5, #0]
 8005994:	b9ba      	cbnz	r2, 80059c6 <HAL_RCC_OscConfig+0x142>
 8005996:	f423 3380 	bic.w	r3, r3, #65536	; 0x10000
 800599a:	602b      	str	r3, [r5, #0]
 800599c:	682b      	ldr	r3, [r5, #0]
 800599e:	f423 1380 	bic.w	r3, r3, #1048576	; 0x100000
 80059a2:	602b      	str	r3, [r5, #0]
 80059a4:	682b      	ldr	r3, [r5, #0]
 80059a6:	f423 2380 	bic.w	r3, r3, #262144	; 0x40000
 80059aa:	602b      	str	r3, [r5, #0]
 80059ac:	f7fd f87e 	bl	8002aac <HAL_GetTick>
 80059b0:	4606      	mov	r6, r0
 80059b2:	682b      	ldr	r3, [r5, #0]
 80059b4:	0399      	lsls	r1, r3, #14
 80059b6:	f57f af6d 	bpl.w	8005894 <HAL_RCC_OscConfig+0x10>
 80059ba:	f7fd f877 	bl	8002aac <HAL_GetTick>
 80059be:	1b80      	subs	r0, r0, r6
 80059c0:	2864      	cmp	r0, #100	; 0x64
 80059c2:	d9f6      	bls.n	80059b2 <HAL_RCC_OscConfig+0x12e>
 80059c4:	e7e2      	b.n	800598c <HAL_RCC_OscConfig+0x108>
 80059c6:	f5b2 2fa0 	cmp.w	r2, #327680	; 0x50000
 80059ca:	d10b      	bne.n	80059e4 <HAL_RCC_OscConfig+0x160>
 80059cc:	f443 2380 	orr.w	r3, r3, #262144	; 0x40000
 80059d0:	602b      	str	r3, [r5, #0]
 80059d2:	682b      	ldr	r3, [r5, #0]
 80059d4:	f423 1380 	bic.w	r3, r3, #1048576	; 0x100000
 80059d8:	602b      	str	r3, [r5, #0]
 80059da:	682b      	ldr	r3, [r5, #0]
 80059dc:	f443 3380 	orr.w	r3, r3, #65536	; 0x10000
 80059e0:	602b      	str	r3, [r5, #0]
 80059e2:	e7c7      	b.n	8005974 <HAL_RCC_OscConfig+0xf0>
 80059e4:	f5b2 1fa8 	cmp.w	r2, #1376256	; 0x150000
 80059e8:	d106      	bne.n	80059f8 <HAL_RCC_OscConfig+0x174>
 80059ea:	f443 2380 	orr.w	r3, r3, #262144	; 0x40000
 80059ee:	602b      	str	r3, [r5, #0]
 80059f0:	682b      	ldr	r3, [r5, #0]
 80059f2:	f443 1380 	orr.w	r3, r3, #1048576	; 0x100000
 80059f6:	e7ef      	b.n	80059d8 <HAL_RCC_OscConfig+0x154>
 80059f8:	f423 3380 	bic.w	r3, r3, #65536	; 0x10000
 80059fc:	602b      	str	r3, [r5, #0]
 80059fe:	682b      	ldr	r3, [r5, #0]
 8005a00:	f423 2380 	bic.w	r3, r3, #262144	; 0x40000
 8005a04:	602b      	str	r3, [r5, #0]
 8005a06:	682b      	ldr	r3, [r5, #0]
 8005a08:	f423 1380 	bic.w	r3, r3, #1048576	; 0x100000
 8005a0c:	e7e8      	b.n	80059e0 <HAL_RCC_OscConfig+0x15c>
 8005a0e:	4b3e      	ldr	r3, [pc, #248]	; (8005b08 <HAL_RCC_OscConfig+0x284>)
 8005a10:	68e1      	ldr	r1, [r4, #12]
 8005a12:	691a      	ldr	r2, [r3, #16]
 8005a14:	6a98      	ldr	r0, [r3, #40]	; 0x28
 8005a16:	f012 0238 	ands.w	r2, r2, #56	; 0x38
 8005a1a:	d003      	beq.n	8005a24 <HAL_RCC_OscConfig+0x1a0>
 8005a1c:	2a18      	cmp	r2, #24
 8005a1e:	d121      	bne.n	8005a64 <HAL_RCC_OscConfig+0x1e0>
 8005a20:	0782      	lsls	r2, r0, #30
 8005a22:	d11f      	bne.n	8005a64 <HAL_RCC_OscConfig+0x1e0>
 8005a24:	681b      	ldr	r3, [r3, #0]
 8005a26:	075b      	lsls	r3, r3, #29
 8005a28:	d502      	bpl.n	8005a30 <HAL_RCC_OscConfig+0x1ac>
 8005a2a:	2900      	cmp	r1, #0
 8005a2c:	f43f af2d 	beq.w	800588a <HAL_RCC_OscConfig+0x6>
 8005a30:	4d35      	ldr	r5, [pc, #212]	; (8005b08 <HAL_RCC_OscConfig+0x284>)
 8005a32:	682a      	ldr	r2, [r5, #0]
 8005a34:	f022 0219 	bic.w	r2, r2, #25
 8005a38:	430a      	orrs	r2, r1
 8005a3a:	602a      	str	r2, [r5, #0]
 8005a3c:	f7fd f836 	bl	8002aac <HAL_GetTick>
 8005a40:	4606      	mov	r6, r0
 8005a42:	682b      	ldr	r3, [r5, #0]
 8005a44:	075f      	lsls	r7, r3, #29
 8005a46:	d507      	bpl.n	8005a58 <HAL_RCC_OscConfig+0x1d4>
 8005a48:	686b      	ldr	r3, [r5, #4]
 8005a4a:	6922      	ldr	r2, [r4, #16]
 8005a4c:	f023 43fe 	bic.w	r3, r3, #2130706432	; 0x7f000000
 8005a50:	ea43 6302 	orr.w	r3, r3, r2, lsl #24
 8005a54:	606b      	str	r3, [r5, #4]
 8005a56:	e721      	b.n	800589c <HAL_RCC_OscConfig+0x18>
 8005a58:	f7fd f828 	bl	8002aac <HAL_GetTick>
 8005a5c:	1b80      	subs	r0, r0, r6
 8005a5e:	2802      	cmp	r0, #2
 8005a60:	d9ef      	bls.n	8005a42 <HAL_RCC_OscConfig+0x1be>
 8005a62:	e793      	b.n	800598c <HAL_RCC_OscConfig+0x108>
 8005a64:	681a      	ldr	r2, [r3, #0]
 8005a66:	b181      	cbz	r1, 8005a8a <HAL_RCC_OscConfig+0x206>
 8005a68:	f022 0219 	bic.w	r2, r2, #25
 8005a6c:	4d26      	ldr	r5, [pc, #152]	; (8005b08 <HAL_RCC_OscConfig+0x284>)
 8005a6e:	430a      	orrs	r2, r1
 8005a70:	601a      	str	r2, [r3, #0]
 8005a72:	f7fd f81b 	bl	8002aac <HAL_GetTick>
 8005a76:	4606      	mov	r6, r0
 8005a78:	682b      	ldr	r3, [r5, #0]
 8005a7a:	0758      	lsls	r0, r3, #29
 8005a7c:	d4e4      	bmi.n	8005a48 <HAL_RCC_OscConfig+0x1c4>
 8005a7e:	f7fd f815 	bl	8002aac <HAL_GetTick>
 8005a82:	1b80      	subs	r0, r0, r6
 8005a84:	2802      	cmp	r0, #2
 8005a86:	d9f7      	bls.n	8005a78 <HAL_RCC_OscConfig+0x1f4>
 8005a88:	e780      	b.n	800598c <HAL_RCC_OscConfig+0x108>
 8005a8a:	f022 0201 	bic.w	r2, r2, #1
 8005a8e:	4e1e      	ldr	r6, [pc, #120]	; (8005b08 <HAL_RCC_OscConfig+0x284>)
 8005a90:	601a      	str	r2, [r3, #0]
 8005a92:	f7fd f80b 	bl	8002aac <HAL_GetTick>
 8005a96:	4605      	mov	r5, r0
 8005a98:	6833      	ldr	r3, [r6, #0]
 8005a9a:	0759      	lsls	r1, r3, #29
 8005a9c:	f57f aefe 	bpl.w	800589c <HAL_RCC_OscConfig+0x18>
 8005aa0:	f7fd f804 	bl	8002aac <HAL_GetTick>
 8005aa4:	1b40      	subs	r0, r0, r5
 8005aa6:	2802      	cmp	r0, #2
 8005aa8:	d9f6      	bls.n	8005a98 <HAL_RCC_OscConfig+0x214>
 8005aaa:	e76f      	b.n	800598c <HAL_RCC_OscConfig+0x108>
 8005aac:	69e2      	ldr	r2, [r4, #28]
 8005aae:	b1c2      	cbz	r2, 8005ae2 <HAL_RCC_OscConfig+0x25e>
 8005ab0:	681a      	ldr	r2, [r3, #0]
 8005ab2:	4d15      	ldr	r5, [pc, #84]	; (8005b08 <HAL_RCC_OscConfig+0x284>)
 8005ab4:	f042 0280 	orr.w	r2, r2, #128	; 0x80
 8005ab8:	601a      	str	r2, [r3, #0]
 8005aba:	f7fc fff7 	bl	8002aac <HAL_GetTick>
 8005abe:	4606      	mov	r6, r0
 8005ac0:	682b      	ldr	r3, [r5, #0]
 8005ac2:	05df      	lsls	r7, r3, #23
 8005ac4:	d507      	bpl.n	8005ad6 <HAL_RCC_OscConfig+0x252>
 8005ac6:	68eb      	ldr	r3, [r5, #12]
 8005ac8:	6a22      	ldr	r2, [r4, #32]
 8005aca:	f023 537c 	bic.w	r3, r3, #1056964608	; 0x3f000000
 8005ace:	ea43 6302 	orr.w	r3, r3, r2, lsl #24
 8005ad2:	60eb      	str	r3, [r5, #12]
 8005ad4:	e702      	b.n	80058dc <HAL_RCC_OscConfig+0x58>
 8005ad6:	f7fc ffe9 	bl	8002aac <HAL_GetTick>
 8005ada:	1b80      	subs	r0, r0, r6
 8005adc:	2802      	cmp	r0, #2
 8005ade:	d9ef      	bls.n	8005ac0 <HAL_RCC_OscConfig+0x23c>
 8005ae0:	e754      	b.n	800598c <HAL_RCC_OscConfig+0x108>
 8005ae2:	681a      	ldr	r2, [r3, #0]
 8005ae4:	4e08      	ldr	r6, [pc, #32]	; (8005b08 <HAL_RCC_OscConfig+0x284>)
 8005ae6:	f022 0280 	bic.w	r2, r2, #128	; 0x80
 8005aea:	601a      	str	r2, [r3, #0]
 8005aec:	f7fc ffde 	bl	8002aac <HAL_GetTick>
 8005af0:	4605      	mov	r5, r0
 8005af2:	6833      	ldr	r3, [r6, #0]
 8005af4:	05d8      	lsls	r0, r3, #23
 8005af6:	f57f aef1 	bpl.w	80058dc <HAL_RCC_OscConfig+0x58>
 8005afa:	f7fc ffd7 	bl	8002aac <HAL_GetTick>
 8005afe:	1b40      	subs	r0, r0, r5
 8005b00:	2802      	cmp	r0, #2
 8005b02:	d9f6      	bls.n	8005af2 <HAL_RCC_OscConfig+0x26e>
 8005b04:	e742      	b.n	800598c <HAL_RCC_OscConfig+0x108>
 8005b06:	bf00      	nop
 8005b08:	58024400 	.word	0x58024400
 8005b0c:	58024800 	.word	0x58024800
 8005b10:	6963      	ldr	r3, [r4, #20]
 8005b12:	4d8a      	ldr	r5, [pc, #552]	; (8005d3c <HAL_RCC_OscConfig+0x4b8>)
 8005b14:	b183      	cbz	r3, 8005b38 <HAL_RCC_OscConfig+0x2b4>
 8005b16:	6f6b      	ldr	r3, [r5, #116]	; 0x74
 8005b18:	f043 0301 	orr.w	r3, r3, #1
 8005b1c:	676b      	str	r3, [r5, #116]	; 0x74
 8005b1e:	f7fc ffc5 	bl	8002aac <HAL_GetTick>
 8005b22:	4606      	mov	r6, r0
 8005b24:	6f6b      	ldr	r3, [r5, #116]	; 0x74
 8005b26:	079b      	lsls	r3, r3, #30
 8005b28:	f53f aedc 	bmi.w	80058e4 <HAL_RCC_OscConfig+0x60>
 8005b2c:	f7fc ffbe 	bl	8002aac <HAL_GetTick>
 8005b30:	1b80      	subs	r0, r0, r6
 8005b32:	2802      	cmp	r0, #2
 8005b34:	d9f6      	bls.n	8005b24 <HAL_RCC_OscConfig+0x2a0>
 8005b36:	e729      	b.n	800598c <HAL_RCC_OscConfig+0x108>
 8005b38:	6f6b      	ldr	r3, [r5, #116]	; 0x74
 8005b3a:	f023 0301 	bic.w	r3, r3, #1
 8005b3e:	676b      	str	r3, [r5, #116]	; 0x74
 8005b40:	f7fc ffb4 	bl	8002aac <HAL_GetTick>
 8005b44:	4606      	mov	r6, r0
 8005b46:	6f6b      	ldr	r3, [r5, #116]	; 0x74
 8005b48:	079f      	lsls	r7, r3, #30
 8005b4a:	f57f aecb 	bpl.w	80058e4 <HAL_RCC_OscConfig+0x60>
 8005b4e:	f7fc ffad 	bl	8002aac <HAL_GetTick>
 8005b52:	1b80      	subs	r0, r0, r6
 8005b54:	2802      	cmp	r0, #2
 8005b56:	d9f6      	bls.n	8005b46 <HAL_RCC_OscConfig+0x2c2>
 8005b58:	e718      	b.n	800598c <HAL_RCC_OscConfig+0x108>
 8005b5a:	69a3      	ldr	r3, [r4, #24]
 8005b5c:	4d77      	ldr	r5, [pc, #476]	; (8005d3c <HAL_RCC_OscConfig+0x4b8>)
 8005b5e:	b183      	cbz	r3, 8005b82 <HAL_RCC_OscConfig+0x2fe>
 8005b60:	682b      	ldr	r3, [r5, #0]
 8005b62:	f443 5380 	orr.w	r3, r3, #4096	; 0x1000
 8005b66:	602b      	str	r3, [r5, #0]
 8005b68:	f7fc ffa0 	bl	8002aac <HAL_GetTick>
 8005b6c:	4606      	mov	r6, r0
 8005b6e:	682b      	ldr	r3, [r5, #0]
 8005b70:	0498      	lsls	r0, r3, #18
 8005b72:	f53f aebb 	bmi.w	80058ec <HAL_RCC_OscConfig+0x68>
 8005b76:	f7fc ff99 	bl	8002aac <HAL_GetTick>
 8005b7a:	1b80      	subs	r0, r0, r6
 8005b7c:	2802      	cmp	r0, #2
 8005b7e:	d9f6      	bls.n	8005b6e <HAL_RCC_OscConfig+0x2ea>
 8005b80:	e704      	b.n	800598c <HAL_RCC_OscConfig+0x108>
 8005b82:	682b      	ldr	r3, [r5, #0]
 8005b84:	f423 5380 	bic.w	r3, r3, #4096	; 0x1000
 8005b88:	602b      	str	r3, [r5, #0]
 8005b8a:	f7fc ff8f 	bl	8002aac <HAL_GetTick>
 8005b8e:	4606      	mov	r6, r0
 8005b90:	682b      	ldr	r3, [r5, #0]
 8005b92:	0499      	lsls	r1, r3, #18
 8005b94:	f57f aeaa 	bpl.w	80058ec <HAL_RCC_OscConfig+0x68>
 8005b98:	f7fc ff88 	bl	8002aac <HAL_GetTick>
 8005b9c:	1b80      	subs	r0, r0, r6
 8005b9e:	2802      	cmp	r0, #2
 8005ba0:	d9f6      	bls.n	8005b90 <HAL_RCC_OscConfig+0x30c>
 8005ba2:	e6f3      	b.n	800598c <HAL_RCC_OscConfig+0x108>
 8005ba4:	f7fc ff82 	bl	8002aac <HAL_GetTick>
 8005ba8:	1b80      	subs	r0, r0, r6
 8005baa:	2864      	cmp	r0, #100	; 0x64
 8005bac:	f67f aea9 	bls.w	8005902 <HAL_RCC_OscConfig+0x7e>
 8005bb0:	e6ec      	b.n	800598c <HAL_RCC_OscConfig+0x108>
 8005bb2:	b9d3      	cbnz	r3, 8005bea <HAL_RCC_OscConfig+0x366>
 8005bb4:	6f2b      	ldr	r3, [r5, #112]	; 0x70
 8005bb6:	f241 3788 	movw	r7, #5000	; 0x1388
 8005bba:	f023 0301 	bic.w	r3, r3, #1
 8005bbe:	672b      	str	r3, [r5, #112]	; 0x70
 8005bc0:	6f2b      	ldr	r3, [r5, #112]	; 0x70
 8005bc2:	f023 0380 	bic.w	r3, r3, #128	; 0x80
 8005bc6:	672b      	str	r3, [r5, #112]	; 0x70
 8005bc8:	6f2b      	ldr	r3, [r5, #112]	; 0x70
 8005bca:	f023 0304 	bic.w	r3, r3, #4
 8005bce:	672b      	str	r3, [r5, #112]	; 0x70
 8005bd0:	f7fc ff6c 	bl	8002aac <HAL_GetTick>
 8005bd4:	4606      	mov	r6, r0
 8005bd6:	6f2b      	ldr	r3, [r5, #112]	; 0x70
 8005bd8:	0798      	lsls	r0, r3, #30
 8005bda:	f57f aea9 	bpl.w	8005930 <HAL_RCC_OscConfig+0xac>
 8005bde:	f7fc ff65 	bl	8002aac <HAL_GetTick>
 8005be2:	1b80      	subs	r0, r0, r6
 8005be4:	42b8      	cmp	r0, r7
 8005be6:	d9f6      	bls.n	8005bd6 <HAL_RCC_OscConfig+0x352>
 8005be8:	e6d0      	b.n	800598c <HAL_RCC_OscConfig+0x108>
 8005bea:	2b05      	cmp	r3, #5
 8005bec:	d108      	bne.n	8005c00 <HAL_RCC_OscConfig+0x37c>
 8005bee:	6f2b      	ldr	r3, [r5, #112]	; 0x70
 8005bf0:	f043 0304 	orr.w	r3, r3, #4
 8005bf4:	672b      	str	r3, [r5, #112]	; 0x70
 8005bf6:	6f2b      	ldr	r3, [r5, #112]	; 0x70
 8005bf8:	f023 0380 	bic.w	r3, r3, #128	; 0x80
 8005bfc:	672b      	str	r3, [r5, #112]	; 0x70
 8005bfe:	e689      	b.n	8005914 <HAL_RCC_OscConfig+0x90>
 8005c00:	2b85      	cmp	r3, #133	; 0x85
 8005c02:	6f2b      	ldr	r3, [r5, #112]	; 0x70
 8005c04:	d106      	bne.n	8005c14 <HAL_RCC_OscConfig+0x390>
 8005c06:	f043 0304 	orr.w	r3, r3, #4
 8005c0a:	672b      	str	r3, [r5, #112]	; 0x70
 8005c0c:	6f2b      	ldr	r3, [r5, #112]	; 0x70
 8005c0e:	f043 0380 	orr.w	r3, r3, #128	; 0x80
 8005c12:	e7f3      	b.n	8005bfc <HAL_RCC_OscConfig+0x378>
 8005c14:	f023 0301 	bic.w	r3, r3, #1
 8005c18:	672b      	str	r3, [r5, #112]	; 0x70
 8005c1a:	6f2b      	ldr	r3, [r5, #112]	; 0x70
 8005c1c:	f023 0304 	bic.w	r3, r3, #4
 8005c20:	672b      	str	r3, [r5, #112]	; 0x70
 8005c22:	6f2b      	ldr	r3, [r5, #112]	; 0x70
 8005c24:	f023 0380 	bic.w	r3, r3, #128	; 0x80
 8005c28:	e677      	b.n	800591a <HAL_RCC_OscConfig+0x96>
 8005c2a:	f7fc ff3f 	bl	8002aac <HAL_GetTick>
 8005c2e:	1b40      	subs	r0, r0, r5
 8005c30:	42b8      	cmp	r0, r7
 8005c32:	f67f ae79 	bls.w	8005928 <HAL_RCC_OscConfig+0xa4>
 8005c36:	e6a9      	b.n	800598c <HAL_RCC_OscConfig+0x108>
 8005c38:	4d40      	ldr	r5, [pc, #256]	; (8005d3c <HAL_RCC_OscConfig+0x4b8>)
 8005c3a:	692b      	ldr	r3, [r5, #16]
 8005c3c:	f003 0338 	and.w	r3, r3, #56	; 0x38
 8005c40:	2b18      	cmp	r3, #24
 8005c42:	d07d      	beq.n	8005d40 <HAL_RCC_OscConfig+0x4bc>
 8005c44:	682b      	ldr	r3, [r5, #0]
 8005c46:	2802      	cmp	r0, #2
 8005c48:	f023 7380 	bic.w	r3, r3, #16777216	; 0x1000000
 8005c4c:	602b      	str	r3, [r5, #0]
 8005c4e:	d167      	bne.n	8005d20 <HAL_RCC_OscConfig+0x49c>
 8005c50:	f7fc ff2c 	bl	8002aac <HAL_GetTick>
 8005c54:	4606      	mov	r6, r0
 8005c56:	682b      	ldr	r3, [r5, #0]
 8005c58:	0199      	lsls	r1, r3, #6
 8005c5a:	d45b      	bmi.n	8005d14 <HAL_RCC_OscConfig+0x490>
 8005c5c:	6aab      	ldr	r3, [r5, #40]	; 0x28
 8005c5e:	6aa2      	ldr	r2, [r4, #40]	; 0x28
 8005c60:	f423 737c 	bic.w	r3, r3, #1008	; 0x3f0
 8005c64:	f023 0303 	bic.w	r3, r3, #3
 8005c68:	4313      	orrs	r3, r2
 8005c6a:	6ae2      	ldr	r2, [r4, #44]	; 0x2c
 8005c6c:	ea43 1302 	orr.w	r3, r3, r2, lsl #4
 8005c70:	62ab      	str	r3, [r5, #40]	; 0x28
 8005c72:	6b63      	ldr	r3, [r4, #52]	; 0x34
 8005c74:	6ba2      	ldr	r2, [r4, #56]	; 0x38
 8005c76:	3b01      	subs	r3, #1
 8005c78:	3a01      	subs	r2, #1
 8005c7a:	025b      	lsls	r3, r3, #9
 8005c7c:	0412      	lsls	r2, r2, #16
 8005c7e:	b29b      	uxth	r3, r3
 8005c80:	f402 02fe 	and.w	r2, r2, #8323072	; 0x7f0000
 8005c84:	4313      	orrs	r3, r2
 8005c86:	6b22      	ldr	r2, [r4, #48]	; 0x30
 8005c88:	3a01      	subs	r2, #1
 8005c8a:	f3c2 0208 	ubfx	r2, r2, #0, #9
 8005c8e:	4313      	orrs	r3, r2
 8005c90:	6be2      	ldr	r2, [r4, #60]	; 0x3c
 8005c92:	3a01      	subs	r2, #1
 8005c94:	0612      	lsls	r2, r2, #24
 8005c96:	f002 42fe 	and.w	r2, r2, #2130706432	; 0x7f000000
 8005c9a:	4313      	orrs	r3, r2
 8005c9c:	632b      	str	r3, [r5, #48]	; 0x30
 8005c9e:	6aeb      	ldr	r3, [r5, #44]	; 0x2c
 8005ca0:	f023 0301 	bic.w	r3, r3, #1
 8005ca4:	62eb      	str	r3, [r5, #44]	; 0x2c
 8005ca6:	6b6b      	ldr	r3, [r5, #52]	; 0x34
 8005ca8:	6ca2      	ldr	r2, [r4, #72]	; 0x48
 8005caa:	f423 437f 	bic.w	r3, r3, #65280	; 0xff00
 8005cae:	f023 03f8 	bic.w	r3, r3, #248	; 0xf8
 8005cb2:	ea43 03c2 	orr.w	r3, r3, r2, lsl #3
 8005cb6:	636b      	str	r3, [r5, #52]	; 0x34
 8005cb8:	6aeb      	ldr	r3, [r5, #44]	; 0x2c
 8005cba:	6c22      	ldr	r2, [r4, #64]	; 0x40
 8005cbc:	f023 030c 	bic.w	r3, r3, #12
 8005cc0:	4313      	orrs	r3, r2
 8005cc2:	62eb      	str	r3, [r5, #44]	; 0x2c
 8005cc4:	6aeb      	ldr	r3, [r5, #44]	; 0x2c
 8005cc6:	6c62      	ldr	r2, [r4, #68]	; 0x44
 8005cc8:	f023 0302 	bic.w	r3, r3, #2
 8005ccc:	4313      	orrs	r3, r2
 8005cce:	62eb      	str	r3, [r5, #44]	; 0x2c
 8005cd0:	6aeb      	ldr	r3, [r5, #44]	; 0x2c
 8005cd2:	f443 3380 	orr.w	r3, r3, #65536	; 0x10000
 8005cd6:	62eb      	str	r3, [r5, #44]	; 0x2c
 8005cd8:	6aeb      	ldr	r3, [r5, #44]	; 0x2c
 8005cda:	f443 3300 	orr.w	r3, r3, #131072	; 0x20000
 8005cde:	62eb      	str	r3, [r5, #44]	; 0x2c
 8005ce0:	6aeb      	ldr	r3, [r5, #44]	; 0x2c
 8005ce2:	f443 2380 	orr.w	r3, r3, #262144	; 0x40000
 8005ce6:	62eb      	str	r3, [r5, #44]	; 0x2c
 8005ce8:	6aeb      	ldr	r3, [r5, #44]	; 0x2c
 8005cea:	f043 0301 	orr.w	r3, r3, #1
 8005cee:	62eb      	str	r3, [r5, #44]	; 0x2c
 8005cf0:	682b      	ldr	r3, [r5, #0]
 8005cf2:	f043 7380 	orr.w	r3, r3, #16777216	; 0x1000000
 8005cf6:	602b      	str	r3, [r5, #0]
 8005cf8:	f7fc fed8 	bl	8002aac <HAL_GetTick>
 8005cfc:	4d0f      	ldr	r5, [pc, #60]	; (8005d3c <HAL_RCC_OscConfig+0x4b8>)
 8005cfe:	4604      	mov	r4, r0
 8005d00:	682b      	ldr	r3, [r5, #0]
 8005d02:	019a      	lsls	r2, r3, #6
 8005d04:	f53f ae18 	bmi.w	8005938 <HAL_RCC_OscConfig+0xb4>
 8005d08:	f7fc fed0 	bl	8002aac <HAL_GetTick>
 8005d0c:	1b00      	subs	r0, r0, r4
 8005d0e:	2802      	cmp	r0, #2
 8005d10:	d9f6      	bls.n	8005d00 <HAL_RCC_OscConfig+0x47c>
 8005d12:	e63b      	b.n	800598c <HAL_RCC_OscConfig+0x108>
 8005d14:	f7fc feca 	bl	8002aac <HAL_GetTick>
 8005d18:	1b80      	subs	r0, r0, r6
 8005d1a:	2802      	cmp	r0, #2
 8005d1c:	d99b      	bls.n	8005c56 <HAL_RCC_OscConfig+0x3d2>
 8005d1e:	e635      	b.n	800598c <HAL_RCC_OscConfig+0x108>
 8005d20:	f7fc fec4 	bl	8002aac <HAL_GetTick>
 8005d24:	4604      	mov	r4, r0
 8005d26:	682b      	ldr	r3, [r5, #0]
 8005d28:	019b      	lsls	r3, r3, #6
 8005d2a:	f57f ae05 	bpl.w	8005938 <HAL_RCC_OscConfig+0xb4>
 8005d2e:	f7fc febd 	bl	8002aac <HAL_GetTick>
 8005d32:	1b00      	subs	r0, r0, r4
 8005d34:	2802      	cmp	r0, #2
 8005d36:	d9f6      	bls.n	8005d26 <HAL_RCC_OscConfig+0x4a2>
 8005d38:	e628      	b.n	800598c <HAL_RCC_OscConfig+0x108>
 8005d3a:	bf00      	nop
 8005d3c:	58024400 	.word	0x58024400
 8005d40:	2801      	cmp	r0, #1
 8005d42:	6aaa      	ldr	r2, [r5, #40]	; 0x28
 8005d44:	6b2b      	ldr	r3, [r5, #48]	; 0x30
 8005d46:	f43f ae22 	beq.w	800598e <HAL_RCC_OscConfig+0x10a>
 8005d4a:	f002 0103 	and.w	r1, r2, #3
 8005d4e:	6aa0      	ldr	r0, [r4, #40]	; 0x28
 8005d50:	4281      	cmp	r1, r0
 8005d52:	f47f ad9a 	bne.w	800588a <HAL_RCC_OscConfig+0x6>
 8005d56:	f3c2 1205 	ubfx	r2, r2, #4, #6
 8005d5a:	6ae1      	ldr	r1, [r4, #44]	; 0x2c
 8005d5c:	428a      	cmp	r2, r1
 8005d5e:	f47f ad94 	bne.w	800588a <HAL_RCC_OscConfig+0x6>
 8005d62:	6b22      	ldr	r2, [r4, #48]	; 0x30
 8005d64:	f3c3 0108 	ubfx	r1, r3, #0, #9
 8005d68:	3a01      	subs	r2, #1
 8005d6a:	4291      	cmp	r1, r2
 8005d6c:	f47f ad8d 	bne.w	800588a <HAL_RCC_OscConfig+0x6>
 8005d70:	6b62      	ldr	r2, [r4, #52]	; 0x34
 8005d72:	f3c3 2146 	ubfx	r1, r3, #9, #7
 8005d76:	3a01      	subs	r2, #1
 8005d78:	4291      	cmp	r1, r2
 8005d7a:	f47f ad86 	bne.w	800588a <HAL_RCC_OscConfig+0x6>
 8005d7e:	6ba2      	ldr	r2, [r4, #56]	; 0x38
 8005d80:	f3c3 4106 	ubfx	r1, r3, #16, #7
 8005d84:	3a01      	subs	r2, #1
 8005d86:	4291      	cmp	r1, r2
 8005d88:	f47f ad7f 	bne.w	800588a <HAL_RCC_OscConfig+0x6>
 8005d8c:	6be2      	ldr	r2, [r4, #60]	; 0x3c
 8005d8e:	f3c3 6306 	ubfx	r3, r3, #24, #7
 8005d92:	3a01      	subs	r2, #1
 8005d94:	4293      	cmp	r3, r2
 8005d96:	f47f ad78 	bne.w	800588a <HAL_RCC_OscConfig+0x6>
 8005d9a:	6b6b      	ldr	r3, [r5, #52]	; 0x34
 8005d9c:	6ca2      	ldr	r2, [r4, #72]	; 0x48
 8005d9e:	f3c3 03cc 	ubfx	r3, r3, #3, #13
 8005da2:	429a      	cmp	r2, r3
 8005da4:	f43f adc8 	beq.w	8005938 <HAL_RCC_OscConfig+0xb4>
 8005da8:	4d0c      	ldr	r5, [pc, #48]	; (8005ddc <HAL_RCC_OscConfig+0x558>)
 8005daa:	6aeb      	ldr	r3, [r5, #44]	; 0x2c
 8005dac:	f023 0301 	bic.w	r3, r3, #1
 8005db0:	62eb      	str	r3, [r5, #44]	; 0x2c
 8005db2:	f7fc fe7b 	bl	8002aac <HAL_GetTick>
 8005db6:	4606      	mov	r6, r0
 8005db8:	f7fc fe78 	bl	8002aac <HAL_GetTick>
 8005dbc:	42b0      	cmp	r0, r6
 8005dbe:	d0fb      	beq.n	8005db8 <HAL_RCC_OscConfig+0x534>
 8005dc0:	6b6b      	ldr	r3, [r5, #52]	; 0x34
 8005dc2:	6ca2      	ldr	r2, [r4, #72]	; 0x48
 8005dc4:	f423 437f 	bic.w	r3, r3, #65280	; 0xff00
 8005dc8:	f023 03f8 	bic.w	r3, r3, #248	; 0xf8
 8005dcc:	ea43 03c2 	orr.w	r3, r3, r2, lsl #3
 8005dd0:	636b      	str	r3, [r5, #52]	; 0x34
 8005dd2:	6aeb      	ldr	r3, [r5, #44]	; 0x2c
 8005dd4:	f043 0301 	orr.w	r3, r3, #1
 8005dd8:	62eb      	str	r3, [r5, #44]	; 0x2c
 8005dda:	e5ad      	b.n	8005938 <HAL_RCC_OscConfig+0xb4>
 8005ddc:	58024400 	.word	0x58024400

08005de0 <HAL_RCC_MCOConfig>:
 8005de0:	b570      	push	{r4, r5, r6, lr}
 8005de2:	4c23      	ldr	r4, [pc, #140]	; (8005e70 <HAL_RCC_MCOConfig+0x90>)
 8005de4:	b088      	sub	sp, #32
 8005de6:	460e      	mov	r6, r1
 8005de8:	4615      	mov	r5, r2
 8005dea:	f8d4 3140 	ldr.w	r3, [r4, #320]	; 0x140
 8005dee:	b9f8      	cbnz	r0, 8005e30 <HAL_RCC_MCOConfig+0x50>
 8005df0:	f043 0301 	orr.w	r3, r3, #1
 8005df4:	f44f 7c80 	mov.w	ip, #256	; 0x100
 8005df8:	a903      	add	r1, sp, #12
 8005dfa:	f8c4 3140 	str.w	r3, [r4, #320]	; 0x140
 8005dfe:	f8d4 3140 	ldr.w	r3, [r4, #320]	; 0x140
 8005e02:	9007      	str	r0, [sp, #28]
 8005e04:	f003 0301 	and.w	r3, r3, #1
 8005e08:	9301      	str	r3, [sp, #4]
 8005e0a:	9b01      	ldr	r3, [sp, #4]
 8005e0c:	2302      	movs	r3, #2
 8005e0e:	e9cd c303 	strd	ip, r3, [sp, #12]
 8005e12:	2303      	movs	r3, #3
 8005e14:	e9cd 0305 	strd	r0, r3, [sp, #20]
 8005e18:	4816      	ldr	r0, [pc, #88]	; (8005e74 <HAL_RCC_MCOConfig+0x94>)
 8005e1a:	f7fe fe33 	bl	8004a84 <HAL_GPIO_Init>
 8005e1e:	6923      	ldr	r3, [r4, #16]
 8005e20:	f023 73fe 	bic.w	r3, r3, #33292288	; 0x1fc0000
 8005e24:	ea43 0106 	orr.w	r1, r3, r6
 8005e28:	4329      	orrs	r1, r5
 8005e2a:	6121      	str	r1, [r4, #16]
 8005e2c:	b008      	add	sp, #32
 8005e2e:	bd70      	pop	{r4, r5, r6, pc}
 8005e30:	f043 0304 	orr.w	r3, r3, #4
 8005e34:	f44f 7200 	mov.w	r2, #512	; 0x200
 8005e38:	2103      	movs	r1, #3
 8005e3a:	480f      	ldr	r0, [pc, #60]	; (8005e78 <HAL_RCC_MCOConfig+0x98>)
 8005e3c:	f8c4 3140 	str.w	r3, [r4, #320]	; 0x140
 8005e40:	f8d4 3140 	ldr.w	r3, [r4, #320]	; 0x140
 8005e44:	f003 0304 	and.w	r3, r3, #4
 8005e48:	9302      	str	r3, [sp, #8]
 8005e4a:	9b02      	ldr	r3, [sp, #8]
 8005e4c:	2302      	movs	r3, #2
 8005e4e:	e9cd 2303 	strd	r2, r3, [sp, #12]
 8005e52:	2300      	movs	r3, #0
 8005e54:	e9cd 3105 	strd	r3, r1, [sp, #20]
 8005e58:	a903      	add	r1, sp, #12
 8005e5a:	9307      	str	r3, [sp, #28]
 8005e5c:	f7fe fe12 	bl	8004a84 <HAL_GPIO_Init>
 8005e60:	6923      	ldr	r3, [r4, #16]
 8005e62:	f023 437e 	bic.w	r3, r3, #4261412864	; 0xfe000000
 8005e66:	ea43 0106 	orr.w	r1, r3, r6
 8005e6a:	ea41 11c5 	orr.w	r1, r1, r5, lsl #7
 8005e6e:	e7dc      	b.n	8005e2a <HAL_RCC_MCOConfig+0x4a>
 8005e70:	58024400 	.word	0x58024400
 8005e74:	58020000 	.word	0x58020000
 8005e78:	58020800 	.word	0x58020800

08005e7c <HAL_RCC_GetSysClockFreq>:
 8005e7c:	4b48      	ldr	r3, [pc, #288]	; (8005fa0 <HAL_RCC_GetSysClockFreq+0x124>)
 8005e7e:	691a      	ldr	r2, [r3, #16]
 8005e80:	f002 0238 	and.w	r2, r2, #56	; 0x38
 8005e84:	2a10      	cmp	r2, #16
 8005e86:	b530      	push	{r4, r5, lr}
 8005e88:	f000 8086 	beq.w	8005f98 <HAL_RCC_GetSysClockFreq+0x11c>
 8005e8c:	2a18      	cmp	r2, #24
 8005e8e:	d00c      	beq.n	8005eaa <HAL_RCC_GetSysClockFreq+0x2e>
 8005e90:	2a00      	cmp	r2, #0
 8005e92:	f040 8083 	bne.w	8005f9c <HAL_RCC_GetSysClockFreq+0x120>
 8005e96:	681a      	ldr	r2, [r3, #0]
 8005e98:	4842      	ldr	r0, [pc, #264]	; (8005fa4 <HAL_RCC_GetSysClockFreq+0x128>)
 8005e9a:	f012 0f20 	tst.w	r2, #32
 8005e9e:	d003      	beq.n	8005ea8 <HAL_RCC_GetSysClockFreq+0x2c>
 8005ea0:	681b      	ldr	r3, [r3, #0]
 8005ea2:	f3c3 03c1 	ubfx	r3, r3, #3, #2
 8005ea6:	40d8      	lsrs	r0, r3
 8005ea8:	bd30      	pop	{r4, r5, pc}
 8005eaa:	6a99      	ldr	r1, [r3, #40]	; 0x28
 8005eac:	6a9d      	ldr	r5, [r3, #40]	; 0x28
 8005eae:	6adc      	ldr	r4, [r3, #44]	; 0x2c
 8005eb0:	f415 7f7c 	tst.w	r5, #1008	; 0x3f0
 8005eb4:	f3c5 1005 	ubfx	r0, r5, #4, #6
 8005eb8:	6b5a      	ldr	r2, [r3, #52]	; 0x34
 8005eba:	d0f5      	beq.n	8005ea8 <HAL_RCC_GetSysClockFreq+0x2c>
 8005ebc:	f3c2 02cc 	ubfx	r2, r2, #3, #13
 8005ec0:	f004 0401 	and.w	r4, r4, #1
 8005ec4:	ee07 0a90 	vmov	s15, r0
 8005ec8:	f001 0103 	and.w	r1, r1, #3
 8005ecc:	4362      	muls	r2, r4
 8005ece:	eeb7 6a00 	vmov.f32	s12, #112	; 0x3f800000  1.0
 8005ed2:	eef8 6ae7 	vcvt.f32.s32	s13, s15
 8005ed6:	2901      	cmp	r1, #1
 8005ed8:	ee07 2a90 	vmov	s15, r2
 8005edc:	eefa 7ae9 	vcvt.f32.s32	s15, s15, #13
 8005ee0:	d04c      	beq.n	8005f7c <HAL_RCC_GetSysClockFreq+0x100>
 8005ee2:	2902      	cmp	r1, #2
 8005ee4:	d03c      	beq.n	8005f60 <HAL_RCC_GetSysClockFreq+0xe4>
 8005ee6:	2900      	cmp	r1, #0
 8005ee8:	d148      	bne.n	8005f7c <HAL_RCC_GetSysClockFreq+0x100>
 8005eea:	681a      	ldr	r2, [r3, #0]
 8005eec:	0692      	lsls	r2, r2, #26
 8005eee:	d527      	bpl.n	8005f40 <HAL_RCC_GetSysClockFreq+0xc4>
 8005ef0:	6819      	ldr	r1, [r3, #0]
 8005ef2:	4a2c      	ldr	r2, [pc, #176]	; (8005fa4 <HAL_RCC_GetSysClockFreq+0x128>)
 8005ef4:	f3c1 01c1 	ubfx	r1, r1, #3, #2
 8005ef8:	6b1b      	ldr	r3, [r3, #48]	; 0x30
 8005efa:	40ca      	lsrs	r2, r1
 8005efc:	f3c3 0308 	ubfx	r3, r3, #0, #9
 8005f00:	ee07 2a10 	vmov	s14, r2
 8005f04:	eef8 5ac7 	vcvt.f32.s32	s11, s14
 8005f08:	ee85 7aa6 	vdiv.f32	s14, s11, s13
 8005f0c:	ee06 3a90 	vmov	s13, r3
 8005f10:	eef8 6ae6 	vcvt.f32.s32	s13, s13
 8005f14:	ee76 7aa7 	vadd.f32	s15, s13, s15
 8005f18:	ee77 7a86 	vadd.f32	s15, s15, s12
 8005f1c:	4b20      	ldr	r3, [pc, #128]	; (8005fa0 <HAL_RCC_GetSysClockFreq+0x124>)
 8005f1e:	ee67 7a87 	vmul.f32	s15, s15, s14
 8005f22:	6b1b      	ldr	r3, [r3, #48]	; 0x30
 8005f24:	f3c3 2346 	ubfx	r3, r3, #9, #7
 8005f28:	3301      	adds	r3, #1
 8005f2a:	ee07 3a10 	vmov	s14, r3
 8005f2e:	eef8 6ac7 	vcvt.f32.s32	s13, s14
 8005f32:	ee87 7aa6 	vdiv.f32	s14, s15, s13
 8005f36:	eefc 7ac7 	vcvt.u32.f32	s15, s14
 8005f3a:	ee17 0a90 	vmov	r0, s15
 8005f3e:	e7b3      	b.n	8005ea8 <HAL_RCC_GetSysClockFreq+0x2c>
 8005f40:	6b1b      	ldr	r3, [r3, #48]	; 0x30
 8005f42:	f3c3 0308 	ubfx	r3, r3, #0, #9
 8005f46:	ee07 3a10 	vmov	s14, r3
 8005f4a:	eeb8 7ac7 	vcvt.f32.s32	s14, s14
 8005f4e:	ee77 7a27 	vadd.f32	s15, s14, s15
 8005f52:	ee77 7a86 	vadd.f32	s15, s15, s12
 8005f56:	ed9f 6a14 	vldr	s12, [pc, #80]	; 8005fa8 <HAL_RCC_GetSysClockFreq+0x12c>
 8005f5a:	ee86 7a26 	vdiv.f32	s14, s12, s13
 8005f5e:	e7dd      	b.n	8005f1c <HAL_RCC_GetSysClockFreq+0xa0>
 8005f60:	6b1b      	ldr	r3, [r3, #48]	; 0x30
 8005f62:	f3c3 0308 	ubfx	r3, r3, #0, #9
 8005f66:	ee07 3a10 	vmov	s14, r3
 8005f6a:	eeb8 7ac7 	vcvt.f32.s32	s14, s14
 8005f6e:	ee77 7a27 	vadd.f32	s15, s14, s15
 8005f72:	ee77 7a86 	vadd.f32	s15, s15, s12
 8005f76:	ed9f 6a0d 	vldr	s12, [pc, #52]	; 8005fac <HAL_RCC_GetSysClockFreq+0x130>
 8005f7a:	e7ee      	b.n	8005f5a <HAL_RCC_GetSysClockFreq+0xde>
 8005f7c:	6b1b      	ldr	r3, [r3, #48]	; 0x30
 8005f7e:	f3c3 0308 	ubfx	r3, r3, #0, #9
 8005f82:	ee07 3a10 	vmov	s14, r3
 8005f86:	eeb8 7ac7 	vcvt.f32.s32	s14, s14
 8005f8a:	ee77 7a27 	vadd.f32	s15, s14, s15
 8005f8e:	ee77 7a86 	vadd.f32	s15, s15, s12
 8005f92:	ed9f 6a07 	vldr	s12, [pc, #28]	; 8005fb0 <HAL_RCC_GetSysClockFreq+0x134>
 8005f96:	e7e0      	b.n	8005f5a <HAL_RCC_GetSysClockFreq+0xde>
 8005f98:	4806      	ldr	r0, [pc, #24]	; (8005fb4 <HAL_RCC_GetSysClockFreq+0x138>)
 8005f9a:	e785      	b.n	8005ea8 <HAL_RCC_GetSysClockFreq+0x2c>
 8005f9c:	4806      	ldr	r0, [pc, #24]	; (8005fb8 <HAL_RCC_GetSysClockFreq+0x13c>)
 8005f9e:	e783      	b.n	8005ea8 <HAL_RCC_GetSysClockFreq+0x2c>
 8005fa0:	58024400 	.word	0x58024400
 8005fa4:	03d09000 	.word	0x03d09000
 8005fa8:	4c742400 	.word	0x4c742400
 8005fac:	4bb71b00 	.word	0x4bb71b00
 8005fb0:	4a742400 	.word	0x4a742400
 8005fb4:	016e3600 	.word	0x016e3600
 8005fb8:	003d0900 	.word	0x003d0900

08005fbc <HAL_RCC_ClockConfig>:
 8005fbc:	e92d 41f0 	stmdb	sp!, {r4, r5, r6, r7, r8, lr}
 8005fc0:	460d      	mov	r5, r1
 8005fc2:	4604      	mov	r4, r0
 8005fc4:	b910      	cbnz	r0, 8005fcc <HAL_RCC_ClockConfig+0x10>
 8005fc6:	2001      	movs	r0, #1
 8005fc8:	e8bd 81f0 	ldmia.w	sp!, {r4, r5, r6, r7, r8, pc}
 8005fcc:	4a88      	ldr	r2, [pc, #544]	; (80061f0 <HAL_RCC_ClockConfig+0x234>)
 8005fce:	6813      	ldr	r3, [r2, #0]
 8005fd0:	f003 030f 	and.w	r3, r3, #15
 8005fd4:	428b      	cmp	r3, r1
 8005fd6:	f0c0 8093 	bcc.w	8006100 <HAL_RCC_ClockConfig+0x144>
 8005fda:	6823      	ldr	r3, [r4, #0]
 8005fdc:	075f      	lsls	r7, r3, #29
 8005fde:	f100 809b 	bmi.w	8006118 <HAL_RCC_ClockConfig+0x15c>
 8005fe2:	071e      	lsls	r6, r3, #28
 8005fe4:	d50b      	bpl.n	8005ffe <HAL_RCC_ClockConfig+0x42>
 8005fe6:	4983      	ldr	r1, [pc, #524]	; (80061f4 <HAL_RCC_ClockConfig+0x238>)
 8005fe8:	6966      	ldr	r6, [r4, #20]
 8005fea:	69c8      	ldr	r0, [r1, #28]
 8005fec:	f000 0070 	and.w	r0, r0, #112	; 0x70
 8005ff0:	4286      	cmp	r6, r0
 8005ff2:	d904      	bls.n	8005ffe <HAL_RCC_ClockConfig+0x42>
 8005ff4:	69ca      	ldr	r2, [r1, #28]
 8005ff6:	f022 0270 	bic.w	r2, r2, #112	; 0x70
 8005ffa:	4332      	orrs	r2, r6
 8005ffc:	61ca      	str	r2, [r1, #28]
 8005ffe:	06d8      	lsls	r0, r3, #27
 8006000:	d50b      	bpl.n	800601a <HAL_RCC_ClockConfig+0x5e>
 8006002:	497c      	ldr	r1, [pc, #496]	; (80061f4 <HAL_RCC_ClockConfig+0x238>)
 8006004:	69a6      	ldr	r6, [r4, #24]
 8006006:	69c8      	ldr	r0, [r1, #28]
 8006008:	f400 60e0 	and.w	r0, r0, #1792	; 0x700
 800600c:	4286      	cmp	r6, r0
 800600e:	d904      	bls.n	800601a <HAL_RCC_ClockConfig+0x5e>
 8006010:	69ca      	ldr	r2, [r1, #28]
 8006012:	f422 62e0 	bic.w	r2, r2, #1792	; 0x700
 8006016:	4332      	orrs	r2, r6
 8006018:	61ca      	str	r2, [r1, #28]
 800601a:	0699      	lsls	r1, r3, #26
 800601c:	d50b      	bpl.n	8006036 <HAL_RCC_ClockConfig+0x7a>
 800601e:	4975      	ldr	r1, [pc, #468]	; (80061f4 <HAL_RCC_ClockConfig+0x238>)
 8006020:	69e6      	ldr	r6, [r4, #28]
 8006022:	6a08      	ldr	r0, [r1, #32]
 8006024:	f000 0070 	and.w	r0, r0, #112	; 0x70
 8006028:	4286      	cmp	r6, r0
 800602a:	d904      	bls.n	8006036 <HAL_RCC_ClockConfig+0x7a>
 800602c:	6a0a      	ldr	r2, [r1, #32]
 800602e:	f022 0270 	bic.w	r2, r2, #112	; 0x70
 8006032:	4332      	orrs	r2, r6
 8006034:	620a      	str	r2, [r1, #32]
 8006036:	079a      	lsls	r2, r3, #30
 8006038:	d50b      	bpl.n	8006052 <HAL_RCC_ClockConfig+0x96>
 800603a:	496e      	ldr	r1, [pc, #440]	; (80061f4 <HAL_RCC_ClockConfig+0x238>)
 800603c:	68e6      	ldr	r6, [r4, #12]
 800603e:	6988      	ldr	r0, [r1, #24]
 8006040:	f000 000f 	and.w	r0, r0, #15
 8006044:	4286      	cmp	r6, r0
 8006046:	d904      	bls.n	8006052 <HAL_RCC_ClockConfig+0x96>
 8006048:	698a      	ldr	r2, [r1, #24]
 800604a:	f022 020f 	bic.w	r2, r2, #15
 800604e:	4332      	orrs	r2, r6
 8006050:	618a      	str	r2, [r1, #24]
 8006052:	07df      	lsls	r7, r3, #31
 8006054:	d46e      	bmi.n	8006134 <HAL_RCC_ClockConfig+0x178>
 8006056:	6823      	ldr	r3, [r4, #0]
 8006058:	079e      	lsls	r6, r3, #30
 800605a:	f100 80a1 	bmi.w	80061a0 <HAL_RCC_ClockConfig+0x1e4>
 800605e:	4964      	ldr	r1, [pc, #400]	; (80061f0 <HAL_RCC_ClockConfig+0x234>)
 8006060:	680a      	ldr	r2, [r1, #0]
 8006062:	f002 020f 	and.w	r2, r2, #15
 8006066:	42aa      	cmp	r2, r5
 8006068:	f200 80a8 	bhi.w	80061bc <HAL_RCC_ClockConfig+0x200>
 800606c:	0758      	lsls	r0, r3, #29
 800606e:	f100 80b1 	bmi.w	80061d4 <HAL_RCC_ClockConfig+0x218>
 8006072:	0719      	lsls	r1, r3, #28
 8006074:	d50b      	bpl.n	800608e <HAL_RCC_ClockConfig+0xd2>
 8006076:	495f      	ldr	r1, [pc, #380]	; (80061f4 <HAL_RCC_ClockConfig+0x238>)
 8006078:	6965      	ldr	r5, [r4, #20]
 800607a:	69c8      	ldr	r0, [r1, #28]
 800607c:	f000 0070 	and.w	r0, r0, #112	; 0x70
 8006080:	4285      	cmp	r5, r0
 8006082:	d204      	bcs.n	800608e <HAL_RCC_ClockConfig+0xd2>
 8006084:	69ca      	ldr	r2, [r1, #28]
 8006086:	f022 0270 	bic.w	r2, r2, #112	; 0x70
 800608a:	432a      	orrs	r2, r5
 800608c:	61ca      	str	r2, [r1, #28]
 800608e:	06da      	lsls	r2, r3, #27
 8006090:	d50b      	bpl.n	80060aa <HAL_RCC_ClockConfig+0xee>
 8006092:	4958      	ldr	r1, [pc, #352]	; (80061f4 <HAL_RCC_ClockConfig+0x238>)
 8006094:	69a5      	ldr	r5, [r4, #24]
 8006096:	69c8      	ldr	r0, [r1, #28]
 8006098:	f400 60e0 	and.w	r0, r0, #1792	; 0x700
 800609c:	4285      	cmp	r5, r0
 800609e:	d204      	bcs.n	80060aa <HAL_RCC_ClockConfig+0xee>
 80060a0:	69ca      	ldr	r2, [r1, #28]
 80060a2:	f422 62e0 	bic.w	r2, r2, #1792	; 0x700
 80060a6:	432a      	orrs	r2, r5
 80060a8:	61ca      	str	r2, [r1, #28]
 80060aa:	069b      	lsls	r3, r3, #26
 80060ac:	d50b      	bpl.n	80060c6 <HAL_RCC_ClockConfig+0x10a>
 80060ae:	4a51      	ldr	r2, [pc, #324]	; (80061f4 <HAL_RCC_ClockConfig+0x238>)
 80060b0:	69e0      	ldr	r0, [r4, #28]
 80060b2:	6a11      	ldr	r1, [r2, #32]
 80060b4:	f001 0170 	and.w	r1, r1, #112	; 0x70
 80060b8:	4288      	cmp	r0, r1
 80060ba:	d204      	bcs.n	80060c6 <HAL_RCC_ClockConfig+0x10a>
 80060bc:	6a13      	ldr	r3, [r2, #32]
 80060be:	f023 0370 	bic.w	r3, r3, #112	; 0x70
 80060c2:	4303      	orrs	r3, r0
 80060c4:	6213      	str	r3, [r2, #32]
 80060c6:	f7ff fed9 	bl	8005e7c <HAL_RCC_GetSysClockFreq>
 80060ca:	494a      	ldr	r1, [pc, #296]	; (80061f4 <HAL_RCC_ClockConfig+0x238>)
 80060cc:	4a4a      	ldr	r2, [pc, #296]	; (80061f8 <HAL_RCC_ClockConfig+0x23c>)
 80060ce:	698b      	ldr	r3, [r1, #24]
 80060d0:	f3c3 2303 	ubfx	r3, r3, #8, #4
 80060d4:	5cd3      	ldrb	r3, [r2, r3]
 80060d6:	f003 031f 	and.w	r3, r3, #31
 80060da:	40d8      	lsrs	r0, r3
 80060dc:	698b      	ldr	r3, [r1, #24]
 80060de:	f003 030f 	and.w	r3, r3, #15
 80060e2:	5cd3      	ldrb	r3, [r2, r3]
 80060e4:	4a45      	ldr	r2, [pc, #276]	; (80061fc <HAL_RCC_ClockConfig+0x240>)
 80060e6:	f003 031f 	and.w	r3, r3, #31
 80060ea:	fa20 f303 	lsr.w	r3, r0, r3
 80060ee:	6013      	str	r3, [r2, #0]
 80060f0:	4b43      	ldr	r3, [pc, #268]	; (8006200 <HAL_RCC_ClockConfig+0x244>)
 80060f2:	6018      	str	r0, [r3, #0]
 80060f4:	4b43      	ldr	r3, [pc, #268]	; (8006204 <HAL_RCC_ClockConfig+0x248>)
 80060f6:	e8bd 41f0 	ldmia.w	sp!, {r4, r5, r6, r7, r8, lr}
 80060fa:	6818      	ldr	r0, [r3, #0]
 80060fc:	f7fc bc76 	b.w	80029ec <HAL_InitTick>
 8006100:	6813      	ldr	r3, [r2, #0]
 8006102:	f023 030f 	bic.w	r3, r3, #15
 8006106:	430b      	orrs	r3, r1
 8006108:	6013      	str	r3, [r2, #0]
 800610a:	6813      	ldr	r3, [r2, #0]
 800610c:	f003 030f 	and.w	r3, r3, #15
 8006110:	428b      	cmp	r3, r1
 8006112:	f47f af58 	bne.w	8005fc6 <HAL_RCC_ClockConfig+0xa>
 8006116:	e760      	b.n	8005fda <HAL_RCC_ClockConfig+0x1e>
 8006118:	4936      	ldr	r1, [pc, #216]	; (80061f4 <HAL_RCC_ClockConfig+0x238>)
 800611a:	6926      	ldr	r6, [r4, #16]
 800611c:	6988      	ldr	r0, [r1, #24]
 800611e:	f000 0070 	and.w	r0, r0, #112	; 0x70
 8006122:	4286      	cmp	r6, r0
 8006124:	f67f af5d 	bls.w	8005fe2 <HAL_RCC_ClockConfig+0x26>
 8006128:	698a      	ldr	r2, [r1, #24]
 800612a:	f022 0270 	bic.w	r2, r2, #112	; 0x70
 800612e:	4332      	orrs	r2, r6
 8006130:	618a      	str	r2, [r1, #24]
 8006132:	e756      	b.n	8005fe2 <HAL_RCC_ClockConfig+0x26>
 8006134:	4b2f      	ldr	r3, [pc, #188]	; (80061f4 <HAL_RCC_ClockConfig+0x238>)
 8006136:	68a1      	ldr	r1, [r4, #8]
 8006138:	699a      	ldr	r2, [r3, #24]
 800613a:	f422 6270 	bic.w	r2, r2, #3840	; 0xf00
 800613e:	430a      	orrs	r2, r1
 8006140:	619a      	str	r2, [r3, #24]
 8006142:	6862      	ldr	r2, [r4, #4]
 8006144:	681b      	ldr	r3, [r3, #0]
 8006146:	2a02      	cmp	r2, #2
 8006148:	d11d      	bne.n	8006186 <HAL_RCC_ClockConfig+0x1ca>
 800614a:	f413 3f00 	tst.w	r3, #131072	; 0x20000
 800614e:	f43f af3a 	beq.w	8005fc6 <HAL_RCC_ClockConfig+0xa>
 8006152:	4e28      	ldr	r6, [pc, #160]	; (80061f4 <HAL_RCC_ClockConfig+0x238>)
 8006154:	f241 3888 	movw	r8, #5000	; 0x1388
 8006158:	6933      	ldr	r3, [r6, #16]
 800615a:	f023 0307 	bic.w	r3, r3, #7
 800615e:	4313      	orrs	r3, r2
 8006160:	6133      	str	r3, [r6, #16]
 8006162:	f7fc fca3 	bl	8002aac <HAL_GetTick>
 8006166:	4607      	mov	r7, r0
 8006168:	6933      	ldr	r3, [r6, #16]
 800616a:	6862      	ldr	r2, [r4, #4]
 800616c:	f003 0338 	and.w	r3, r3, #56	; 0x38
 8006170:	ebb3 0fc2 	cmp.w	r3, r2, lsl #3
 8006174:	f43f af6f 	beq.w	8006056 <HAL_RCC_ClockConfig+0x9a>
 8006178:	f7fc fc98 	bl	8002aac <HAL_GetTick>
 800617c:	1bc0      	subs	r0, r0, r7
 800617e:	4540      	cmp	r0, r8
 8006180:	d9f2      	bls.n	8006168 <HAL_RCC_ClockConfig+0x1ac>
 8006182:	2003      	movs	r0, #3
 8006184:	e720      	b.n	8005fc8 <HAL_RCC_ClockConfig+0xc>
 8006186:	2a03      	cmp	r2, #3
 8006188:	d102      	bne.n	8006190 <HAL_RCC_ClockConfig+0x1d4>
 800618a:	f013 7f00 	tst.w	r3, #33554432	; 0x2000000
 800618e:	e7de      	b.n	800614e <HAL_RCC_ClockConfig+0x192>
 8006190:	2a01      	cmp	r2, #1
 8006192:	d102      	bne.n	800619a <HAL_RCC_ClockConfig+0x1de>
 8006194:	f413 7f80 	tst.w	r3, #256	; 0x100
 8006198:	e7d9      	b.n	800614e <HAL_RCC_ClockConfig+0x192>
 800619a:	f013 0f04 	tst.w	r3, #4
 800619e:	e7d6      	b.n	800614e <HAL_RCC_ClockConfig+0x192>
 80061a0:	4914      	ldr	r1, [pc, #80]	; (80061f4 <HAL_RCC_ClockConfig+0x238>)
 80061a2:	68e6      	ldr	r6, [r4, #12]
 80061a4:	6988      	ldr	r0, [r1, #24]
 80061a6:	f000 000f 	and.w	r0, r0, #15
 80061aa:	4286      	cmp	r6, r0
 80061ac:	f4bf af57 	bcs.w	800605e <HAL_RCC_ClockConfig+0xa2>
 80061b0:	698a      	ldr	r2, [r1, #24]
 80061b2:	f022 020f 	bic.w	r2, r2, #15
 80061b6:	4332      	orrs	r2, r6
 80061b8:	618a      	str	r2, [r1, #24]
 80061ba:	e750      	b.n	800605e <HAL_RCC_ClockConfig+0xa2>
 80061bc:	680a      	ldr	r2, [r1, #0]
 80061be:	f022 020f 	bic.w	r2, r2, #15
 80061c2:	432a      	orrs	r2, r5
 80061c4:	600a      	str	r2, [r1, #0]
 80061c6:	680a      	ldr	r2, [r1, #0]
 80061c8:	f002 020f 	and.w	r2, r2, #15
 80061cc:	42aa      	cmp	r2, r5
 80061ce:	f47f aefa 	bne.w	8005fc6 <HAL_RCC_ClockConfig+0xa>
 80061d2:	e74b      	b.n	800606c <HAL_RCC_ClockConfig+0xb0>
 80061d4:	4907      	ldr	r1, [pc, #28]	; (80061f4 <HAL_RCC_ClockConfig+0x238>)
 80061d6:	6925      	ldr	r5, [r4, #16]
 80061d8:	6988      	ldr	r0, [r1, #24]
 80061da:	f000 0070 	and.w	r0, r0, #112	; 0x70
 80061de:	4285      	cmp	r5, r0
 80061e0:	f4bf af47 	bcs.w	8006072 <HAL_RCC_ClockConfig+0xb6>
 80061e4:	698a      	ldr	r2, [r1, #24]
 80061e6:	f022 0270 	bic.w	r2, r2, #112	; 0x70
 80061ea:	432a      	orrs	r2, r5
 80061ec:	618a      	str	r2, [r1, #24]
 80061ee:	e740      	b.n	8006072 <HAL_RCC_ClockConfig+0xb6>
 80061f0:	52002000 	.word	0x52002000
 80061f4:	58024400 	.word	0x58024400
 80061f8:	08008ec2 	.word	0x08008ec2
 80061fc:	24000048 	.word	0x24000048
 8006200:	24000044 	.word	0x24000044
 8006204:	24000050 	.word	0x24000050

08006208 <HAL_RCC_GetHCLKFreq>:
 8006208:	b510      	push	{r4, lr}
 800620a:	4c0c      	ldr	r4, [pc, #48]	; (800623c <HAL_RCC_GetHCLKFreq+0x34>)
 800620c:	f7ff fe36 	bl	8005e7c <HAL_RCC_GetSysClockFreq>
 8006210:	490b      	ldr	r1, [pc, #44]	; (8006240 <HAL_RCC_GetHCLKFreq+0x38>)
 8006212:	69a3      	ldr	r3, [r4, #24]
 8006214:	f3c3 2303 	ubfx	r3, r3, #8, #4
 8006218:	5cca      	ldrb	r2, [r1, r3]
 800621a:	69a3      	ldr	r3, [r4, #24]
 800621c:	f002 021f 	and.w	r2, r2, #31
 8006220:	f003 030f 	and.w	r3, r3, #15
 8006224:	fa20 f202 	lsr.w	r2, r0, r2
 8006228:	5ccb      	ldrb	r3, [r1, r3]
 800622a:	f003 031f 	and.w	r3, r3, #31
 800622e:	fa22 f003 	lsr.w	r0, r2, r3
 8006232:	4b04      	ldr	r3, [pc, #16]	; (8006244 <HAL_RCC_GetHCLKFreq+0x3c>)
 8006234:	6018      	str	r0, [r3, #0]
 8006236:	4b04      	ldr	r3, [pc, #16]	; (8006248 <HAL_RCC_GetHCLKFreq+0x40>)
 8006238:	601a      	str	r2, [r3, #0]
 800623a:	bd10      	pop	{r4, pc}
 800623c:	58024400 	.word	0x58024400
 8006240:	08008ec2 	.word	0x08008ec2
 8006244:	24000048 	.word	0x24000048
 8006248:	24000044 	.word	0x24000044

0800624c <HAL_RCC_GetPCLK1Freq>:
 800624c:	b508      	push	{r3, lr}
 800624e:	f7ff ffdb 	bl	8006208 <HAL_RCC_GetHCLKFreq>
 8006252:	4b05      	ldr	r3, [pc, #20]	; (8006268 <HAL_RCC_GetPCLK1Freq+0x1c>)
 8006254:	4a05      	ldr	r2, [pc, #20]	; (800626c <HAL_RCC_GetPCLK1Freq+0x20>)
 8006256:	69db      	ldr	r3, [r3, #28]
 8006258:	f3c3 1302 	ubfx	r3, r3, #4, #3
 800625c:	5cd3      	ldrb	r3, [r2, r3]
 800625e:	f003 031f 	and.w	r3, r3, #31
 8006262:	40d8      	lsrs	r0, r3
 8006264:	bd08      	pop	{r3, pc}
 8006266:	bf00      	nop
 8006268:	58024400 	.word	0x58024400
 800626c:	08008ec2 	.word	0x08008ec2

08006270 <HAL_RCC_GetPCLK2Freq>:
 8006270:	b508      	push	{r3, lr}
 8006272:	f7ff ffc9 	bl	8006208 <HAL_RCC_GetHCLKFreq>
 8006276:	4b05      	ldr	r3, [pc, #20]	; (800628c <HAL_RCC_GetPCLK2Freq+0x1c>)
 8006278:	4a05      	ldr	r2, [pc, #20]	; (8006290 <HAL_RCC_GetPCLK2Freq+0x20>)
 800627a:	69db      	ldr	r3, [r3, #28]
 800627c:	f3c3 2302 	ubfx	r3, r3, #8, #3
 8006280:	5cd3      	ldrb	r3, [r2, r3]
 8006282:	f003 031f 	and.w	r3, r3, #31
 8006286:	40d8      	lsrs	r0, r3
 8006288:	bd08      	pop	{r3, pc}
 800628a:	bf00      	nop
 800628c:	58024400 	.word	0x58024400
 8006290:	08008ec2 	.word	0x08008ec2

08006294 <RCCEx_PLL2_Config>:
 8006294:	b5f8      	push	{r3, r4, r5, r6, r7, lr}
 8006296:	4c3a      	ldr	r4, [pc, #232]	; (8006380 <RCCEx_PLL2_Config+0xec>)
 8006298:	4606      	mov	r6, r0
 800629a:	460d      	mov	r5, r1
 800629c:	6aa3      	ldr	r3, [r4, #40]	; 0x28
 800629e:	f003 0303 	and.w	r3, r3, #3
 80062a2:	2b03      	cmp	r3, #3
 80062a4:	d069      	beq.n	800637a <RCCEx_PLL2_Config+0xe6>
 80062a6:	6823      	ldr	r3, [r4, #0]
 80062a8:	f023 6380 	bic.w	r3, r3, #67108864	; 0x4000000
 80062ac:	6023      	str	r3, [r4, #0]
 80062ae:	f7fc fbfd 	bl	8002aac <HAL_GetTick>
 80062b2:	4607      	mov	r7, r0
 80062b4:	6823      	ldr	r3, [r4, #0]
 80062b6:	011a      	lsls	r2, r3, #4
 80062b8:	d44b      	bmi.n	8006352 <RCCEx_PLL2_Config+0xbe>
 80062ba:	6aa3      	ldr	r3, [r4, #40]	; 0x28
 80062bc:	6832      	ldr	r2, [r6, #0]
 80062be:	f423 337c 	bic.w	r3, r3, #258048	; 0x3f000
 80062c2:	ea43 3302 	orr.w	r3, r3, r2, lsl #12
 80062c6:	62a3      	str	r3, [r4, #40]	; 0x28
 80062c8:	68b3      	ldr	r3, [r6, #8]
 80062ca:	68f2      	ldr	r2, [r6, #12]
 80062cc:	3b01      	subs	r3, #1
 80062ce:	3a01      	subs	r2, #1
 80062d0:	025b      	lsls	r3, r3, #9
 80062d2:	0412      	lsls	r2, r2, #16
 80062d4:	b29b      	uxth	r3, r3
 80062d6:	f402 02fe 	and.w	r2, r2, #8323072	; 0x7f0000
 80062da:	4313      	orrs	r3, r2
 80062dc:	6872      	ldr	r2, [r6, #4]
 80062de:	3a01      	subs	r2, #1
 80062e0:	f3c2 0208 	ubfx	r2, r2, #0, #9
 80062e4:	4313      	orrs	r3, r2
 80062e6:	6932      	ldr	r2, [r6, #16]
 80062e8:	3a01      	subs	r2, #1
 80062ea:	0612      	lsls	r2, r2, #24
 80062ec:	f002 42fe 	and.w	r2, r2, #2130706432	; 0x7f000000
 80062f0:	4313      	orrs	r3, r2
 80062f2:	63a3      	str	r3, [r4, #56]	; 0x38
 80062f4:	6ae3      	ldr	r3, [r4, #44]	; 0x2c
 80062f6:	6972      	ldr	r2, [r6, #20]
 80062f8:	f023 03c0 	bic.w	r3, r3, #192	; 0xc0
 80062fc:	4313      	orrs	r3, r2
 80062fe:	62e3      	str	r3, [r4, #44]	; 0x2c
 8006300:	6ae3      	ldr	r3, [r4, #44]	; 0x2c
 8006302:	69b2      	ldr	r2, [r6, #24]
 8006304:	f023 0320 	bic.w	r3, r3, #32
 8006308:	4313      	orrs	r3, r2
 800630a:	62e3      	str	r3, [r4, #44]	; 0x2c
 800630c:	6ae3      	ldr	r3, [r4, #44]	; 0x2c
 800630e:	f023 0310 	bic.w	r3, r3, #16
 8006312:	62e3      	str	r3, [r4, #44]	; 0x2c
 8006314:	6be3      	ldr	r3, [r4, #60]	; 0x3c
 8006316:	69f2      	ldr	r2, [r6, #28]
 8006318:	f423 437f 	bic.w	r3, r3, #65280	; 0xff00
 800631c:	f023 03f8 	bic.w	r3, r3, #248	; 0xf8
 8006320:	ea43 03c2 	orr.w	r3, r3, r2, lsl #3
 8006324:	63e3      	str	r3, [r4, #60]	; 0x3c
 8006326:	6ae3      	ldr	r3, [r4, #44]	; 0x2c
 8006328:	f043 0310 	orr.w	r3, r3, #16
 800632c:	62e3      	str	r3, [r4, #44]	; 0x2c
 800632e:	6ae3      	ldr	r3, [r4, #44]	; 0x2c
 8006330:	b9b5      	cbnz	r5, 8006360 <RCCEx_PLL2_Config+0xcc>
 8006332:	f443 2300 	orr.w	r3, r3, #524288	; 0x80000
 8006336:	62e3      	str	r3, [r4, #44]	; 0x2c
 8006338:	4c11      	ldr	r4, [pc, #68]	; (8006380 <RCCEx_PLL2_Config+0xec>)
 800633a:	6823      	ldr	r3, [r4, #0]
 800633c:	f043 6380 	orr.w	r3, r3, #67108864	; 0x4000000
 8006340:	6023      	str	r3, [r4, #0]
 8006342:	f7fc fbb3 	bl	8002aac <HAL_GetTick>
 8006346:	4605      	mov	r5, r0
 8006348:	6823      	ldr	r3, [r4, #0]
 800634a:	011b      	lsls	r3, r3, #4
 800634c:	d50f      	bpl.n	800636e <RCCEx_PLL2_Config+0xda>
 800634e:	2000      	movs	r0, #0
 8006350:	e005      	b.n	800635e <RCCEx_PLL2_Config+0xca>
 8006352:	f7fc fbab 	bl	8002aac <HAL_GetTick>
 8006356:	1bc0      	subs	r0, r0, r7
 8006358:	2802      	cmp	r0, #2
 800635a:	d9ab      	bls.n	80062b4 <RCCEx_PLL2_Config+0x20>
 800635c:	2003      	movs	r0, #3
 800635e:	bdf8      	pop	{r3, r4, r5, r6, r7, pc}
 8006360:	2d01      	cmp	r5, #1
 8006362:	bf0c      	ite	eq
 8006364:	f443 1380 	orreq.w	r3, r3, #1048576	; 0x100000
 8006368:	f443 1300 	orrne.w	r3, r3, #2097152	; 0x200000
 800636c:	e7e3      	b.n	8006336 <RCCEx_PLL2_Config+0xa2>
 800636e:	f7fc fb9d 	bl	8002aac <HAL_GetTick>
 8006372:	1b40      	subs	r0, r0, r5
 8006374:	2802      	cmp	r0, #2
 8006376:	d9e7      	bls.n	8006348 <RCCEx_PLL2_Config+0xb4>
 8006378:	e7f0      	b.n	800635c <RCCEx_PLL2_Config+0xc8>
 800637a:	2001      	movs	r0, #1
 800637c:	e7ef      	b.n	800635e <RCCEx_PLL2_Config+0xca>
 800637e:	bf00      	nop
 8006380:	58024400 	.word	0x58024400

08006384 <RCCEx_PLL3_Config>:
 8006384:	b5f8      	push	{r3, r4, r5, r6, r7, lr}
 8006386:	4c3a      	ldr	r4, [pc, #232]	; (8006470 <RCCEx_PLL3_Config+0xec>)
 8006388:	4606      	mov	r6, r0
 800638a:	460d      	mov	r5, r1
 800638c:	6aa3      	ldr	r3, [r4, #40]	; 0x28
 800638e:	f003 0303 	and.w	r3, r3, #3
 8006392:	2b03      	cmp	r3, #3
 8006394:	d069      	beq.n	800646a <RCCEx_PLL3_Config+0xe6>
 8006396:	6823      	ldr	r3, [r4, #0]
 8006398:	f023 5380 	bic.w	r3, r3, #268435456	; 0x10000000
 800639c:	6023      	str	r3, [r4, #0]
 800639e:	f7fc fb85 	bl	8002aac <HAL_GetTick>
 80063a2:	4607      	mov	r7, r0
 80063a4:	6823      	ldr	r3, [r4, #0]
 80063a6:	009a      	lsls	r2, r3, #2
 80063a8:	d44b      	bmi.n	8006442 <RCCEx_PLL3_Config+0xbe>
 80063aa:	6aa3      	ldr	r3, [r4, #40]	; 0x28
 80063ac:	6832      	ldr	r2, [r6, #0]
 80063ae:	f023 737c 	bic.w	r3, r3, #66060288	; 0x3f00000
 80063b2:	ea43 5302 	orr.w	r3, r3, r2, lsl #20
 80063b6:	62a3      	str	r3, [r4, #40]	; 0x28
 80063b8:	68b3      	ldr	r3, [r6, #8]
 80063ba:	68f2      	ldr	r2, [r6, #12]
 80063bc:	3b01      	subs	r3, #1
 80063be:	3a01      	subs	r2, #1
 80063c0:	025b      	lsls	r3, r3, #9
 80063c2:	0412      	lsls	r2, r2, #16
 80063c4:	b29b      	uxth	r3, r3
 80063c6:	f402 02fe 	and.w	r2, r2, #8323072	; 0x7f0000
 80063ca:	4313      	orrs	r3, r2
 80063cc:	6872      	ldr	r2, [r6, #4]
 80063ce:	3a01      	subs	r2, #1
 80063d0:	f3c2 0208 	ubfx	r2, r2, #0, #9
 80063d4:	4313      	orrs	r3, r2
 80063d6:	6932      	ldr	r2, [r6, #16]
 80063d8:	3a01      	subs	r2, #1
 80063da:	0612      	lsls	r2, r2, #24
 80063dc:	f002 42fe 	and.w	r2, r2, #2130706432	; 0x7f000000
 80063e0:	4313      	orrs	r3, r2
 80063e2:	6423      	str	r3, [r4, #64]	; 0x40
 80063e4:	6ae3      	ldr	r3, [r4, #44]	; 0x2c
 80063e6:	6972      	ldr	r2, [r6, #20]
 80063e8:	f423 6340 	bic.w	r3, r3, #3072	; 0xc00
 80063ec:	4313      	orrs	r3, r2
 80063ee:	62e3      	str	r3, [r4, #44]	; 0x2c
 80063f0:	6ae3      	ldr	r3, [r4, #44]	; 0x2c
 80063f2:	69b2      	ldr	r2, [r6, #24]
 80063f4:	f423 7300 	bic.w	r3, r3, #512	; 0x200
 80063f8:	4313      	orrs	r3, r2
 80063fa:	62e3      	str	r3, [r4, #44]	; 0x2c
 80063fc:	6ae3      	ldr	r3, [r4, #44]	; 0x2c
 80063fe:	f423 7380 	bic.w	r3, r3, #256	; 0x100
 8006402:	62e3      	str	r3, [r4, #44]	; 0x2c
 8006404:	6c63      	ldr	r3, [r4, #68]	; 0x44
 8006406:	69f2      	ldr	r2, [r6, #28]
 8006408:	f423 437f 	bic.w	r3, r3, #65280	; 0xff00
 800640c:	f023 03f8 	bic.w	r3, r3, #248	; 0xf8
 8006410:	ea43 03c2 	orr.w	r3, r3, r2, lsl #3
 8006414:	6463      	str	r3, [r4, #68]	; 0x44
 8006416:	6ae3      	ldr	r3, [r4, #44]	; 0x2c
 8006418:	f443 7380 	orr.w	r3, r3, #256	; 0x100
 800641c:	62e3      	str	r3, [r4, #44]	; 0x2c
 800641e:	6ae3      	ldr	r3, [r4, #44]	; 0x2c
 8006420:	b9b5      	cbnz	r5, 8006450 <RCCEx_PLL3_Config+0xcc>
 8006422:	f443 0380 	orr.w	r3, r3, #4194304	; 0x400000
 8006426:	62e3      	str	r3, [r4, #44]	; 0x2c
 8006428:	4c11      	ldr	r4, [pc, #68]	; (8006470 <RCCEx_PLL3_Config+0xec>)
 800642a:	6823      	ldr	r3, [r4, #0]
 800642c:	f043 5380 	orr.w	r3, r3, #268435456	; 0x10000000
 8006430:	6023      	str	r3, [r4, #0]
 8006432:	f7fc fb3b 	bl	8002aac <HAL_GetTick>
 8006436:	4605      	mov	r5, r0
 8006438:	6823      	ldr	r3, [r4, #0]
 800643a:	009b      	lsls	r3, r3, #2
 800643c:	d50f      	bpl.n	800645e <RCCEx_PLL3_Config+0xda>
 800643e:	2000      	movs	r0, #0
 8006440:	e005      	b.n	800644e <RCCEx_PLL3_Config+0xca>
 8006442:	f7fc fb33 	bl	8002aac <HAL_GetTick>
 8006446:	1bc0      	subs	r0, r0, r7
 8006448:	2802      	cmp	r0, #2
 800644a:	d9ab      	bls.n	80063a4 <RCCEx_PLL3_Config+0x20>
 800644c:	2003      	movs	r0, #3
 800644e:	bdf8      	pop	{r3, r4, r5, r6, r7, pc}
 8006450:	2d01      	cmp	r5, #1
 8006452:	bf0c      	ite	eq
 8006454:	f443 0300 	orreq.w	r3, r3, #8388608	; 0x800000
 8006458:	f043 7380 	orrne.w	r3, r3, #16777216	; 0x1000000
 800645c:	e7e3      	b.n	8006426 <RCCEx_PLL3_Config+0xa2>
 800645e:	f7fc fb25 	bl	8002aac <HAL_GetTick>
 8006462:	1b40      	subs	r0, r0, r5
 8006464:	2802      	cmp	r0, #2
 8006466:	d9e7      	bls.n	8006438 <RCCEx_PLL3_Config+0xb4>
 8006468:	e7f0      	b.n	800644c <RCCEx_PLL3_Config+0xc8>
 800646a:	2001      	movs	r0, #1
 800646c:	e7ef      	b.n	800644e <RCCEx_PLL3_Config+0xca>
 800646e:	bf00      	nop
 8006470:	58024400 	.word	0x58024400

08006474 <HAL_RCCEx_PeriphCLKConfig>:
 8006474:	e92d 43f8 	stmdb	sp!, {r3, r4, r5, r6, r7, r8, r9, lr}
 8006478:	6803      	ldr	r3, [r0, #0]
 800647a:	4605      	mov	r5, r0
 800647c:	0119      	lsls	r1, r3, #4
 800647e:	f003 6600 	and.w	r6, r3, #134217728	; 0x8000000
 8006482:	d509      	bpl.n	8006498 <HAL_RCCEx_PeriphCLKConfig+0x24>
 8006484:	6ec3      	ldr	r3, [r0, #108]	; 0x6c
 8006486:	f5b3 1f00 	cmp.w	r3, #2097152	; 0x200000
 800648a:	d02c      	beq.n	80064e6 <HAL_RCCEx_PeriphCLKConfig+0x72>
 800648c:	d811      	bhi.n	80064b2 <HAL_RCCEx_PeriphCLKConfig+0x3e>
 800648e:	b1e3      	cbz	r3, 80064ca <HAL_RCCEx_PeriphCLKConfig+0x56>
 8006490:	f5b3 1f80 	cmp.w	r3, #1048576	; 0x100000
 8006494:	d01f      	beq.n	80064d6 <HAL_RCCEx_PeriphCLKConfig+0x62>
 8006496:	2601      	movs	r6, #1
 8006498:	682b      	ldr	r3, [r5, #0]
 800649a:	05da      	lsls	r2, r3, #23
 800649c:	f140 80d4 	bpl.w	8006648 <HAL_RCCEx_PeriphCLKConfig+0x1d4>
 80064a0:	6dab      	ldr	r3, [r5, #88]	; 0x58
 80064a2:	2b04      	cmp	r3, #4
 80064a4:	f200 80cf 	bhi.w	8006646 <HAL_RCCEx_PeriphCLKConfig+0x1d2>
 80064a8:	e8df f003 	tbb	[pc, r3]
 80064ac:	27c72922 	.word	0x27c72922
 80064b0:	27          	.byte	0x27
 80064b1:	00          	.byte	0x00
 80064b2:	f5b3 1f40 	cmp.w	r3, #3145728	; 0x300000
 80064b6:	d1ee      	bne.n	8006496 <HAL_RCCEx_PeriphCLKConfig+0x22>
 80064b8:	4aa8      	ldr	r2, [pc, #672]	; (800675c <HAL_RCCEx_PeriphCLKConfig+0x2e8>)
 80064ba:	2600      	movs	r6, #0
 80064bc:	6ee9      	ldr	r1, [r5, #108]	; 0x6c
 80064be:	6d13      	ldr	r3, [r2, #80]	; 0x50
 80064c0:	f423 1340 	bic.w	r3, r3, #3145728	; 0x300000
 80064c4:	430b      	orrs	r3, r1
 80064c6:	6513      	str	r3, [r2, #80]	; 0x50
 80064c8:	e7e6      	b.n	8006498 <HAL_RCCEx_PeriphCLKConfig+0x24>
 80064ca:	4aa4      	ldr	r2, [pc, #656]	; (800675c <HAL_RCCEx_PeriphCLKConfig+0x2e8>)
 80064cc:	6ad3      	ldr	r3, [r2, #44]	; 0x2c
 80064ce:	f443 3300 	orr.w	r3, r3, #131072	; 0x20000
 80064d2:	62d3      	str	r3, [r2, #44]	; 0x2c
 80064d4:	e7f0      	b.n	80064b8 <HAL_RCCEx_PeriphCLKConfig+0x44>
 80064d6:	2102      	movs	r1, #2
 80064d8:	3008      	adds	r0, #8
 80064da:	f7ff fedb 	bl	8006294 <RCCEx_PLL2_Config>
 80064de:	4606      	mov	r6, r0
 80064e0:	2800      	cmp	r0, #0
 80064e2:	d1d9      	bne.n	8006498 <HAL_RCCEx_PeriphCLKConfig+0x24>
 80064e4:	e7e8      	b.n	80064b8 <HAL_RCCEx_PeriphCLKConfig+0x44>
 80064e6:	2102      	movs	r1, #2
 80064e8:	3028      	adds	r0, #40	; 0x28
 80064ea:	f7ff ff4b 	bl	8006384 <RCCEx_PLL3_Config>
 80064ee:	e7f6      	b.n	80064de <HAL_RCCEx_PeriphCLKConfig+0x6a>
 80064f0:	4a9a      	ldr	r2, [pc, #616]	; (800675c <HAL_RCCEx_PeriphCLKConfig+0x2e8>)
 80064f2:	6ad3      	ldr	r3, [r2, #44]	; 0x2c
 80064f4:	f443 3300 	orr.w	r3, r3, #131072	; 0x20000
 80064f8:	62d3      	str	r3, [r2, #44]	; 0x2c
 80064fa:	4634      	mov	r4, r6
 80064fc:	e005      	b.n	800650a <HAL_RCCEx_PeriphCLKConfig+0x96>
 80064fe:	2100      	movs	r1, #0
 8006500:	f105 0008 	add.w	r0, r5, #8
 8006504:	f7ff fec6 	bl	8006294 <RCCEx_PLL2_Config>
 8006508:	4604      	mov	r4, r0
 800650a:	2c00      	cmp	r4, #0
 800650c:	f040 809e 	bne.w	800664c <HAL_RCCEx_PeriphCLKConfig+0x1d8>
 8006510:	4a92      	ldr	r2, [pc, #584]	; (800675c <HAL_RCCEx_PeriphCLKConfig+0x2e8>)
 8006512:	6da9      	ldr	r1, [r5, #88]	; 0x58
 8006514:	6d13      	ldr	r3, [r2, #80]	; 0x50
 8006516:	f023 0307 	bic.w	r3, r3, #7
 800651a:	430b      	orrs	r3, r1
 800651c:	6513      	str	r3, [r2, #80]	; 0x50
 800651e:	682b      	ldr	r3, [r5, #0]
 8006520:	059b      	lsls	r3, r3, #22
 8006522:	d50d      	bpl.n	8006540 <HAL_RCCEx_PeriphCLKConfig+0xcc>
 8006524:	6deb      	ldr	r3, [r5, #92]	; 0x5c
 8006526:	2b80      	cmp	r3, #128	; 0x80
 8006528:	f000 80b0 	beq.w	800668c <HAL_RCCEx_PeriphCLKConfig+0x218>
 800652c:	f200 8090 	bhi.w	8006650 <HAL_RCCEx_PeriphCLKConfig+0x1dc>
 8006530:	2b00      	cmp	r3, #0
 8006532:	f000 809e 	beq.w	8006672 <HAL_RCCEx_PeriphCLKConfig+0x1fe>
 8006536:	2b40      	cmp	r3, #64	; 0x40
 8006538:	f000 80a1 	beq.w	800667e <HAL_RCCEx_PeriphCLKConfig+0x20a>
 800653c:	2601      	movs	r6, #1
 800653e:	4634      	mov	r4, r6
 8006540:	682b      	ldr	r3, [r5, #0]
 8006542:	055f      	lsls	r7, r3, #21
 8006544:	d50f      	bpl.n	8006566 <HAL_RCCEx_PeriphCLKConfig+0xf2>
 8006546:	6e2b      	ldr	r3, [r5, #96]	; 0x60
 8006548:	f5b3 6f80 	cmp.w	r3, #1024	; 0x400
 800654c:	f000 80c5 	beq.w	80066da <HAL_RCCEx_PeriphCLKConfig+0x266>
 8006550:	f200 80a4 	bhi.w	800669c <HAL_RCCEx_PeriphCLKConfig+0x228>
 8006554:	2b00      	cmp	r3, #0
 8006556:	f000 80b3 	beq.w	80066c0 <HAL_RCCEx_PeriphCLKConfig+0x24c>
 800655a:	f5b3 7f00 	cmp.w	r3, #512	; 0x200
 800655e:	f000 80b5 	beq.w	80066cc <HAL_RCCEx_PeriphCLKConfig+0x258>
 8006562:	2601      	movs	r6, #1
 8006564:	4634      	mov	r4, r6
 8006566:	682b      	ldr	r3, [r5, #0]
 8006568:	0198      	lsls	r0, r3, #6
 800656a:	d50d      	bpl.n	8006588 <HAL_RCCEx_PeriphCLKConfig+0x114>
 800656c:	6ceb      	ldr	r3, [r5, #76]	; 0x4c
 800656e:	2b20      	cmp	r3, #32
 8006570:	f000 80cd 	beq.w	800670e <HAL_RCCEx_PeriphCLKConfig+0x29a>
 8006574:	f200 80b9 	bhi.w	80066ea <HAL_RCCEx_PeriphCLKConfig+0x276>
 8006578:	2b00      	cmp	r3, #0
 800657a:	f000 80b9 	beq.w	80066f0 <HAL_RCCEx_PeriphCLKConfig+0x27c>
 800657e:	2b10      	cmp	r3, #16
 8006580:	f000 80bf 	beq.w	8006702 <HAL_RCCEx_PeriphCLKConfig+0x28e>
 8006584:	2601      	movs	r6, #1
 8006586:	4634      	mov	r4, r6
 8006588:	682b      	ldr	r3, [r5, #0]
 800658a:	04d9      	lsls	r1, r3, #19
 800658c:	d50f      	bpl.n	80065ae <HAL_RCCEx_PeriphCLKConfig+0x13a>
 800658e:	6e6b      	ldr	r3, [r5, #100]	; 0x64
 8006590:	f5b3 5f00 	cmp.w	r3, #8192	; 0x2000
 8006594:	f000 80e4 	beq.w	8006760 <HAL_RCCEx_PeriphCLKConfig+0x2ec>
 8006598:	f200 80c2 	bhi.w	8006720 <HAL_RCCEx_PeriphCLKConfig+0x2ac>
 800659c:	2b00      	cmp	r3, #0
 800659e:	f000 80cf 	beq.w	8006740 <HAL_RCCEx_PeriphCLKConfig+0x2cc>
 80065a2:	f5b3 5f80 	cmp.w	r3, #4096	; 0x1000
 80065a6:	f000 80d1 	beq.w	800674c <HAL_RCCEx_PeriphCLKConfig+0x2d8>
 80065aa:	2601      	movs	r6, #1
 80065ac:	4634      	mov	r4, r6
 80065ae:	682b      	ldr	r3, [r5, #0]
 80065b0:	049a      	lsls	r2, r3, #18
 80065b2:	d50f      	bpl.n	80065d4 <HAL_RCCEx_PeriphCLKConfig+0x160>
 80065b4:	6eab      	ldr	r3, [r5, #104]	; 0x68
 80065b6:	f5b3 3f00 	cmp.w	r3, #131072	; 0x20000
 80065ba:	f000 80f2 	beq.w	80067a2 <HAL_RCCEx_PeriphCLKConfig+0x32e>
 80065be:	f200 80d7 	bhi.w	8006770 <HAL_RCCEx_PeriphCLKConfig+0x2fc>
 80065c2:	2b00      	cmp	r3, #0
 80065c4:	f000 80dd 	beq.w	8006782 <HAL_RCCEx_PeriphCLKConfig+0x30e>
 80065c8:	f5b3 3f80 	cmp.w	r3, #65536	; 0x10000
 80065cc:	f000 80e2 	beq.w	8006794 <HAL_RCCEx_PeriphCLKConfig+0x320>
 80065d0:	2601      	movs	r6, #1
 80065d2:	4634      	mov	r4, r6
 80065d4:	682b      	ldr	r3, [r5, #0]
 80065d6:	045b      	lsls	r3, r3, #17
 80065d8:	d510      	bpl.n	80065fc <HAL_RCCEx_PeriphCLKConfig+0x188>
 80065da:	f8d5 30b0 	ldr.w	r3, [r5, #176]	; 0xb0
 80065de:	f1b3 5f00 	cmp.w	r3, #536870912	; 0x20000000
 80065e2:	f000 8105 	beq.w	80067f0 <HAL_RCCEx_PeriphCLKConfig+0x37c>
 80065e6:	f200 80e4 	bhi.w	80067b2 <HAL_RCCEx_PeriphCLKConfig+0x33e>
 80065ea:	2b00      	cmp	r3, #0
 80065ec:	f000 80ec 	beq.w	80067c8 <HAL_RCCEx_PeriphCLKConfig+0x354>
 80065f0:	f1b3 5f80 	cmp.w	r3, #268435456	; 0x10000000
 80065f4:	f000 80f5 	beq.w	80067e2 <HAL_RCCEx_PeriphCLKConfig+0x36e>
 80065f8:	2601      	movs	r6, #1
 80065fa:	4634      	mov	r4, r6
 80065fc:	682b      	ldr	r3, [r5, #0]
 80065fe:	041f      	lsls	r7, r3, #16
 8006600:	d50d      	bpl.n	800661e <HAL_RCCEx_PeriphCLKConfig+0x1aa>
 8006602:	6fab      	ldr	r3, [r5, #120]	; 0x78
 8006604:	f1b3 5f80 	cmp.w	r3, #268435456	; 0x10000000
 8006608:	f000 80fa 	beq.w	8006800 <HAL_RCCEx_PeriphCLKConfig+0x38c>
 800660c:	f1b3 5f00 	cmp.w	r3, #536870912	; 0x20000000
 8006610:	f000 8104 	beq.w	800681c <HAL_RCCEx_PeriphCLKConfig+0x3a8>
 8006614:	2b00      	cmp	r3, #0
 8006616:	f000 80f8 	beq.w	800680a <HAL_RCCEx_PeriphCLKConfig+0x396>
 800661a:	2601      	movs	r6, #1
 800661c:	4634      	mov	r4, r6
 800661e:	682b      	ldr	r3, [r5, #0]
 8006620:	01d8      	lsls	r0, r3, #7
 8006622:	f140 8112 	bpl.w	800684a <HAL_RCCEx_PeriphCLKConfig+0x3d6>
 8006626:	6cab      	ldr	r3, [r5, #72]	; 0x48
 8006628:	2b03      	cmp	r3, #3
 800662a:	f200 8153 	bhi.w	80068d4 <HAL_RCCEx_PeriphCLKConfig+0x460>
 800662e:	e8df f013 	tbh	[pc, r3, lsl #1]
 8006632:	0103      	.short	0x0103
 8006634:	014a00fe 	.word	0x014a00fe
 8006638:	0103      	.short	0x0103
 800663a:	2100      	movs	r1, #0
 800663c:	f105 0028 	add.w	r0, r5, #40	; 0x28
 8006640:	f7ff fea0 	bl	8006384 <RCCEx_PLL3_Config>
 8006644:	e760      	b.n	8006508 <HAL_RCCEx_PeriphCLKConfig+0x94>
 8006646:	2601      	movs	r6, #1
 8006648:	4634      	mov	r4, r6
 800664a:	e768      	b.n	800651e <HAL_RCCEx_PeriphCLKConfig+0xaa>
 800664c:	4626      	mov	r6, r4
 800664e:	e766      	b.n	800651e <HAL_RCCEx_PeriphCLKConfig+0xaa>
 8006650:	f023 0240 	bic.w	r2, r3, #64	; 0x40
 8006654:	f5b2 7f80 	cmp.w	r2, #256	; 0x100
 8006658:	d002      	beq.n	8006660 <HAL_RCCEx_PeriphCLKConfig+0x1ec>
 800665a:	2bc0      	cmp	r3, #192	; 0xc0
 800665c:	f47f af6e 	bne.w	800653c <HAL_RCCEx_PeriphCLKConfig+0xc8>
 8006660:	b9d4      	cbnz	r4, 8006698 <HAL_RCCEx_PeriphCLKConfig+0x224>
 8006662:	4a3e      	ldr	r2, [pc, #248]	; (800675c <HAL_RCCEx_PeriphCLKConfig+0x2e8>)
 8006664:	6de9      	ldr	r1, [r5, #92]	; 0x5c
 8006666:	6d13      	ldr	r3, [r2, #80]	; 0x50
 8006668:	f423 73e0 	bic.w	r3, r3, #448	; 0x1c0
 800666c:	430b      	orrs	r3, r1
 800666e:	6513      	str	r3, [r2, #80]	; 0x50
 8006670:	e766      	b.n	8006540 <HAL_RCCEx_PeriphCLKConfig+0xcc>
 8006672:	4a3a      	ldr	r2, [pc, #232]	; (800675c <HAL_RCCEx_PeriphCLKConfig+0x2e8>)
 8006674:	6ad3      	ldr	r3, [r2, #44]	; 0x2c
 8006676:	f443 3300 	orr.w	r3, r3, #131072	; 0x20000
 800667a:	62d3      	str	r3, [r2, #44]	; 0x2c
 800667c:	e7f0      	b.n	8006660 <HAL_RCCEx_PeriphCLKConfig+0x1ec>
 800667e:	2100      	movs	r1, #0
 8006680:	f105 0008 	add.w	r0, r5, #8
 8006684:	f7ff fe06 	bl	8006294 <RCCEx_PLL2_Config>
 8006688:	4604      	mov	r4, r0
 800668a:	e7e9      	b.n	8006660 <HAL_RCCEx_PeriphCLKConfig+0x1ec>
 800668c:	2100      	movs	r1, #0
 800668e:	f105 0028 	add.w	r0, r5, #40	; 0x28
 8006692:	f7ff fe77 	bl	8006384 <RCCEx_PLL3_Config>
 8006696:	e7f7      	b.n	8006688 <HAL_RCCEx_PeriphCLKConfig+0x214>
 8006698:	4626      	mov	r6, r4
 800669a:	e751      	b.n	8006540 <HAL_RCCEx_PeriphCLKConfig+0xcc>
 800669c:	f423 7200 	bic.w	r2, r3, #512	; 0x200
 80066a0:	f5b2 6f00 	cmp.w	r2, #2048	; 0x800
 80066a4:	d003      	beq.n	80066ae <HAL_RCCEx_PeriphCLKConfig+0x23a>
 80066a6:	f5b3 6fc0 	cmp.w	r3, #1536	; 0x600
 80066aa:	f47f af5a 	bne.w	8006562 <HAL_RCCEx_PeriphCLKConfig+0xee>
 80066ae:	b9d4      	cbnz	r4, 80066e6 <HAL_RCCEx_PeriphCLKConfig+0x272>
 80066b0:	4a2a      	ldr	r2, [pc, #168]	; (800675c <HAL_RCCEx_PeriphCLKConfig+0x2e8>)
 80066b2:	6e29      	ldr	r1, [r5, #96]	; 0x60
 80066b4:	6d13      	ldr	r3, [r2, #80]	; 0x50
 80066b6:	f423 6360 	bic.w	r3, r3, #3584	; 0xe00
 80066ba:	430b      	orrs	r3, r1
 80066bc:	6513      	str	r3, [r2, #80]	; 0x50
 80066be:	e752      	b.n	8006566 <HAL_RCCEx_PeriphCLKConfig+0xf2>
 80066c0:	4a26      	ldr	r2, [pc, #152]	; (800675c <HAL_RCCEx_PeriphCLKConfig+0x2e8>)
 80066c2:	6ad3      	ldr	r3, [r2, #44]	; 0x2c
 80066c4:	f443 3300 	orr.w	r3, r3, #131072	; 0x20000
 80066c8:	62d3      	str	r3, [r2, #44]	; 0x2c
 80066ca:	e7f0      	b.n	80066ae <HAL_RCCEx_PeriphCLKConfig+0x23a>
 80066cc:	2100      	movs	r1, #0
 80066ce:	f105 0008 	add.w	r0, r5, #8
 80066d2:	f7ff fddf 	bl	8006294 <RCCEx_PLL2_Config>
 80066d6:	4604      	mov	r4, r0
 80066d8:	e7e9      	b.n	80066ae <HAL_RCCEx_PeriphCLKConfig+0x23a>
 80066da:	2100      	movs	r1, #0
 80066dc:	f105 0028 	add.w	r0, r5, #40	; 0x28
 80066e0:	f7ff fe50 	bl	8006384 <RCCEx_PLL3_Config>
 80066e4:	e7f7      	b.n	80066d6 <HAL_RCCEx_PeriphCLKConfig+0x262>
 80066e6:	4626      	mov	r6, r4
 80066e8:	e73d      	b.n	8006566 <HAL_RCCEx_PeriphCLKConfig+0xf2>
 80066ea:	2b30      	cmp	r3, #48	; 0x30
 80066ec:	f47f af4a 	bne.w	8006584 <HAL_RCCEx_PeriphCLKConfig+0x110>
 80066f0:	b9a4      	cbnz	r4, 800671c <HAL_RCCEx_PeriphCLKConfig+0x2a8>
 80066f2:	4a1a      	ldr	r2, [pc, #104]	; (800675c <HAL_RCCEx_PeriphCLKConfig+0x2e8>)
 80066f4:	6ce9      	ldr	r1, [r5, #76]	; 0x4c
 80066f6:	6cd3      	ldr	r3, [r2, #76]	; 0x4c
 80066f8:	f023 0330 	bic.w	r3, r3, #48	; 0x30
 80066fc:	430b      	orrs	r3, r1
 80066fe:	64d3      	str	r3, [r2, #76]	; 0x4c
 8006700:	e742      	b.n	8006588 <HAL_RCCEx_PeriphCLKConfig+0x114>
 8006702:	4a16      	ldr	r2, [pc, #88]	; (800675c <HAL_RCCEx_PeriphCLKConfig+0x2e8>)
 8006704:	6ad3      	ldr	r3, [r2, #44]	; 0x2c
 8006706:	f443 3300 	orr.w	r3, r3, #131072	; 0x20000
 800670a:	62d3      	str	r3, [r2, #44]	; 0x2c
 800670c:	e7f0      	b.n	80066f0 <HAL_RCCEx_PeriphCLKConfig+0x27c>
 800670e:	2102      	movs	r1, #2
 8006710:	f105 0008 	add.w	r0, r5, #8
 8006714:	f7ff fdbe 	bl	8006294 <RCCEx_PLL2_Config>
 8006718:	4604      	mov	r4, r0
 800671a:	e7e9      	b.n	80066f0 <HAL_RCCEx_PeriphCLKConfig+0x27c>
 800671c:	4626      	mov	r6, r4
 800671e:	e733      	b.n	8006588 <HAL_RCCEx_PeriphCLKConfig+0x114>
 8006720:	f5b3 5f40 	cmp.w	r3, #12288	; 0x3000
 8006724:	d003      	beq.n	800672e <HAL_RCCEx_PeriphCLKConfig+0x2ba>
 8006726:	f5b3 4f80 	cmp.w	r3, #16384	; 0x4000
 800672a:	f47f af3e 	bne.w	80065aa <HAL_RCCEx_PeriphCLKConfig+0x136>
 800672e:	b9ec      	cbnz	r4, 800676c <HAL_RCCEx_PeriphCLKConfig+0x2f8>
 8006730:	4a0a      	ldr	r2, [pc, #40]	; (800675c <HAL_RCCEx_PeriphCLKConfig+0x2e8>)
 8006732:	6e69      	ldr	r1, [r5, #100]	; 0x64
 8006734:	6d13      	ldr	r3, [r2, #80]	; 0x50
 8006736:	f423 43e0 	bic.w	r3, r3, #28672	; 0x7000
 800673a:	430b      	orrs	r3, r1
 800673c:	6513      	str	r3, [r2, #80]	; 0x50
 800673e:	e736      	b.n	80065ae <HAL_RCCEx_PeriphCLKConfig+0x13a>
 8006740:	4a06      	ldr	r2, [pc, #24]	; (800675c <HAL_RCCEx_PeriphCLKConfig+0x2e8>)
 8006742:	6ad3      	ldr	r3, [r2, #44]	; 0x2c
 8006744:	f443 3300 	orr.w	r3, r3, #131072	; 0x20000
 8006748:	62d3      	str	r3, [r2, #44]	; 0x2c
 800674a:	e7f0      	b.n	800672e <HAL_RCCEx_PeriphCLKConfig+0x2ba>
 800674c:	2100      	movs	r1, #0
 800674e:	f105 0008 	add.w	r0, r5, #8
 8006752:	f7ff fd9f 	bl	8006294 <RCCEx_PLL2_Config>
 8006756:	4604      	mov	r4, r0
 8006758:	e7e9      	b.n	800672e <HAL_RCCEx_PeriphCLKConfig+0x2ba>
 800675a:	bf00      	nop
 800675c:	58024400 	.word	0x58024400
 8006760:	2100      	movs	r1, #0
 8006762:	f105 0028 	add.w	r0, r5, #40	; 0x28
 8006766:	f7ff fe0d 	bl	8006384 <RCCEx_PLL3_Config>
 800676a:	e7f4      	b.n	8006756 <HAL_RCCEx_PeriphCLKConfig+0x2e2>
 800676c:	4626      	mov	r6, r4
 800676e:	e71e      	b.n	80065ae <HAL_RCCEx_PeriphCLKConfig+0x13a>
 8006770:	f423 3280 	bic.w	r2, r3, #65536	; 0x10000
 8006774:	f5b2 2f80 	cmp.w	r2, #262144	; 0x40000
 8006778:	d003      	beq.n	8006782 <HAL_RCCEx_PeriphCLKConfig+0x30e>
 800677a:	f5b3 3f40 	cmp.w	r3, #196608	; 0x30000
 800677e:	f47f af27 	bne.w	80065d0 <HAL_RCCEx_PeriphCLKConfig+0x15c>
 8006782:	b9a4      	cbnz	r4, 80067ae <HAL_RCCEx_PeriphCLKConfig+0x33a>
 8006784:	4a96      	ldr	r2, [pc, #600]	; (80069e0 <HAL_RCCEx_PeriphCLKConfig+0x56c>)
 8006786:	6ea9      	ldr	r1, [r5, #104]	; 0x68
 8006788:	6d13      	ldr	r3, [r2, #80]	; 0x50
 800678a:	f423 23e0 	bic.w	r3, r3, #458752	; 0x70000
 800678e:	430b      	orrs	r3, r1
 8006790:	6513      	str	r3, [r2, #80]	; 0x50
 8006792:	e71f      	b.n	80065d4 <HAL_RCCEx_PeriphCLKConfig+0x160>
 8006794:	2101      	movs	r1, #1
 8006796:	f105 0008 	add.w	r0, r5, #8
 800679a:	f7ff fd7b 	bl	8006294 <RCCEx_PLL2_Config>
 800679e:	4604      	mov	r4, r0
 80067a0:	e7ef      	b.n	8006782 <HAL_RCCEx_PeriphCLKConfig+0x30e>
 80067a2:	2101      	movs	r1, #1
 80067a4:	f105 0028 	add.w	r0, r5, #40	; 0x28
 80067a8:	f7ff fdec 	bl	8006384 <RCCEx_PLL3_Config>
 80067ac:	e7f7      	b.n	800679e <HAL_RCCEx_PeriphCLKConfig+0x32a>
 80067ae:	4626      	mov	r6, r4
 80067b0:	e710      	b.n	80065d4 <HAL_RCCEx_PeriphCLKConfig+0x160>
 80067b2:	f1b3 4fa0 	cmp.w	r3, #1342177280	; 0x50000000
 80067b6:	d007      	beq.n	80067c8 <HAL_RCCEx_PeriphCLKConfig+0x354>
 80067b8:	d810      	bhi.n	80067dc <HAL_RCCEx_PeriphCLKConfig+0x368>
 80067ba:	f1b3 5f40 	cmp.w	r3, #805306368	; 0x30000000
 80067be:	d003      	beq.n	80067c8 <HAL_RCCEx_PeriphCLKConfig+0x354>
 80067c0:	f1b3 4f80 	cmp.w	r3, #1073741824	; 0x40000000
 80067c4:	f47f af18 	bne.w	80065f8 <HAL_RCCEx_PeriphCLKConfig+0x184>
 80067c8:	b9c4      	cbnz	r4, 80067fc <HAL_RCCEx_PeriphCLKConfig+0x388>
 80067ca:	4a85      	ldr	r2, [pc, #532]	; (80069e0 <HAL_RCCEx_PeriphCLKConfig+0x56c>)
 80067cc:	f8d5 10b0 	ldr.w	r1, [r5, #176]	; 0xb0
 80067d0:	6d93      	ldr	r3, [r2, #88]	; 0x58
 80067d2:	f023 43e0 	bic.w	r3, r3, #1879048192	; 0x70000000
 80067d6:	430b      	orrs	r3, r1
 80067d8:	6593      	str	r3, [r2, #88]	; 0x58
 80067da:	e70f      	b.n	80065fc <HAL_RCCEx_PeriphCLKConfig+0x188>
 80067dc:	f1b3 4fc0 	cmp.w	r3, #1610612736	; 0x60000000
 80067e0:	e7f0      	b.n	80067c4 <HAL_RCCEx_PeriphCLKConfig+0x350>
 80067e2:	2101      	movs	r1, #1
 80067e4:	f105 0008 	add.w	r0, r5, #8
 80067e8:	f7ff fd54 	bl	8006294 <RCCEx_PLL2_Config>
 80067ec:	4604      	mov	r4, r0
 80067ee:	e7eb      	b.n	80067c8 <HAL_RCCEx_PeriphCLKConfig+0x354>
 80067f0:	2101      	movs	r1, #1
 80067f2:	f105 0028 	add.w	r0, r5, #40	; 0x28
 80067f6:	f7ff fdc5 	bl	8006384 <RCCEx_PLL3_Config>
 80067fa:	e7f7      	b.n	80067ec <HAL_RCCEx_PeriphCLKConfig+0x378>
 80067fc:	4626      	mov	r6, r4
 80067fe:	e6fd      	b.n	80065fc <HAL_RCCEx_PeriphCLKConfig+0x188>
 8006800:	4a77      	ldr	r2, [pc, #476]	; (80069e0 <HAL_RCCEx_PeriphCLKConfig+0x56c>)
 8006802:	6ad3      	ldr	r3, [r2, #44]	; 0x2c
 8006804:	f443 3300 	orr.w	r3, r3, #131072	; 0x20000
 8006808:	62d3      	str	r3, [r2, #44]	; 0x2c
 800680a:	b974      	cbnz	r4, 800682a <HAL_RCCEx_PeriphCLKConfig+0x3b6>
 800680c:	4a74      	ldr	r2, [pc, #464]	; (80069e0 <HAL_RCCEx_PeriphCLKConfig+0x56c>)
 800680e:	6fa9      	ldr	r1, [r5, #120]	; 0x78
 8006810:	6d13      	ldr	r3, [r2, #80]	; 0x50
 8006812:	f023 5340 	bic.w	r3, r3, #805306368	; 0x30000000
 8006816:	430b      	orrs	r3, r1
 8006818:	6513      	str	r3, [r2, #80]	; 0x50
 800681a:	e700      	b.n	800661e <HAL_RCCEx_PeriphCLKConfig+0x1aa>
 800681c:	2101      	movs	r1, #1
 800681e:	f105 0008 	add.w	r0, r5, #8
 8006822:	f7ff fd37 	bl	8006294 <RCCEx_PLL2_Config>
 8006826:	4604      	mov	r4, r0
 8006828:	e7ef      	b.n	800680a <HAL_RCCEx_PeriphCLKConfig+0x396>
 800682a:	4626      	mov	r6, r4
 800682c:	e6f7      	b.n	800661e <HAL_RCCEx_PeriphCLKConfig+0x1aa>
 800682e:	4a6c      	ldr	r2, [pc, #432]	; (80069e0 <HAL_RCCEx_PeriphCLKConfig+0x56c>)
 8006830:	6ad3      	ldr	r3, [r2, #44]	; 0x2c
 8006832:	f443 3300 	orr.w	r3, r3, #131072	; 0x20000
 8006836:	62d3      	str	r3, [r2, #44]	; 0x2c
 8006838:	2c00      	cmp	r4, #0
 800683a:	d14e      	bne.n	80068da <HAL_RCCEx_PeriphCLKConfig+0x466>
 800683c:	4a68      	ldr	r2, [pc, #416]	; (80069e0 <HAL_RCCEx_PeriphCLKConfig+0x56c>)
 800683e:	6ca9      	ldr	r1, [r5, #72]	; 0x48
 8006840:	6cd3      	ldr	r3, [r2, #76]	; 0x4c
 8006842:	f023 0303 	bic.w	r3, r3, #3
 8006846:	430b      	orrs	r3, r1
 8006848:	64d3      	str	r3, [r2, #76]	; 0x4c
 800684a:	682b      	ldr	r3, [r5, #0]
 800684c:	0259      	lsls	r1, r3, #9
 800684e:	d54e      	bpl.n	80068ee <HAL_RCCEx_PeriphCLKConfig+0x47a>
 8006850:	4f64      	ldr	r7, [pc, #400]	; (80069e4 <HAL_RCCEx_PeriphCLKConfig+0x570>)
 8006852:	683b      	ldr	r3, [r7, #0]
 8006854:	f443 7380 	orr.w	r3, r3, #256	; 0x100
 8006858:	603b      	str	r3, [r7, #0]
 800685a:	f7fc f927 	bl	8002aac <HAL_GetTick>
 800685e:	4680      	mov	r8, r0
 8006860:	683b      	ldr	r3, [r7, #0]
 8006862:	05da      	lsls	r2, r3, #23
 8006864:	d53b      	bpl.n	80068de <HAL_RCCEx_PeriphCLKConfig+0x46a>
 8006866:	2c00      	cmp	r4, #0
 8006868:	d16f      	bne.n	800694a <HAL_RCCEx_PeriphCLKConfig+0x4d6>
 800686a:	4b5d      	ldr	r3, [pc, #372]	; (80069e0 <HAL_RCCEx_PeriphCLKConfig+0x56c>)
 800686c:	f8d5 00b4 	ldr.w	r0, [r5, #180]	; 0xb4
 8006870:	6f1a      	ldr	r2, [r3, #112]	; 0x70
 8006872:	4042      	eors	r2, r0
 8006874:	f412 7f40 	tst.w	r2, #768	; 0x300
 8006878:	d00b      	beq.n	8006892 <HAL_RCCEx_PeriphCLKConfig+0x41e>
 800687a:	6f1a      	ldr	r2, [r3, #112]	; 0x70
 800687c:	6f19      	ldr	r1, [r3, #112]	; 0x70
 800687e:	f422 7240 	bic.w	r2, r2, #768	; 0x300
 8006882:	f441 3180 	orr.w	r1, r1, #65536	; 0x10000
 8006886:	6719      	str	r1, [r3, #112]	; 0x70
 8006888:	6f19      	ldr	r1, [r3, #112]	; 0x70
 800688a:	f421 3180 	bic.w	r1, r1, #65536	; 0x10000
 800688e:	6719      	str	r1, [r3, #112]	; 0x70
 8006890:	671a      	str	r2, [r3, #112]	; 0x70
 8006892:	f5b0 7f80 	cmp.w	r0, #256	; 0x100
 8006896:	d043      	beq.n	8006920 <HAL_RCCEx_PeriphCLKConfig+0x4ac>
 8006898:	f8d5 30b4 	ldr.w	r3, [r5, #180]	; 0xb4
 800689c:	4950      	ldr	r1, [pc, #320]	; (80069e0 <HAL_RCCEx_PeriphCLKConfig+0x56c>)
 800689e:	f403 7240 	and.w	r2, r3, #768	; 0x300
 80068a2:	f5b2 7f40 	cmp.w	r2, #768	; 0x300
 80068a6:	d14c      	bne.n	8006942 <HAL_RCCEx_PeriphCLKConfig+0x4ce>
 80068a8:	6908      	ldr	r0, [r1, #16]
 80068aa:	4a4f      	ldr	r2, [pc, #316]	; (80069e8 <HAL_RCCEx_PeriphCLKConfig+0x574>)
 80068ac:	f420 507c 	bic.w	r0, r0, #16128	; 0x3f00
 80068b0:	ea02 1213 	and.w	r2, r2, r3, lsr #4
 80068b4:	4302      	orrs	r2, r0
 80068b6:	610a      	str	r2, [r1, #16]
 80068b8:	f3c3 030b 	ubfx	r3, r3, #0, #12
 80068bc:	4a48      	ldr	r2, [pc, #288]	; (80069e0 <HAL_RCCEx_PeriphCLKConfig+0x56c>)
 80068be:	6f11      	ldr	r1, [r2, #112]	; 0x70
 80068c0:	430b      	orrs	r3, r1
 80068c2:	6713      	str	r3, [r2, #112]	; 0x70
 80068c4:	e013      	b.n	80068ee <HAL_RCCEx_PeriphCLKConfig+0x47a>
 80068c6:	2102      	movs	r1, #2
 80068c8:	f105 0008 	add.w	r0, r5, #8
 80068cc:	f7ff fce2 	bl	8006294 <RCCEx_PLL2_Config>
 80068d0:	4604      	mov	r4, r0
 80068d2:	e7b1      	b.n	8006838 <HAL_RCCEx_PeriphCLKConfig+0x3c4>
 80068d4:	2601      	movs	r6, #1
 80068d6:	4634      	mov	r4, r6
 80068d8:	e7b7      	b.n	800684a <HAL_RCCEx_PeriphCLKConfig+0x3d6>
 80068da:	4626      	mov	r6, r4
 80068dc:	e7b5      	b.n	800684a <HAL_RCCEx_PeriphCLKConfig+0x3d6>
 80068de:	f7fc f8e5 	bl	8002aac <HAL_GetTick>
 80068e2:	eba0 0008 	sub.w	r0, r0, r8
 80068e6:	2864      	cmp	r0, #100	; 0x64
 80068e8:	d9ba      	bls.n	8006860 <HAL_RCCEx_PeriphCLKConfig+0x3ec>
 80068ea:	2603      	movs	r6, #3
 80068ec:	4634      	mov	r4, r6
 80068ee:	682b      	ldr	r3, [r5, #0]
 80068f0:	07d8      	lsls	r0, r3, #31
 80068f2:	d509      	bpl.n	8006908 <HAL_RCCEx_PeriphCLKConfig+0x494>
 80068f4:	f8d5 3084 	ldr.w	r3, [r5, #132]	; 0x84
 80068f8:	2b10      	cmp	r3, #16
 80068fa:	d03f      	beq.n	800697c <HAL_RCCEx_PeriphCLKConfig+0x508>
 80068fc:	d827      	bhi.n	800694e <HAL_RCCEx_PeriphCLKConfig+0x4da>
 80068fe:	b363      	cbz	r3, 800695a <HAL_RCCEx_PeriphCLKConfig+0x4e6>
 8006900:	2b08      	cmp	r3, #8
 8006902:	d034      	beq.n	800696e <HAL_RCCEx_PeriphCLKConfig+0x4fa>
 8006904:	2601      	movs	r6, #1
 8006906:	4634      	mov	r4, r6
 8006908:	682b      	ldr	r3, [r5, #0]
 800690a:	0799      	lsls	r1, r3, #30
 800690c:	d54d      	bpl.n	80069aa <HAL_RCCEx_PeriphCLKConfig+0x536>
 800690e:	f8d5 3080 	ldr.w	r3, [r5, #128]	; 0x80
 8006912:	2b05      	cmp	r3, #5
 8006914:	d85f      	bhi.n	80069d6 <HAL_RCCEx_PeriphCLKConfig+0x562>
 8006916:	e8df f003 	tbb	[pc, r3]
 800691a:	393f      	.short	0x393f
 800691c:	3f3f3f58 	.word	0x3f3f3f58
 8006920:	f7fc f8c4 	bl	8002aac <HAL_GetTick>
 8006924:	f8df 80b8 	ldr.w	r8, [pc, #184]	; 80069e0 <HAL_RCCEx_PeriphCLKConfig+0x56c>
 8006928:	4607      	mov	r7, r0
 800692a:	f241 3988 	movw	r9, #5000	; 0x1388
 800692e:	f8d8 3070 	ldr.w	r3, [r8, #112]	; 0x70
 8006932:	079b      	lsls	r3, r3, #30
 8006934:	d4b0      	bmi.n	8006898 <HAL_RCCEx_PeriphCLKConfig+0x424>
 8006936:	f7fc f8b9 	bl	8002aac <HAL_GetTick>
 800693a:	1bc0      	subs	r0, r0, r7
 800693c:	4548      	cmp	r0, r9
 800693e:	d9f6      	bls.n	800692e <HAL_RCCEx_PeriphCLKConfig+0x4ba>
 8006940:	e7d3      	b.n	80068ea <HAL_RCCEx_PeriphCLKConfig+0x476>
 8006942:	690a      	ldr	r2, [r1, #16]
 8006944:	f422 527c 	bic.w	r2, r2, #16128	; 0x3f00
 8006948:	e7b5      	b.n	80068b6 <HAL_RCCEx_PeriphCLKConfig+0x442>
 800694a:	4626      	mov	r6, r4
 800694c:	e7cf      	b.n	80068ee <HAL_RCCEx_PeriphCLKConfig+0x47a>
 800694e:	f023 0208 	bic.w	r2, r3, #8
 8006952:	2a20      	cmp	r2, #32
 8006954:	d001      	beq.n	800695a <HAL_RCCEx_PeriphCLKConfig+0x4e6>
 8006956:	2b18      	cmp	r3, #24
 8006958:	d1d4      	bne.n	8006904 <HAL_RCCEx_PeriphCLKConfig+0x490>
 800695a:	b9ac      	cbnz	r4, 8006988 <HAL_RCCEx_PeriphCLKConfig+0x514>
 800695c:	4a20      	ldr	r2, [pc, #128]	; (80069e0 <HAL_RCCEx_PeriphCLKConfig+0x56c>)
 800695e:	f8d5 1084 	ldr.w	r1, [r5, #132]	; 0x84
 8006962:	6d53      	ldr	r3, [r2, #84]	; 0x54
 8006964:	f023 0338 	bic.w	r3, r3, #56	; 0x38
 8006968:	430b      	orrs	r3, r1
 800696a:	6553      	str	r3, [r2, #84]	; 0x54
 800696c:	e7cc      	b.n	8006908 <HAL_RCCEx_PeriphCLKConfig+0x494>
 800696e:	2101      	movs	r1, #1
 8006970:	f105 0008 	add.w	r0, r5, #8
 8006974:	f7ff fc8e 	bl	8006294 <RCCEx_PLL2_Config>
 8006978:	4604      	mov	r4, r0
 800697a:	e7ee      	b.n	800695a <HAL_RCCEx_PeriphCLKConfig+0x4e6>
 800697c:	2101      	movs	r1, #1
 800697e:	f105 0028 	add.w	r0, r5, #40	; 0x28
 8006982:	f7ff fcff 	bl	8006384 <RCCEx_PLL3_Config>
 8006986:	e7f7      	b.n	8006978 <HAL_RCCEx_PeriphCLKConfig+0x504>
 8006988:	4626      	mov	r6, r4
 800698a:	e7bd      	b.n	8006908 <HAL_RCCEx_PeriphCLKConfig+0x494>
 800698c:	2101      	movs	r1, #1
 800698e:	f105 0008 	add.w	r0, r5, #8
 8006992:	f7ff fc7f 	bl	8006294 <RCCEx_PLL2_Config>
 8006996:	4604      	mov	r4, r0
 8006998:	bb04      	cbnz	r4, 80069dc <HAL_RCCEx_PeriphCLKConfig+0x568>
 800699a:	4a11      	ldr	r2, [pc, #68]	; (80069e0 <HAL_RCCEx_PeriphCLKConfig+0x56c>)
 800699c:	f8d5 1080 	ldr.w	r1, [r5, #128]	; 0x80
 80069a0:	6d53      	ldr	r3, [r2, #84]	; 0x54
 80069a2:	f023 0307 	bic.w	r3, r3, #7
 80069a6:	430b      	orrs	r3, r1
 80069a8:	6553      	str	r3, [r2, #84]	; 0x54
 80069aa:	682b      	ldr	r3, [r5, #0]
 80069ac:	075a      	lsls	r2, r3, #29
 80069ae:	d52e      	bpl.n	8006a0e <HAL_RCCEx_PeriphCLKConfig+0x59a>
 80069b0:	f8d5 309c 	ldr.w	r3, [r5, #156]	; 0x9c
 80069b4:	2b05      	cmp	r3, #5
 80069b6:	f200 817f 	bhi.w	8006cb8 <HAL_RCCEx_PeriphCLKConfig+0x844>
 80069ba:	e8df f013 	tbh	[pc, r3, lsl #1]
 80069be:	001d      	.short	0x001d
 80069c0:	01770017 	.word	0x01770017
 80069c4:	001d001d 	.word	0x001d001d
 80069c8:	001d      	.short	0x001d
 80069ca:	2101      	movs	r1, #1
 80069cc:	f105 0028 	add.w	r0, r5, #40	; 0x28
 80069d0:	f7ff fcd8 	bl	8006384 <RCCEx_PLL3_Config>
 80069d4:	e7df      	b.n	8006996 <HAL_RCCEx_PeriphCLKConfig+0x522>
 80069d6:	2601      	movs	r6, #1
 80069d8:	4634      	mov	r4, r6
 80069da:	e7e6      	b.n	80069aa <HAL_RCCEx_PeriphCLKConfig+0x536>
 80069dc:	4626      	mov	r6, r4
 80069de:	e7e4      	b.n	80069aa <HAL_RCCEx_PeriphCLKConfig+0x536>
 80069e0:	58024400 	.word	0x58024400
 80069e4:	58024800 	.word	0x58024800
 80069e8:	00ffffcf 	.word	0x00ffffcf
 80069ec:	2101      	movs	r1, #1
 80069ee:	f105 0008 	add.w	r0, r5, #8
 80069f2:	f7ff fc4f 	bl	8006294 <RCCEx_PLL2_Config>
 80069f6:	4604      	mov	r4, r0
 80069f8:	2c00      	cmp	r4, #0
 80069fa:	f040 8160 	bne.w	8006cbe <HAL_RCCEx_PeriphCLKConfig+0x84a>
 80069fe:	4aaa      	ldr	r2, [pc, #680]	; (8006ca8 <HAL_RCCEx_PeriphCLKConfig+0x834>)
 8006a00:	f8d5 109c 	ldr.w	r1, [r5, #156]	; 0x9c
 8006a04:	6d93      	ldr	r3, [r2, #88]	; 0x58
 8006a06:	f023 0307 	bic.w	r3, r3, #7
 8006a0a:	430b      	orrs	r3, r1
 8006a0c:	6593      	str	r3, [r2, #88]	; 0x58
 8006a0e:	682b      	ldr	r3, [r5, #0]
 8006a10:	069b      	lsls	r3, r3, #26
 8006a12:	d510      	bpl.n	8006a36 <HAL_RCCEx_PeriphCLKConfig+0x5c2>
 8006a14:	f8d5 3098 	ldr.w	r3, [r5, #152]	; 0x98
 8006a18:	f1b3 5f00 	cmp.w	r3, #536870912	; 0x20000000
 8006a1c:	f000 816b 	beq.w	8006cf6 <HAL_RCCEx_PeriphCLKConfig+0x882>
 8006a20:	f200 814f 	bhi.w	8006cc2 <HAL_RCCEx_PeriphCLKConfig+0x84e>
 8006a24:	2b00      	cmp	r3, #0
 8006a26:	f000 8155 	beq.w	8006cd4 <HAL_RCCEx_PeriphCLKConfig+0x860>
 8006a2a:	f1b3 5f80 	cmp.w	r3, #268435456	; 0x10000000
 8006a2e:	f000 815b 	beq.w	8006ce8 <HAL_RCCEx_PeriphCLKConfig+0x874>
 8006a32:	2601      	movs	r6, #1
 8006a34:	4634      	mov	r4, r6
 8006a36:	682b      	ldr	r3, [r5, #0]
 8006a38:	065f      	lsls	r7, r3, #25
 8006a3a:	d510      	bpl.n	8006a5e <HAL_RCCEx_PeriphCLKConfig+0x5ea>
 8006a3c:	f8d5 30a4 	ldr.w	r3, [r5, #164]	; 0xa4
 8006a40:	f5b3 6f00 	cmp.w	r3, #2048	; 0x800
 8006a44:	f000 8179 	beq.w	8006d3a <HAL_RCCEx_PeriphCLKConfig+0x8c6>
 8006a48:	f200 815d 	bhi.w	8006d06 <HAL_RCCEx_PeriphCLKConfig+0x892>
 8006a4c:	2b00      	cmp	r3, #0
 8006a4e:	f000 8163 	beq.w	8006d18 <HAL_RCCEx_PeriphCLKConfig+0x8a4>
 8006a52:	f5b3 6f80 	cmp.w	r3, #1024	; 0x400
 8006a56:	f000 8169 	beq.w	8006d2c <HAL_RCCEx_PeriphCLKConfig+0x8b8>
 8006a5a:	2601      	movs	r6, #1
 8006a5c:	4634      	mov	r4, r6
 8006a5e:	682b      	ldr	r3, [r5, #0]
 8006a60:	0618      	lsls	r0, r3, #24
 8006a62:	d510      	bpl.n	8006a86 <HAL_RCCEx_PeriphCLKConfig+0x612>
 8006a64:	f8d5 30a8 	ldr.w	r3, [r5, #168]	; 0xa8
 8006a68:	f5b3 4f80 	cmp.w	r3, #16384	; 0x4000
 8006a6c:	f000 8187 	beq.w	8006d7e <HAL_RCCEx_PeriphCLKConfig+0x90a>
 8006a70:	f200 816b 	bhi.w	8006d4a <HAL_RCCEx_PeriphCLKConfig+0x8d6>
 8006a74:	2b00      	cmp	r3, #0
 8006a76:	f000 8171 	beq.w	8006d5c <HAL_RCCEx_PeriphCLKConfig+0x8e8>
 8006a7a:	f5b3 5f00 	cmp.w	r3, #8192	; 0x2000
 8006a7e:	f000 8177 	beq.w	8006d70 <HAL_RCCEx_PeriphCLKConfig+0x8fc>
 8006a82:	2601      	movs	r6, #1
 8006a84:	4634      	mov	r4, r6
 8006a86:	682b      	ldr	r3, [r5, #0]
 8006a88:	0719      	lsls	r1, r3, #28
 8006a8a:	d514      	bpl.n	8006ab6 <HAL_RCCEx_PeriphCLKConfig+0x642>
 8006a8c:	f8d5 308c 	ldr.w	r3, [r5, #140]	; 0x8c
 8006a90:	f5b3 5f80 	cmp.w	r3, #4096	; 0x1000
 8006a94:	d107      	bne.n	8006aa6 <HAL_RCCEx_PeriphCLKConfig+0x632>
 8006a96:	2102      	movs	r1, #2
 8006a98:	f105 0028 	add.w	r0, r5, #40	; 0x28
 8006a9c:	f7ff fc72 	bl	8006384 <RCCEx_PLL3_Config>
 8006aa0:	2800      	cmp	r0, #0
 8006aa2:	bf18      	it	ne
 8006aa4:	2601      	movne	r6, #1
 8006aa6:	4a80      	ldr	r2, [pc, #512]	; (8006ca8 <HAL_RCCEx_PeriphCLKConfig+0x834>)
 8006aa8:	f8d5 108c 	ldr.w	r1, [r5, #140]	; 0x8c
 8006aac:	6d53      	ldr	r3, [r2, #84]	; 0x54
 8006aae:	f423 5340 	bic.w	r3, r3, #12288	; 0x3000
 8006ab2:	430b      	orrs	r3, r1
 8006ab4:	6553      	str	r3, [r2, #84]	; 0x54
 8006ab6:	682b      	ldr	r3, [r5, #0]
 8006ab8:	06da      	lsls	r2, r3, #27
 8006aba:	d514      	bpl.n	8006ae6 <HAL_RCCEx_PeriphCLKConfig+0x672>
 8006abc:	f8d5 30a0 	ldr.w	r3, [r5, #160]	; 0xa0
 8006ac0:	f5b3 7f80 	cmp.w	r3, #256	; 0x100
 8006ac4:	d107      	bne.n	8006ad6 <HAL_RCCEx_PeriphCLKConfig+0x662>
 8006ac6:	2102      	movs	r1, #2
 8006ac8:	f105 0028 	add.w	r0, r5, #40	; 0x28
 8006acc:	f7ff fc5a 	bl	8006384 <RCCEx_PLL3_Config>
 8006ad0:	2800      	cmp	r0, #0
 8006ad2:	bf18      	it	ne
 8006ad4:	2601      	movne	r6, #1
 8006ad6:	4a74      	ldr	r2, [pc, #464]	; (8006ca8 <HAL_RCCEx_PeriphCLKConfig+0x834>)
 8006ad8:	f8d5 10a0 	ldr.w	r1, [r5, #160]	; 0xa0
 8006adc:	6d93      	ldr	r3, [r2, #88]	; 0x58
 8006ade:	f423 7340 	bic.w	r3, r3, #768	; 0x300
 8006ae2:	430b      	orrs	r3, r1
 8006ae4:	6593      	str	r3, [r2, #88]	; 0x58
 8006ae6:	682b      	ldr	r3, [r5, #0]
 8006ae8:	031b      	lsls	r3, r3, #12
 8006aea:	d51b      	bpl.n	8006b24 <HAL_RCCEx_PeriphCLKConfig+0x6b0>
 8006aec:	f8d5 10ac 	ldr.w	r1, [r5, #172]	; 0xac
 8006af0:	f5b1 3f80 	cmp.w	r1, #65536	; 0x10000
 8006af4:	f000 814b 	beq.w	8006d8e <HAL_RCCEx_PeriphCLKConfig+0x91a>
 8006af8:	f5b1 3f00 	cmp.w	r1, #131072	; 0x20000
 8006afc:	d007      	beq.n	8006b0e <HAL_RCCEx_PeriphCLKConfig+0x69a>
 8006afe:	2900      	cmp	r1, #0
 8006b00:	f040 814b 	bne.w	8006d9a <HAL_RCCEx_PeriphCLKConfig+0x926>
 8006b04:	f105 0008 	add.w	r0, r5, #8
 8006b08:	f7ff fbc4 	bl	8006294 <RCCEx_PLL2_Config>
 8006b0c:	4604      	mov	r4, r0
 8006b0e:	2c00      	cmp	r4, #0
 8006b10:	f040 8146 	bne.w	8006da0 <HAL_RCCEx_PeriphCLKConfig+0x92c>
 8006b14:	4a64      	ldr	r2, [pc, #400]	; (8006ca8 <HAL_RCCEx_PeriphCLKConfig+0x834>)
 8006b16:	f8d5 10ac 	ldr.w	r1, [r5, #172]	; 0xac
 8006b1a:	6d93      	ldr	r3, [r2, #88]	; 0x58
 8006b1c:	f423 3340 	bic.w	r3, r3, #196608	; 0x30000
 8006b20:	430b      	orrs	r3, r1
 8006b22:	6593      	str	r3, [r2, #88]	; 0x58
 8006b24:	682b      	ldr	r3, [r5, #0]
 8006b26:	035f      	lsls	r7, r3, #13
 8006b28:	d51c      	bpl.n	8006b64 <HAL_RCCEx_PeriphCLKConfig+0x6f0>
 8006b2a:	f8d5 3090 	ldr.w	r3, [r5, #144]	; 0x90
 8006b2e:	f5b3 1f00 	cmp.w	r3, #2097152	; 0x200000
 8006b32:	f000 8137 	beq.w	8006da4 <HAL_RCCEx_PeriphCLKConfig+0x930>
 8006b36:	f5b3 1f40 	cmp.w	r3, #3145728	; 0x300000
 8006b3a:	d008      	beq.n	8006b4e <HAL_RCCEx_PeriphCLKConfig+0x6da>
 8006b3c:	f5b3 1f80 	cmp.w	r3, #1048576	; 0x100000
 8006b40:	f040 8137 	bne.w	8006db2 <HAL_RCCEx_PeriphCLKConfig+0x93e>
 8006b44:	4a58      	ldr	r2, [pc, #352]	; (8006ca8 <HAL_RCCEx_PeriphCLKConfig+0x834>)
 8006b46:	6ad3      	ldr	r3, [r2, #44]	; 0x2c
 8006b48:	f443 3300 	orr.w	r3, r3, #131072	; 0x20000
 8006b4c:	62d3      	str	r3, [r2, #44]	; 0x2c
 8006b4e:	2c00      	cmp	r4, #0
 8006b50:	f040 8132 	bne.w	8006db8 <HAL_RCCEx_PeriphCLKConfig+0x944>
 8006b54:	4a54      	ldr	r2, [pc, #336]	; (8006ca8 <HAL_RCCEx_PeriphCLKConfig+0x834>)
 8006b56:	f8d5 1090 	ldr.w	r1, [r5, #144]	; 0x90
 8006b5a:	6d53      	ldr	r3, [r2, #84]	; 0x54
 8006b5c:	f423 1340 	bic.w	r3, r3, #3145728	; 0x300000
 8006b60:	430b      	orrs	r3, r1
 8006b62:	6553      	str	r3, [r2, #84]	; 0x54
 8006b64:	682b      	ldr	r3, [r5, #0]
 8006b66:	03d8      	lsls	r0, r3, #15
 8006b68:	d509      	bpl.n	8006b7e <HAL_RCCEx_PeriphCLKConfig+0x70a>
 8006b6a:	6d2b      	ldr	r3, [r5, #80]	; 0x50
 8006b6c:	2b00      	cmp	r3, #0
 8006b6e:	f000 8125 	beq.w	8006dbc <HAL_RCCEx_PeriphCLKConfig+0x948>
 8006b72:	f5b3 3f80 	cmp.w	r3, #65536	; 0x10000
 8006b76:	f000 812f 	beq.w	8006dd8 <HAL_RCCEx_PeriphCLKConfig+0x964>
 8006b7a:	2601      	movs	r6, #1
 8006b7c:	4634      	mov	r4, r6
 8006b7e:	682b      	ldr	r3, [r5, #0]
 8006b80:	0099      	lsls	r1, r3, #2
 8006b82:	d507      	bpl.n	8006b94 <HAL_RCCEx_PeriphCLKConfig+0x720>
 8006b84:	2102      	movs	r1, #2
 8006b86:	f105 0028 	add.w	r0, r5, #40	; 0x28
 8006b8a:	f7ff fbfb 	bl	8006384 <RCCEx_PLL3_Config>
 8006b8e:	2800      	cmp	r0, #0
 8006b90:	bf18      	it	ne
 8006b92:	2601      	movne	r6, #1
 8006b94:	e9d5 3100 	ldrd	r3, r1, [r5]
 8006b98:	039a      	lsls	r2, r3, #14
 8006b9a:	d50b      	bpl.n	8006bb4 <HAL_RCCEx_PeriphCLKConfig+0x740>
 8006b9c:	f8d5 0088 	ldr.w	r0, [r5, #136]	; 0x88
 8006ba0:	f5b0 7f80 	cmp.w	r0, #256	; 0x100
 8006ba4:	f000 812f 	beq.w	8006e06 <HAL_RCCEx_PeriphCLKConfig+0x992>
 8006ba8:	f200 811f 	bhi.w	8006dea <HAL_RCCEx_PeriphCLKConfig+0x976>
 8006bac:	2800      	cmp	r0, #0
 8006bae:	f000 8122 	beq.w	8006df6 <HAL_RCCEx_PeriphCLKConfig+0x982>
 8006bb2:	2601      	movs	r6, #1
 8006bb4:	02df      	lsls	r7, r3, #11
 8006bb6:	d506      	bpl.n	8006bc6 <HAL_RCCEx_PeriphCLKConfig+0x752>
 8006bb8:	483b      	ldr	r0, [pc, #236]	; (8006ca8 <HAL_RCCEx_PeriphCLKConfig+0x834>)
 8006bba:	6fec      	ldr	r4, [r5, #124]	; 0x7c
 8006bbc:	6d02      	ldr	r2, [r0, #80]	; 0x50
 8006bbe:	f022 4200 	bic.w	r2, r2, #2147483648	; 0x80000000
 8006bc2:	4322      	orrs	r2, r4
 8006bc4:	6502      	str	r2, [r0, #80]	; 0x50
 8006bc6:	029c      	lsls	r4, r3, #10
 8006bc8:	d506      	bpl.n	8006bd8 <HAL_RCCEx_PeriphCLKConfig+0x764>
 8006bca:	4837      	ldr	r0, [pc, #220]	; (8006ca8 <HAL_RCCEx_PeriphCLKConfig+0x834>)
 8006bcc:	6f2c      	ldr	r4, [r5, #112]	; 0x70
 8006bce:	6d02      	ldr	r2, [r0, #80]	; 0x50
 8006bd0:	f022 7280 	bic.w	r2, r2, #16777216	; 0x1000000
 8006bd4:	4322      	orrs	r2, r4
 8006bd6:	6502      	str	r2, [r0, #80]	; 0x50
 8006bd8:	0518      	lsls	r0, r3, #20
 8006bda:	d506      	bpl.n	8006bea <HAL_RCCEx_PeriphCLKConfig+0x776>
 8006bdc:	4832      	ldr	r0, [pc, #200]	; (8006ca8 <HAL_RCCEx_PeriphCLKConfig+0x834>)
 8006bde:	6f6c      	ldr	r4, [r5, #116]	; 0x74
 8006be0:	6d82      	ldr	r2, [r0, #88]	; 0x58
 8006be2:	f022 6200 	bic.w	r2, r2, #134217728	; 0x8000000
 8006be6:	4322      	orrs	r2, r4
 8006be8:	6582      	str	r2, [r0, #88]	; 0x58
 8006bea:	005a      	lsls	r2, r3, #1
 8006bec:	d509      	bpl.n	8006c02 <HAL_RCCEx_PeriphCLKConfig+0x78e>
 8006bee:	4a2e      	ldr	r2, [pc, #184]	; (8006ca8 <HAL_RCCEx_PeriphCLKConfig+0x834>)
 8006bf0:	6910      	ldr	r0, [r2, #16]
 8006bf2:	f420 4000 	bic.w	r0, r0, #32768	; 0x8000
 8006bf6:	6110      	str	r0, [r2, #16]
 8006bf8:	6910      	ldr	r0, [r2, #16]
 8006bfa:	f8d5 40b8 	ldr.w	r4, [r5, #184]	; 0xb8
 8006bfe:	4320      	orrs	r0, r4
 8006c00:	6110      	str	r0, [r2, #16]
 8006c02:	2b00      	cmp	r3, #0
 8006c04:	da06      	bge.n	8006c14 <HAL_RCCEx_PeriphCLKConfig+0x7a0>
 8006c06:	4828      	ldr	r0, [pc, #160]	; (8006ca8 <HAL_RCCEx_PeriphCLKConfig+0x834>)
 8006c08:	6d6c      	ldr	r4, [r5, #84]	; 0x54
 8006c0a:	6cc2      	ldr	r2, [r0, #76]	; 0x4c
 8006c0c:	f022 5240 	bic.w	r2, r2, #805306368	; 0x30000000
 8006c10:	4322      	orrs	r2, r4
 8006c12:	64c2      	str	r2, [r0, #76]	; 0x4c
 8006c14:	021b      	lsls	r3, r3, #8
 8006c16:	d507      	bpl.n	8006c28 <HAL_RCCEx_PeriphCLKConfig+0x7b4>
 8006c18:	4a23      	ldr	r2, [pc, #140]	; (8006ca8 <HAL_RCCEx_PeriphCLKConfig+0x834>)
 8006c1a:	f8d5 0094 	ldr.w	r0, [r5, #148]	; 0x94
 8006c1e:	6d53      	ldr	r3, [r2, #84]	; 0x54
 8006c20:	f423 0340 	bic.w	r3, r3, #12582912	; 0xc00000
 8006c24:	4303      	orrs	r3, r0
 8006c26:	6553      	str	r3, [r2, #84]	; 0x54
 8006c28:	07cf      	lsls	r7, r1, #31
 8006c2a:	d507      	bpl.n	8006c3c <HAL_RCCEx_PeriphCLKConfig+0x7c8>
 8006c2c:	2100      	movs	r1, #0
 8006c2e:	f105 0008 	add.w	r0, r5, #8
 8006c32:	f7ff fb2f 	bl	8006294 <RCCEx_PLL2_Config>
 8006c36:	2800      	cmp	r0, #0
 8006c38:	bf18      	it	ne
 8006c3a:	4606      	movne	r6, r0
 8006c3c:	686b      	ldr	r3, [r5, #4]
 8006c3e:	079c      	lsls	r4, r3, #30
 8006c40:	d507      	bpl.n	8006c52 <HAL_RCCEx_PeriphCLKConfig+0x7de>
 8006c42:	2101      	movs	r1, #1
 8006c44:	f105 0008 	add.w	r0, r5, #8
 8006c48:	f7ff fb24 	bl	8006294 <RCCEx_PLL2_Config>
 8006c4c:	2800      	cmp	r0, #0
 8006c4e:	bf18      	it	ne
 8006c50:	4606      	movne	r6, r0
 8006c52:	686b      	ldr	r3, [r5, #4]
 8006c54:	0758      	lsls	r0, r3, #29
 8006c56:	d507      	bpl.n	8006c68 <HAL_RCCEx_PeriphCLKConfig+0x7f4>
 8006c58:	2102      	movs	r1, #2
 8006c5a:	f105 0008 	add.w	r0, r5, #8
 8006c5e:	f7ff fb19 	bl	8006294 <RCCEx_PLL2_Config>
 8006c62:	2800      	cmp	r0, #0
 8006c64:	bf18      	it	ne
 8006c66:	4606      	movne	r6, r0
 8006c68:	686b      	ldr	r3, [r5, #4]
 8006c6a:	0719      	lsls	r1, r3, #28
 8006c6c:	d507      	bpl.n	8006c7e <HAL_RCCEx_PeriphCLKConfig+0x80a>
 8006c6e:	2100      	movs	r1, #0
 8006c70:	f105 0028 	add.w	r0, r5, #40	; 0x28
 8006c74:	f7ff fb86 	bl	8006384 <RCCEx_PLL3_Config>
 8006c78:	2800      	cmp	r0, #0
 8006c7a:	bf18      	it	ne
 8006c7c:	4606      	movne	r6, r0
 8006c7e:	686b      	ldr	r3, [r5, #4]
 8006c80:	06da      	lsls	r2, r3, #27
 8006c82:	d507      	bpl.n	8006c94 <HAL_RCCEx_PeriphCLKConfig+0x820>
 8006c84:	2101      	movs	r1, #1
 8006c86:	f105 0028 	add.w	r0, r5, #40	; 0x28
 8006c8a:	f7ff fb7b 	bl	8006384 <RCCEx_PLL3_Config>
 8006c8e:	2800      	cmp	r0, #0
 8006c90:	bf18      	it	ne
 8006c92:	4606      	movne	r6, r0
 8006c94:	686b      	ldr	r3, [r5, #4]
 8006c96:	069b      	lsls	r3, r3, #26
 8006c98:	f100 80bd 	bmi.w	8006e16 <HAL_RCCEx_PeriphCLKConfig+0x9a2>
 8006c9c:	1e30      	subs	r0, r6, #0
 8006c9e:	bf18      	it	ne
 8006ca0:	2001      	movne	r0, #1
 8006ca2:	e8bd 83f8 	ldmia.w	sp!, {r3, r4, r5, r6, r7, r8, r9, pc}
 8006ca6:	bf00      	nop
 8006ca8:	58024400 	.word	0x58024400
 8006cac:	2101      	movs	r1, #1
 8006cae:	f105 0028 	add.w	r0, r5, #40	; 0x28
 8006cb2:	f7ff fb67 	bl	8006384 <RCCEx_PLL3_Config>
 8006cb6:	e69e      	b.n	80069f6 <HAL_RCCEx_PeriphCLKConfig+0x582>
 8006cb8:	2601      	movs	r6, #1
 8006cba:	4634      	mov	r4, r6
 8006cbc:	e6a7      	b.n	8006a0e <HAL_RCCEx_PeriphCLKConfig+0x59a>
 8006cbe:	4626      	mov	r6, r4
 8006cc0:	e6a5      	b.n	8006a0e <HAL_RCCEx_PeriphCLKConfig+0x59a>
 8006cc2:	f023 5280 	bic.w	r2, r3, #268435456	; 0x10000000
 8006cc6:	f1b2 4f80 	cmp.w	r2, #1073741824	; 0x40000000
 8006cca:	d003      	beq.n	8006cd4 <HAL_RCCEx_PeriphCLKConfig+0x860>
 8006ccc:	f1b3 5f40 	cmp.w	r3, #805306368	; 0x30000000
 8006cd0:	f47f aeaf 	bne.w	8006a32 <HAL_RCCEx_PeriphCLKConfig+0x5be>
 8006cd4:	b9ac      	cbnz	r4, 8006d02 <HAL_RCCEx_PeriphCLKConfig+0x88e>
 8006cd6:	4a55      	ldr	r2, [pc, #340]	; (8006e2c <HAL_RCCEx_PeriphCLKConfig+0x9b8>)
 8006cd8:	f8d5 1098 	ldr.w	r1, [r5, #152]	; 0x98
 8006cdc:	6d53      	ldr	r3, [r2, #84]	; 0x54
 8006cde:	f023 43e0 	bic.w	r3, r3, #1879048192	; 0x70000000
 8006ce2:	430b      	orrs	r3, r1
 8006ce4:	6553      	str	r3, [r2, #84]	; 0x54
 8006ce6:	e6a6      	b.n	8006a36 <HAL_RCCEx_PeriphCLKConfig+0x5c2>
 8006ce8:	2100      	movs	r1, #0
 8006cea:	f105 0008 	add.w	r0, r5, #8
 8006cee:	f7ff fad1 	bl	8006294 <RCCEx_PLL2_Config>
 8006cf2:	4604      	mov	r4, r0
 8006cf4:	e7ee      	b.n	8006cd4 <HAL_RCCEx_PeriphCLKConfig+0x860>
 8006cf6:	2102      	movs	r1, #2
 8006cf8:	f105 0028 	add.w	r0, r5, #40	; 0x28
 8006cfc:	f7ff fb42 	bl	8006384 <RCCEx_PLL3_Config>
 8006d00:	e7f7      	b.n	8006cf2 <HAL_RCCEx_PeriphCLKConfig+0x87e>
 8006d02:	4626      	mov	r6, r4
 8006d04:	e697      	b.n	8006a36 <HAL_RCCEx_PeriphCLKConfig+0x5c2>
 8006d06:	f423 6280 	bic.w	r2, r3, #1024	; 0x400
 8006d0a:	f5b2 5f80 	cmp.w	r2, #4096	; 0x1000
 8006d0e:	d003      	beq.n	8006d18 <HAL_RCCEx_PeriphCLKConfig+0x8a4>
 8006d10:	f5b3 6f40 	cmp.w	r3, #3072	; 0xc00
 8006d14:	f47f aea1 	bne.w	8006a5a <HAL_RCCEx_PeriphCLKConfig+0x5e6>
 8006d18:	b9ac      	cbnz	r4, 8006d46 <HAL_RCCEx_PeriphCLKConfig+0x8d2>
 8006d1a:	4a44      	ldr	r2, [pc, #272]	; (8006e2c <HAL_RCCEx_PeriphCLKConfig+0x9b8>)
 8006d1c:	f8d5 10a4 	ldr.w	r1, [r5, #164]	; 0xa4
 8006d20:	6d93      	ldr	r3, [r2, #88]	; 0x58
 8006d22:	f423 53e0 	bic.w	r3, r3, #7168	; 0x1c00
 8006d26:	430b      	orrs	r3, r1
 8006d28:	6593      	str	r3, [r2, #88]	; 0x58
 8006d2a:	e698      	b.n	8006a5e <HAL_RCCEx_PeriphCLKConfig+0x5ea>
 8006d2c:	2100      	movs	r1, #0
 8006d2e:	f105 0008 	add.w	r0, r5, #8
 8006d32:	f7ff faaf 	bl	8006294 <RCCEx_PLL2_Config>
 8006d36:	4604      	mov	r4, r0
 8006d38:	e7ee      	b.n	8006d18 <HAL_RCCEx_PeriphCLKConfig+0x8a4>
 8006d3a:	2102      	movs	r1, #2
 8006d3c:	f105 0028 	add.w	r0, r5, #40	; 0x28
 8006d40:	f7ff fb20 	bl	8006384 <RCCEx_PLL3_Config>
 8006d44:	e7f7      	b.n	8006d36 <HAL_RCCEx_PeriphCLKConfig+0x8c2>
 8006d46:	4626      	mov	r6, r4
 8006d48:	e689      	b.n	8006a5e <HAL_RCCEx_PeriphCLKConfig+0x5ea>
 8006d4a:	f423 5200 	bic.w	r2, r3, #8192	; 0x2000
 8006d4e:	f5b2 4f00 	cmp.w	r2, #32768	; 0x8000
 8006d52:	d003      	beq.n	8006d5c <HAL_RCCEx_PeriphCLKConfig+0x8e8>
 8006d54:	f5b3 4fc0 	cmp.w	r3, #24576	; 0x6000
 8006d58:	f47f ae93 	bne.w	8006a82 <HAL_RCCEx_PeriphCLKConfig+0x60e>
 8006d5c:	b9ac      	cbnz	r4, 8006d8a <HAL_RCCEx_PeriphCLKConfig+0x916>
 8006d5e:	4a33      	ldr	r2, [pc, #204]	; (8006e2c <HAL_RCCEx_PeriphCLKConfig+0x9b8>)
 8006d60:	f8d5 10a8 	ldr.w	r1, [r5, #168]	; 0xa8
 8006d64:	6d93      	ldr	r3, [r2, #88]	; 0x58
 8006d66:	f423 4360 	bic.w	r3, r3, #57344	; 0xe000
 8006d6a:	430b      	orrs	r3, r1
 8006d6c:	6593      	str	r3, [r2, #88]	; 0x58
 8006d6e:	e68a      	b.n	8006a86 <HAL_RCCEx_PeriphCLKConfig+0x612>
 8006d70:	2100      	movs	r1, #0
 8006d72:	f105 0008 	add.w	r0, r5, #8
 8006d76:	f7ff fa8d 	bl	8006294 <RCCEx_PLL2_Config>
 8006d7a:	4604      	mov	r4, r0
 8006d7c:	e7ee      	b.n	8006d5c <HAL_RCCEx_PeriphCLKConfig+0x8e8>
 8006d7e:	2102      	movs	r1, #2
 8006d80:	f105 0028 	add.w	r0, r5, #40	; 0x28
 8006d84:	f7ff fafe 	bl	8006384 <RCCEx_PLL3_Config>
 8006d88:	e7f7      	b.n	8006d7a <HAL_RCCEx_PeriphCLKConfig+0x906>
 8006d8a:	4626      	mov	r6, r4
 8006d8c:	e67b      	b.n	8006a86 <HAL_RCCEx_PeriphCLKConfig+0x612>
 8006d8e:	2102      	movs	r1, #2
 8006d90:	f105 0028 	add.w	r0, r5, #40	; 0x28
 8006d94:	f7ff faf6 	bl	8006384 <RCCEx_PLL3_Config>
 8006d98:	e6b8      	b.n	8006b0c <HAL_RCCEx_PeriphCLKConfig+0x698>
 8006d9a:	2601      	movs	r6, #1
 8006d9c:	4634      	mov	r4, r6
 8006d9e:	e6c1      	b.n	8006b24 <HAL_RCCEx_PeriphCLKConfig+0x6b0>
 8006da0:	4626      	mov	r6, r4
 8006da2:	e6bf      	b.n	8006b24 <HAL_RCCEx_PeriphCLKConfig+0x6b0>
 8006da4:	2101      	movs	r1, #1
 8006da6:	f105 0028 	add.w	r0, r5, #40	; 0x28
 8006daa:	f7ff faeb 	bl	8006384 <RCCEx_PLL3_Config>
 8006dae:	4604      	mov	r4, r0
 8006db0:	e6cd      	b.n	8006b4e <HAL_RCCEx_PeriphCLKConfig+0x6da>
 8006db2:	2601      	movs	r6, #1
 8006db4:	4634      	mov	r4, r6
 8006db6:	e6d5      	b.n	8006b64 <HAL_RCCEx_PeriphCLKConfig+0x6f0>
 8006db8:	4626      	mov	r6, r4
 8006dba:	e6d3      	b.n	8006b64 <HAL_RCCEx_PeriphCLKConfig+0x6f0>
 8006dbc:	4a1b      	ldr	r2, [pc, #108]	; (8006e2c <HAL_RCCEx_PeriphCLKConfig+0x9b8>)
 8006dbe:	6ad3      	ldr	r3, [r2, #44]	; 0x2c
 8006dc0:	f443 3300 	orr.w	r3, r3, #131072	; 0x20000
 8006dc4:	62d3      	str	r3, [r2, #44]	; 0x2c
 8006dc6:	b974      	cbnz	r4, 8006de6 <HAL_RCCEx_PeriphCLKConfig+0x972>
 8006dc8:	4a18      	ldr	r2, [pc, #96]	; (8006e2c <HAL_RCCEx_PeriphCLKConfig+0x9b8>)
 8006dca:	6d29      	ldr	r1, [r5, #80]	; 0x50
 8006dcc:	6cd3      	ldr	r3, [r2, #76]	; 0x4c
 8006dce:	f423 3380 	bic.w	r3, r3, #65536	; 0x10000
 8006dd2:	430b      	orrs	r3, r1
 8006dd4:	64d3      	str	r3, [r2, #76]	; 0x4c
 8006dd6:	e6d2      	b.n	8006b7e <HAL_RCCEx_PeriphCLKConfig+0x70a>
 8006dd8:	2102      	movs	r1, #2
 8006dda:	f105 0008 	add.w	r0, r5, #8
 8006dde:	f7ff fa59 	bl	8006294 <RCCEx_PLL2_Config>
 8006de2:	4604      	mov	r4, r0
 8006de4:	e7ef      	b.n	8006dc6 <HAL_RCCEx_PeriphCLKConfig+0x952>
 8006de6:	4626      	mov	r6, r4
 8006de8:	e6c9      	b.n	8006b7e <HAL_RCCEx_PeriphCLKConfig+0x70a>
 8006dea:	f420 7280 	bic.w	r2, r0, #256	; 0x100
 8006dee:	f5b2 7f00 	cmp.w	r2, #512	; 0x200
 8006df2:	f47f aede 	bne.w	8006bb2 <HAL_RCCEx_PeriphCLKConfig+0x73e>
 8006df6:	b964      	cbnz	r4, 8006e12 <HAL_RCCEx_PeriphCLKConfig+0x99e>
 8006df8:	4c0c      	ldr	r4, [pc, #48]	; (8006e2c <HAL_RCCEx_PeriphCLKConfig+0x9b8>)
 8006dfa:	6d62      	ldr	r2, [r4, #84]	; 0x54
 8006dfc:	f422 7240 	bic.w	r2, r2, #768	; 0x300
 8006e00:	4302      	orrs	r2, r0
 8006e02:	6562      	str	r2, [r4, #84]	; 0x54
 8006e04:	e6d6      	b.n	8006bb4 <HAL_RCCEx_PeriphCLKConfig+0x740>
 8006e06:	4f09      	ldr	r7, [pc, #36]	; (8006e2c <HAL_RCCEx_PeriphCLKConfig+0x9b8>)
 8006e08:	6afa      	ldr	r2, [r7, #44]	; 0x2c
 8006e0a:	f442 3200 	orr.w	r2, r2, #131072	; 0x20000
 8006e0e:	62fa      	str	r2, [r7, #44]	; 0x2c
 8006e10:	e7f1      	b.n	8006df6 <HAL_RCCEx_PeriphCLKConfig+0x982>
 8006e12:	4626      	mov	r6, r4
 8006e14:	e6ce      	b.n	8006bb4 <HAL_RCCEx_PeriphCLKConfig+0x740>
 8006e16:	2102      	movs	r1, #2
 8006e18:	f105 0028 	add.w	r0, r5, #40	; 0x28
 8006e1c:	f7ff fab2 	bl	8006384 <RCCEx_PLL3_Config>
 8006e20:	2800      	cmp	r0, #0
 8006e22:	f43f af3b 	beq.w	8006c9c <HAL_RCCEx_PeriphCLKConfig+0x828>
 8006e26:	2001      	movs	r0, #1
 8006e28:	e73b      	b.n	8006ca2 <HAL_RCCEx_PeriphCLKConfig+0x82e>
 8006e2a:	bf00      	nop
 8006e2c:	58024400 	.word	0x58024400

08006e30 <HAL_RCCEx_GetD3PCLK1Freq>:
 8006e30:	b508      	push	{r3, lr}
 8006e32:	f7ff f9e9 	bl	8006208 <HAL_RCC_GetHCLKFreq>
 8006e36:	4b05      	ldr	r3, [pc, #20]	; (8006e4c <HAL_RCCEx_GetD3PCLK1Freq+0x1c>)
 8006e38:	4a05      	ldr	r2, [pc, #20]	; (8006e50 <HAL_RCCEx_GetD3PCLK1Freq+0x20>)
 8006e3a:	6a1b      	ldr	r3, [r3, #32]
 8006e3c:	f3c3 1302 	ubfx	r3, r3, #4, #3
 8006e40:	5cd3      	ldrb	r3, [r2, r3]
 8006e42:	f003 031f 	and.w	r3, r3, #31
 8006e46:	40d8      	lsrs	r0, r3
 8006e48:	bd08      	pop	{r3, pc}
 8006e4a:	bf00      	nop
 8006e4c:	58024400 	.word	0x58024400
 8006e50:	08008ec2 	.word	0x08008ec2

08006e54 <HAL_RCCEx_GetPLL2ClockFreq>:
 8006e54:	4a4e      	ldr	r2, [pc, #312]	; (8006f90 <HAL_RCCEx_GetPLL2ClockFreq+0x13c>)
 8006e56:	b570      	push	{r4, r5, r6, lr}
 8006e58:	6a94      	ldr	r4, [r2, #40]	; 0x28
 8006e5a:	6a96      	ldr	r6, [r2, #40]	; 0x28
 8006e5c:	6ad5      	ldr	r5, [r2, #44]	; 0x2c
 8006e5e:	f416 3f7c 	tst.w	r6, #258048	; 0x3f000
 8006e62:	f3c6 3105 	ubfx	r1, r6, #12, #6
 8006e66:	6bd3      	ldr	r3, [r2, #60]	; 0x3c
 8006e68:	f000 808d 	beq.w	8006f86 <HAL_RCCEx_GetPLL2ClockFreq+0x132>
 8006e6c:	ee07 1a90 	vmov	s15, r1
 8006e70:	f3c3 03cc 	ubfx	r3, r3, #3, #13
 8006e74:	f3c5 1100 	ubfx	r1, r5, #4, #1
 8006e78:	f004 0403 	and.w	r4, r4, #3
 8006e7c:	eef8 6ae7 	vcvt.f32.s32	s13, s15
 8006e80:	434b      	muls	r3, r1
 8006e82:	2c01      	cmp	r4, #1
 8006e84:	eeb7 6a00 	vmov.f32	s12, #112	; 0x3f800000  1.0
 8006e88:	ee07 3a90 	vmov	s15, r3
 8006e8c:	eefa 7ae9 	vcvt.f32.s32	s15, s15, #13
 8006e90:	d06b      	beq.n	8006f6a <HAL_RCCEx_GetPLL2ClockFreq+0x116>
 8006e92:	2c02      	cmp	r4, #2
 8006e94:	d05b      	beq.n	8006f4e <HAL_RCCEx_GetPLL2ClockFreq+0xfa>
 8006e96:	2c00      	cmp	r4, #0
 8006e98:	d167      	bne.n	8006f6a <HAL_RCCEx_GetPLL2ClockFreq+0x116>
 8006e9a:	6813      	ldr	r3, [r2, #0]
 8006e9c:	069b      	lsls	r3, r3, #26
 8006e9e:	d546      	bpl.n	8006f2e <HAL_RCCEx_GetPLL2ClockFreq+0xda>
 8006ea0:	6811      	ldr	r1, [r2, #0]
 8006ea2:	6b93      	ldr	r3, [r2, #56]	; 0x38
 8006ea4:	f3c1 01c1 	ubfx	r1, r1, #3, #2
 8006ea8:	4a3a      	ldr	r2, [pc, #232]	; (8006f94 <HAL_RCCEx_GetPLL2ClockFreq+0x140>)
 8006eaa:	f3c3 0308 	ubfx	r3, r3, #0, #9
 8006eae:	40ca      	lsrs	r2, r1
 8006eb0:	ee07 2a10 	vmov	s14, r2
 8006eb4:	eef8 5ac7 	vcvt.f32.s32	s11, s14
 8006eb8:	ee85 7aa6 	vdiv.f32	s14, s11, s13
 8006ebc:	ee06 3a90 	vmov	s13, r3
 8006ec0:	eef8 6ae6 	vcvt.f32.s32	s13, s13
 8006ec4:	ee76 7aa7 	vadd.f32	s15, s13, s15
 8006ec8:	ee77 7a86 	vadd.f32	s15, s15, s12
 8006ecc:	4a30      	ldr	r2, [pc, #192]	; (8006f90 <HAL_RCCEx_GetPLL2ClockFreq+0x13c>)
 8006ece:	ee67 7a87 	vmul.f32	s15, s15, s14
 8006ed2:	6b93      	ldr	r3, [r2, #56]	; 0x38
 8006ed4:	f3c3 2346 	ubfx	r3, r3, #9, #7
 8006ed8:	ee07 3a10 	vmov	s14, r3
 8006edc:	eeb8 7ac7 	vcvt.f32.s32	s14, s14
 8006ee0:	ee37 7a06 	vadd.f32	s14, s14, s12
 8006ee4:	eec7 6a87 	vdiv.f32	s13, s15, s14
 8006ee8:	eefc 6ae6 	vcvt.u32.f32	s13, s13
 8006eec:	edc0 6a00 	vstr	s13, [r0]
 8006ef0:	6b93      	ldr	r3, [r2, #56]	; 0x38
 8006ef2:	f3c3 4306 	ubfx	r3, r3, #16, #7
 8006ef6:	ee07 3a10 	vmov	s14, r3
 8006efa:	eeb8 7ac7 	vcvt.f32.s32	s14, s14
 8006efe:	ee37 7a06 	vadd.f32	s14, s14, s12
 8006f02:	eec7 6a87 	vdiv.f32	s13, s15, s14
 8006f06:	eefc 6ae6 	vcvt.u32.f32	s13, s13
 8006f0a:	edc0 6a01 	vstr	s13, [r0, #4]
 8006f0e:	6b93      	ldr	r3, [r2, #56]	; 0x38
 8006f10:	f3c3 6306 	ubfx	r3, r3, #24, #7
 8006f14:	ee07 3a10 	vmov	s14, r3
 8006f18:	eeb8 7ac7 	vcvt.f32.s32	s14, s14
 8006f1c:	ee37 6a06 	vadd.f32	s12, s14, s12
 8006f20:	ee87 7a86 	vdiv.f32	s14, s15, s12
 8006f24:	eebc 7ac7 	vcvt.u32.f32	s14, s14
 8006f28:	ed80 7a02 	vstr	s14, [r0, #8]
 8006f2c:	bd70      	pop	{r4, r5, r6, pc}
 8006f2e:	6b93      	ldr	r3, [r2, #56]	; 0x38
 8006f30:	eddf 5a19 	vldr	s11, [pc, #100]	; 8006f98 <HAL_RCCEx_GetPLL2ClockFreq+0x144>
 8006f34:	f3c3 0308 	ubfx	r3, r3, #0, #9
 8006f38:	ee07 3a10 	vmov	s14, r3
 8006f3c:	eeb8 7ac7 	vcvt.f32.s32	s14, s14
 8006f40:	ee77 7a27 	vadd.f32	s15, s14, s15
 8006f44:	ee77 7a86 	vadd.f32	s15, s15, s12
 8006f48:	ee85 7aa6 	vdiv.f32	s14, s11, s13
 8006f4c:	e7be      	b.n	8006ecc <HAL_RCCEx_GetPLL2ClockFreq+0x78>
 8006f4e:	6b93      	ldr	r3, [r2, #56]	; 0x38
 8006f50:	eddf 5a12 	vldr	s11, [pc, #72]	; 8006f9c <HAL_RCCEx_GetPLL2ClockFreq+0x148>
 8006f54:	f3c3 0308 	ubfx	r3, r3, #0, #9
 8006f58:	ee07 3a10 	vmov	s14, r3
 8006f5c:	eeb8 7ac7 	vcvt.f32.s32	s14, s14
 8006f60:	ee77 7a27 	vadd.f32	s15, s14, s15
 8006f64:	ee77 7a86 	vadd.f32	s15, s15, s12
 8006f68:	e7ee      	b.n	8006f48 <HAL_RCCEx_GetPLL2ClockFreq+0xf4>
 8006f6a:	6b93      	ldr	r3, [r2, #56]	; 0x38
 8006f6c:	eddf 5a0c 	vldr	s11, [pc, #48]	; 8006fa0 <HAL_RCCEx_GetPLL2ClockFreq+0x14c>
 8006f70:	f3c3 0308 	ubfx	r3, r3, #0, #9
 8006f74:	ee07 3a10 	vmov	s14, r3
 8006f78:	eeb8 7ac7 	vcvt.f32.s32	s14, s14
 8006f7c:	ee77 7a27 	vadd.f32	s15, s14, s15
 8006f80:	ee77 7a86 	vadd.f32	s15, s15, s12
 8006f84:	e7e0      	b.n	8006f48 <HAL_RCCEx_GetPLL2ClockFreq+0xf4>
 8006f86:	e9c0 1100 	strd	r1, r1, [r0]
 8006f8a:	6081      	str	r1, [r0, #8]
 8006f8c:	e7ce      	b.n	8006f2c <HAL_RCCEx_GetPLL2ClockFreq+0xd8>
 8006f8e:	bf00      	nop
 8006f90:	58024400 	.word	0x58024400
 8006f94:	03d09000 	.word	0x03d09000
 8006f98:	4c742400 	.word	0x4c742400
 8006f9c:	4bb71b00 	.word	0x4bb71b00
 8006fa0:	4a742400 	.word	0x4a742400

08006fa4 <HAL_RCCEx_GetPLL3ClockFreq>:
 8006fa4:	4a4e      	ldr	r2, [pc, #312]	; (80070e0 <HAL_RCCEx_GetPLL3ClockFreq+0x13c>)
 8006fa6:	b570      	push	{r4, r5, r6, lr}
 8006fa8:	6a94      	ldr	r4, [r2, #40]	; 0x28
 8006faa:	6a96      	ldr	r6, [r2, #40]	; 0x28
 8006fac:	6ad5      	ldr	r5, [r2, #44]	; 0x2c
 8006fae:	f016 7f7c 	tst.w	r6, #66060288	; 0x3f00000
 8006fb2:	f3c6 5105 	ubfx	r1, r6, #20, #6
 8006fb6:	6c53      	ldr	r3, [r2, #68]	; 0x44
 8006fb8:	f000 808d 	beq.w	80070d6 <HAL_RCCEx_GetPLL3ClockFreq+0x132>
 8006fbc:	ee07 1a90 	vmov	s15, r1
 8006fc0:	f3c3 03cc 	ubfx	r3, r3, #3, #13
 8006fc4:	f3c5 2100 	ubfx	r1, r5, #8, #1
 8006fc8:	f004 0403 	and.w	r4, r4, #3
 8006fcc:	eef8 6ae7 	vcvt.f32.s32	s13, s15
 8006fd0:	434b      	muls	r3, r1
 8006fd2:	2c01      	cmp	r4, #1
 8006fd4:	eeb7 6a00 	vmov.f32	s12, #112	; 0x3f800000  1.0
 8006fd8:	ee07 3a90 	vmov	s15, r3
 8006fdc:	eefa 7ae9 	vcvt.f32.s32	s15, s15, #13
 8006fe0:	d06b      	beq.n	80070ba <HAL_RCCEx_GetPLL3ClockFreq+0x116>
 8006fe2:	2c02      	cmp	r4, #2
 8006fe4:	d05b      	beq.n	800709e <HAL_RCCEx_GetPLL3ClockFreq+0xfa>
 8006fe6:	2c00      	cmp	r4, #0
 8006fe8:	d167      	bne.n	80070ba <HAL_RCCEx_GetPLL3ClockFreq+0x116>
 8006fea:	6813      	ldr	r3, [r2, #0]
 8006fec:	069b      	lsls	r3, r3, #26
 8006fee:	d546      	bpl.n	800707e <HAL_RCCEx_GetPLL3ClockFreq+0xda>
 8006ff0:	6811      	ldr	r1, [r2, #0]
 8006ff2:	6c13      	ldr	r3, [r2, #64]	; 0x40
 8006ff4:	f3c1 01c1 	ubfx	r1, r1, #3, #2
 8006ff8:	4a3a      	ldr	r2, [pc, #232]	; (80070e4 <HAL_RCCEx_GetPLL3ClockFreq+0x140>)
 8006ffa:	f3c3 0308 	ubfx	r3, r3, #0, #9
 8006ffe:	40ca      	lsrs	r2, r1
 8007000:	ee07 2a10 	vmov	s14, r2
 8007004:	eef8 5ac7 	vcvt.f32.s32	s11, s14
 8007008:	ee85 7aa6 	vdiv.f32	s14, s11, s13
 800700c:	ee06 3a90 	vmov	s13, r3
 8007010:	eef8 6ae6 	vcvt.f32.s32	s13, s13
 8007014:	ee76 7aa7 	vadd.f32	s15, s13, s15
 8007018:	ee77 7a86 	vadd.f32	s15, s15, s12
 800701c:	4a30      	ldr	r2, [pc, #192]	; (80070e0 <HAL_RCCEx_GetPLL3ClockFreq+0x13c>)
 800701e:	ee67 7a87 	vmul.f32	s15, s15, s14
 8007022:	6c13      	ldr	r3, [r2, #64]	; 0x40
 8007024:	f3c3 2346 	ubfx	r3, r3, #9, #7
 8007028:	ee07 3a10 	vmov	s14, r3
 800702c:	eeb8 7ac7 	vcvt.f32.s32	s14, s14
 8007030:	ee37 7a06 	vadd.f32	s14, s14, s12
 8007034:	eec7 6a87 	vdiv.f32	s13, s15, s14
 8007038:	eefc 6ae6 	vcvt.u32.f32	s13, s13
 800703c:	edc0 6a00 	vstr	s13, [r0]
 8007040:	6c13      	ldr	r3, [r2, #64]	; 0x40
 8007042:	f3c3 4306 	ubfx	r3, r3, #16, #7
 8007046:	ee07 3a10 	vmov	s14, r3
 800704a:	eeb8 7ac7 	vcvt.f32.s32	s14, s14
 800704e:	ee37 7a06 	vadd.f32	s14, s14, s12
 8007052:	eec7 6a87 	vdiv.f32	s13, s15, s14
 8007056:	eefc 6ae6 	vcvt.u32.f32	s13, s13
 800705a:	edc0 6a01 	vstr	s13, [r0, #4]
 800705e:	6c13      	ldr	r3, [r2, #64]	; 0x40
 8007060:	f3c3 6306 	ubfx	r3, r3, #24, #7
 8007064:	ee07 3a10 	vmov	s14, r3
 8007068:	eeb8 7ac7 	vcvt.f32.s32	s14, s14
 800706c:	ee37 6a06 	vadd.f32	s12, s14, s12
 8007070:	ee87 7a86 	vdiv.f32	s14, s15, s12
 8007074:	eebc 7ac7 	vcvt.u32.f32	s14, s14
 8007078:	ed80 7a02 	vstr	s14, [r0, #8]
 800707c:	bd70      	pop	{r4, r5, r6, pc}
 800707e:	6c13      	ldr	r3, [r2, #64]	; 0x40
 8007080:	eddf 5a19 	vldr	s11, [pc, #100]	; 80070e8 <HAL_RCCEx_GetPLL3ClockFreq+0x144>
 8007084:	f3c3 0308 	ubfx	r3, r3, #0, #9
 8007088:	ee07 3a10 	vmov	s14, r3
 800708c:	eeb8 7ac7 	vcvt.f32.s32	s14, s14
 8007090:	ee77 7a27 	vadd.f32	s15, s14, s15
 8007094:	ee77 7a86 	vadd.f32	s15, s15, s12
 8007098:	ee85 7aa6 	vdiv.f32	s14, s11, s13
 800709c:	e7be      	b.n	800701c <HAL_RCCEx_GetPLL3ClockFreq+0x78>
 800709e:	6c13      	ldr	r3, [r2, #64]	; 0x40
 80070a0:	eddf 5a12 	vldr	s11, [pc, #72]	; 80070ec <HAL_RCCEx_GetPLL3ClockFreq+0x148>
 80070a4:	f3c3 0308 	ubfx	r3, r3, #0, #9
 80070a8:	ee07 3a10 	vmov	s14, r3
 80070ac:	eeb8 7ac7 	vcvt.f32.s32	s14, s14
 80070b0:	ee77 7a27 	vadd.f32	s15, s14, s15
 80070b4:	ee77 7a86 	vadd.f32	s15, s15, s12
 80070b8:	e7ee      	b.n	8007098 <HAL_RCCEx_GetPLL3ClockFreq+0xf4>
 80070ba:	6c13      	ldr	r3, [r2, #64]	; 0x40
 80070bc:	eddf 5a0c 	vldr	s11, [pc, #48]	; 80070f0 <HAL_RCCEx_GetPLL3ClockFreq+0x14c>
 80070c0:	f3c3 0308 	ubfx	r3, r3, #0, #9
 80070c4:	ee07 3a10 	vmov	s14, r3
 80070c8:	eeb8 7ac7 	vcvt.f32.s32	s14, s14
 80070cc:	ee77 7a27 	vadd.f32	s15, s14, s15
 80070d0:	ee77 7a86 	vadd.f32	s15, s15, s12
 80070d4:	e7e0      	b.n	8007098 <HAL_RCCEx_GetPLL3ClockFreq+0xf4>
 80070d6:	e9c0 1100 	strd	r1, r1, [r0]
 80070da:	6081      	str	r1, [r0, #8]
 80070dc:	e7ce      	b.n	800707c <HAL_RCCEx_GetPLL3ClockFreq+0xd8>
 80070de:	bf00      	nop
 80070e0:	58024400 	.word	0x58024400
 80070e4:	03d09000 	.word	0x03d09000
 80070e8:	4c742400 	.word	0x4c742400
 80070ec:	4bb71b00 	.word	0x4bb71b00
 80070f0:	4a742400 	.word	0x4a742400

080070f4 <HAL_RTC_WaitForSynchro>:
 80070f4:	b538      	push	{r3, r4, r5, lr}
 80070f6:	4a0a      	ldr	r2, [pc, #40]	; (8007120 <HAL_RTC_WaitForSynchro+0x2c>)
 80070f8:	4604      	mov	r4, r0
 80070fa:	6803      	ldr	r3, [r0, #0]
 80070fc:	60da      	str	r2, [r3, #12]
 80070fe:	f7fb fcd5 	bl	8002aac <HAL_GetTick>
 8007102:	4605      	mov	r5, r0
 8007104:	6823      	ldr	r3, [r4, #0]
 8007106:	68db      	ldr	r3, [r3, #12]
 8007108:	069b      	lsls	r3, r3, #26
 800710a:	d501      	bpl.n	8007110 <HAL_RTC_WaitForSynchro+0x1c>
 800710c:	2000      	movs	r0, #0
 800710e:	bd38      	pop	{r3, r4, r5, pc}
 8007110:	f7fb fccc 	bl	8002aac <HAL_GetTick>
 8007114:	1b40      	subs	r0, r0, r5
 8007116:	f5b0 7f7a 	cmp.w	r0, #1000	; 0x3e8
 800711a:	d9f3      	bls.n	8007104 <HAL_RTC_WaitForSynchro+0x10>
 800711c:	2003      	movs	r0, #3
 800711e:	e7f6      	b.n	800710e <HAL_RTC_WaitForSynchro+0x1a>
 8007120:	0001005f 	.word	0x0001005f

08007124 <RTC_EnterInitMode>:
 8007124:	b5f8      	push	{r3, r4, r5, r6, r7, lr}
 8007126:	6803      	ldr	r3, [r0, #0]
 8007128:	4605      	mov	r5, r0
 800712a:	68dc      	ldr	r4, [r3, #12]
 800712c:	f014 0440 	ands.w	r4, r4, #64	; 0x40
 8007130:	d119      	bne.n	8007166 <RTC_EnterInitMode+0x42>
 8007132:	68da      	ldr	r2, [r3, #12]
 8007134:	2703      	movs	r7, #3
 8007136:	f042 0280 	orr.w	r2, r2, #128	; 0x80
 800713a:	60da      	str	r2, [r3, #12]
 800713c:	f7fb fcb6 	bl	8002aac <HAL_GetTick>
 8007140:	4606      	mov	r6, r0
 8007142:	682b      	ldr	r3, [r5, #0]
 8007144:	68db      	ldr	r3, [r3, #12]
 8007146:	065b      	lsls	r3, r3, #25
 8007148:	d401      	bmi.n	800714e <RTC_EnterInitMode+0x2a>
 800714a:	2c03      	cmp	r4, #3
 800714c:	d101      	bne.n	8007152 <RTC_EnterInitMode+0x2e>
 800714e:	4620      	mov	r0, r4
 8007150:	bdf8      	pop	{r3, r4, r5, r6, r7, pc}
 8007152:	f7fb fcab 	bl	8002aac <HAL_GetTick>
 8007156:	1b80      	subs	r0, r0, r6
 8007158:	f5b0 7f7a 	cmp.w	r0, #1000	; 0x3e8
 800715c:	d9f1      	bls.n	8007142 <RTC_EnterInitMode+0x1e>
 800715e:	2403      	movs	r4, #3
 8007160:	f885 7025 	strb.w	r7, [r5, #37]	; 0x25
 8007164:	e7ed      	b.n	8007142 <RTC_EnterInitMode+0x1e>
 8007166:	2400      	movs	r4, #0
 8007168:	e7f1      	b.n	800714e <RTC_EnterInitMode+0x2a>
	...

0800716c <RTC_ExitInitMode>:
 800716c:	4b10      	ldr	r3, [pc, #64]	; (80071b0 <RTC_ExitInitMode+0x44>)
 800716e:	68da      	ldr	r2, [r3, #12]
 8007170:	f022 0280 	bic.w	r2, r2, #128	; 0x80
 8007174:	b510      	push	{r4, lr}
 8007176:	60da      	str	r2, [r3, #12]
 8007178:	4604      	mov	r4, r0
 800717a:	699a      	ldr	r2, [r3, #24]
 800717c:	0692      	lsls	r2, r2, #26
 800717e:	d406      	bmi.n	800718e <RTC_ExitInitMode+0x22>
 8007180:	f7ff ffb8 	bl	80070f4 <HAL_RTC_WaitForSynchro>
 8007184:	b110      	cbz	r0, 800718c <RTC_ExitInitMode+0x20>
 8007186:	2003      	movs	r0, #3
 8007188:	f884 0025 	strb.w	r0, [r4, #37]	; 0x25
 800718c:	bd10      	pop	{r4, pc}
 800718e:	699a      	ldr	r2, [r3, #24]
 8007190:	f022 0220 	bic.w	r2, r2, #32
 8007194:	619a      	str	r2, [r3, #24]
 8007196:	f7ff ffad 	bl	80070f4 <HAL_RTC_WaitForSynchro>
 800719a:	b110      	cbz	r0, 80071a2 <RTC_ExitInitMode+0x36>
 800719c:	2003      	movs	r0, #3
 800719e:	f884 0025 	strb.w	r0, [r4, #37]	; 0x25
 80071a2:	4a03      	ldr	r2, [pc, #12]	; (80071b0 <RTC_ExitInitMode+0x44>)
 80071a4:	6993      	ldr	r3, [r2, #24]
 80071a6:	f043 0320 	orr.w	r3, r3, #32
 80071aa:	6193      	str	r3, [r2, #24]
 80071ac:	e7ee      	b.n	800718c <RTC_ExitInitMode+0x20>
 80071ae:	bf00      	nop
 80071b0:	58004000 	.word	0x58004000

080071b4 <HAL_RTC_Init>:
 80071b4:	b538      	push	{r3, r4, r5, lr}
 80071b6:	4604      	mov	r4, r0
 80071b8:	2800      	cmp	r0, #0
 80071ba:	d047      	beq.n	800724c <HAL_RTC_Init+0x98>
 80071bc:	f890 3025 	ldrb.w	r3, [r0, #37]	; 0x25
 80071c0:	f003 02ff 	and.w	r2, r3, #255	; 0xff
 80071c4:	b91b      	cbnz	r3, 80071ce <HAL_RTC_Init+0x1a>
 80071c6:	f880 2024 	strb.w	r2, [r0, #36]	; 0x24
 80071ca:	f7fa ffed 	bl	80021a8 <HAL_RTC_MspInit>
 80071ce:	2302      	movs	r3, #2
 80071d0:	f884 3025 	strb.w	r3, [r4, #37]	; 0x25
 80071d4:	6823      	ldr	r3, [r4, #0]
 80071d6:	68da      	ldr	r2, [r3, #12]
 80071d8:	06d2      	lsls	r2, r2, #27
 80071da:	d504      	bpl.n	80071e6 <HAL_RTC_Init+0x32>
 80071dc:	2301      	movs	r3, #1
 80071de:	2000      	movs	r0, #0
 80071e0:	f884 3025 	strb.w	r3, [r4, #37]	; 0x25
 80071e4:	bd38      	pop	{r3, r4, r5, pc}
 80071e6:	22ca      	movs	r2, #202	; 0xca
 80071e8:	4620      	mov	r0, r4
 80071ea:	625a      	str	r2, [r3, #36]	; 0x24
 80071ec:	2253      	movs	r2, #83	; 0x53
 80071ee:	625a      	str	r2, [r3, #36]	; 0x24
 80071f0:	f7ff ff98 	bl	8007124 <RTC_EnterInitMode>
 80071f4:	bb20      	cbnz	r0, 8007240 <HAL_RTC_Init+0x8c>
 80071f6:	6822      	ldr	r2, [r4, #0]
 80071f8:	6920      	ldr	r0, [r4, #16]
 80071fa:	6993      	ldr	r3, [r2, #24]
 80071fc:	f023 638e 	bic.w	r3, r3, #74448896	; 0x4700000
 8007200:	f023 0340 	bic.w	r3, r3, #64	; 0x40
 8007204:	6193      	str	r3, [r2, #24]
 8007206:	6863      	ldr	r3, [r4, #4]
 8007208:	6991      	ldr	r1, [r2, #24]
 800720a:	4303      	orrs	r3, r0
 800720c:	69a0      	ldr	r0, [r4, #24]
 800720e:	4303      	orrs	r3, r0
 8007210:	4620      	mov	r0, r4
 8007212:	430b      	orrs	r3, r1
 8007214:	6193      	str	r3, [r2, #24]
 8007216:	e9d4 1302 	ldrd	r1, r3, [r4, #8]
 800721a:	ea43 4301 	orr.w	r3, r3, r1, lsl #16
 800721e:	6113      	str	r3, [r2, #16]
 8007220:	f7ff ffa4 	bl	800716c <RTC_ExitInitMode>
 8007224:	b960      	cbnz	r0, 8007240 <HAL_RTC_Init+0x8c>
 8007226:	6822      	ldr	r2, [r4, #0]
 8007228:	6993      	ldr	r3, [r2, #24]
 800722a:	f023 4360 	bic.w	r3, r3, #3758096384	; 0xe0000000
 800722e:	6193      	str	r3, [r2, #24]
 8007230:	6991      	ldr	r1, [r2, #24]
 8007232:	e9d4 5307 	ldrd	r5, r3, [r4, #28]
 8007236:	432b      	orrs	r3, r5
 8007238:	6965      	ldr	r5, [r4, #20]
 800723a:	432b      	orrs	r3, r5
 800723c:	430b      	orrs	r3, r1
 800723e:	6193      	str	r3, [r2, #24]
 8007240:	6823      	ldr	r3, [r4, #0]
 8007242:	22ff      	movs	r2, #255	; 0xff
 8007244:	625a      	str	r2, [r3, #36]	; 0x24
 8007246:	2800      	cmp	r0, #0
 8007248:	d0c8      	beq.n	80071dc <HAL_RTC_Init+0x28>
 800724a:	e7cb      	b.n	80071e4 <HAL_RTC_Init+0x30>
 800724c:	2001      	movs	r0, #1
 800724e:	e7c9      	b.n	80071e4 <HAL_RTC_Init+0x30>

08007250 <HAL_SDRAM_Init>:
 8007250:	b538      	push	{r3, r4, r5, lr}
 8007252:	460d      	mov	r5, r1
 8007254:	4604      	mov	r4, r0
 8007256:	b1f0      	cbz	r0, 8007296 <HAL_SDRAM_Init+0x46>
 8007258:	f890 302c 	ldrb.w	r3, [r0, #44]	; 0x2c
 800725c:	f003 02ff 	and.w	r2, r3, #255	; 0xff
 8007260:	b91b      	cbnz	r3, 800726a <HAL_SDRAM_Init+0x1a>
 8007262:	f880 202d 	strb.w	r2, [r0, #45]	; 0x2d
 8007266:	f7f9 fb93 	bl	8000990 <HAL_SDRAM_MspInit>
 800726a:	2302      	movs	r3, #2
 800726c:	1d21      	adds	r1, r4, #4
 800726e:	6820      	ldr	r0, [r4, #0]
 8007270:	f884 302c 	strb.w	r3, [r4, #44]	; 0x2c
 8007274:	f000 fe88 	bl	8007f88 <FMC_SDRAM_Init>
 8007278:	6862      	ldr	r2, [r4, #4]
 800727a:	4629      	mov	r1, r5
 800727c:	6820      	ldr	r0, [r4, #0]
 800727e:	f000 febe 	bl	8007ffe <FMC_SDRAM_Timing_Init>
 8007282:	4a06      	ldr	r2, [pc, #24]	; (800729c <HAL_SDRAM_Init+0x4c>)
 8007284:	2000      	movs	r0, #0
 8007286:	6813      	ldr	r3, [r2, #0]
 8007288:	f043 4300 	orr.w	r3, r3, #2147483648	; 0x80000000
 800728c:	6013      	str	r3, [r2, #0]
 800728e:	2301      	movs	r3, #1
 8007290:	f884 302c 	strb.w	r3, [r4, #44]	; 0x2c
 8007294:	bd38      	pop	{r3, r4, r5, pc}
 8007296:	2001      	movs	r0, #1
 8007298:	e7fc      	b.n	8007294 <HAL_SDRAM_Init+0x44>
 800729a:	bf00      	nop
 800729c:	52004000 	.word	0x52004000

080072a0 <HAL_SDRAM_SendCommand>:
 80072a0:	b570      	push	{r4, r5, r6, lr}
 80072a2:	f890 302c 	ldrb.w	r3, [r0, #44]	; 0x2c
 80072a6:	4605      	mov	r5, r0
 80072a8:	460e      	mov	r6, r1
 80072aa:	2b02      	cmp	r3, #2
 80072ac:	b2d8      	uxtb	r0, r3
 80072ae:	d010      	beq.n	80072d2 <HAL_SDRAM_SendCommand+0x32>
 80072b0:	f000 04fb 	and.w	r4, r0, #251	; 0xfb
 80072b4:	2c01      	cmp	r4, #1
 80072b6:	d110      	bne.n	80072da <HAL_SDRAM_SendCommand+0x3a>
 80072b8:	2302      	movs	r3, #2
 80072ba:	6828      	ldr	r0, [r5, #0]
 80072bc:	f885 302c 	strb.w	r3, [r5, #44]	; 0x2c
 80072c0:	f000 fed3 	bl	800806a <FMC_SDRAM_SendCommand>
 80072c4:	6833      	ldr	r3, [r6, #0]
 80072c6:	2b02      	cmp	r3, #2
 80072c8:	d104      	bne.n	80072d4 <HAL_SDRAM_SendCommand+0x34>
 80072ca:	2305      	movs	r3, #5
 80072cc:	f885 302c 	strb.w	r3, [r5, #44]	; 0x2c
 80072d0:	2000      	movs	r0, #0
 80072d2:	bd70      	pop	{r4, r5, r6, pc}
 80072d4:	f885 402c 	strb.w	r4, [r5, #44]	; 0x2c
 80072d8:	e7fa      	b.n	80072d0 <HAL_SDRAM_SendCommand+0x30>
 80072da:	2001      	movs	r0, #1
 80072dc:	e7f9      	b.n	80072d2 <HAL_SDRAM_SendCommand+0x32>

080072de <HAL_SDRAM_ProgramRefreshRate>:
 80072de:	b538      	push	{r3, r4, r5, lr}
 80072e0:	f890 302c 	ldrb.w	r3, [r0, #44]	; 0x2c
 80072e4:	4604      	mov	r4, r0
 80072e6:	2b02      	cmp	r3, #2
 80072e8:	b2d8      	uxtb	r0, r3
 80072ea:	d00d      	beq.n	8007308 <HAL_SDRAM_ProgramRefreshRate+0x2a>
 80072ec:	f894 302c 	ldrb.w	r3, [r4, #44]	; 0x2c
 80072f0:	2b01      	cmp	r3, #1
 80072f2:	b2dd      	uxtb	r5, r3
 80072f4:	d109      	bne.n	800730a <HAL_SDRAM_ProgramRefreshRate+0x2c>
 80072f6:	2302      	movs	r3, #2
 80072f8:	6820      	ldr	r0, [r4, #0]
 80072fa:	f884 302c 	strb.w	r3, [r4, #44]	; 0x2c
 80072fe:	f000 fec6 	bl	800808e <FMC_SDRAM_ProgramRefreshRate>
 8007302:	2000      	movs	r0, #0
 8007304:	f884 502c 	strb.w	r5, [r4, #44]	; 0x2c
 8007308:	bd38      	pop	{r3, r4, r5, pc}
 800730a:	2001      	movs	r0, #1
 800730c:	e7fc      	b.n	8007308 <HAL_SDRAM_ProgramRefreshRate+0x2a>
	...

08007310 <UART_EndRxTransfer>:
 8007310:	b510      	push	{r4, lr}
 8007312:	6802      	ldr	r2, [r0, #0]
 8007314:	e852 3f00 	ldrex	r3, [r2]
 8007318:	f423 7390 	bic.w	r3, r3, #288	; 0x120
 800731c:	e842 3100 	strex	r1, r3, [r2]
 8007320:	6802      	ldr	r2, [r0, #0]
 8007322:	2900      	cmp	r1, #0
 8007324:	d1f5      	bne.n	8007312 <UART_EndRxTransfer+0x2>
 8007326:	4c0f      	ldr	r4, [pc, #60]	; (8007364 <UART_EndRxTransfer+0x54>)
 8007328:	f102 0308 	add.w	r3, r2, #8
 800732c:	e853 3f00 	ldrex	r3, [r3]
 8007330:	4023      	ands	r3, r4
 8007332:	f102 0c08 	add.w	ip, r2, #8
 8007336:	e84c 3100 	strex	r1, r3, [ip]
 800733a:	2900      	cmp	r1, #0
 800733c:	d1f4      	bne.n	8007328 <UART_EndRxTransfer+0x18>
 800733e:	6ec3      	ldr	r3, [r0, #108]	; 0x6c
 8007340:	2b01      	cmp	r3, #1
 8007342:	d107      	bne.n	8007354 <UART_EndRxTransfer+0x44>
 8007344:	e852 3f00 	ldrex	r3, [r2]
 8007348:	f023 0310 	bic.w	r3, r3, #16
 800734c:	e842 3100 	strex	r1, r3, [r2]
 8007350:	2900      	cmp	r1, #0
 8007352:	d1f7      	bne.n	8007344 <UART_EndRxTransfer+0x34>
 8007354:	2320      	movs	r3, #32
 8007356:	f8c0 308c 	str.w	r3, [r0, #140]	; 0x8c
 800735a:	2300      	movs	r3, #0
 800735c:	66c3      	str	r3, [r0, #108]	; 0x6c
 800735e:	6743      	str	r3, [r0, #116]	; 0x74
 8007360:	bd10      	pop	{r4, pc}
 8007362:	bf00      	nop
 8007364:	effffffe 	.word	0xeffffffe

08007368 <HAL_UART_TxCpltCallback>:
 8007368:	4770      	bx	lr

0800736a <HAL_UART_ErrorCallback>:
 800736a:	4770      	bx	lr

0800736c <UART_DMAAbortOnError>:
 800736c:	b508      	push	{r3, lr}
 800736e:	6b80      	ldr	r0, [r0, #56]	; 0x38
 8007370:	2300      	movs	r3, #0
 8007372:	f8a0 305e 	strh.w	r3, [r0, #94]	; 0x5e
 8007376:	f8a0 3056 	strh.w	r3, [r0, #86]	; 0x56
 800737a:	f7ff fff6 	bl	800736a <HAL_UART_ErrorCallback>
 800737e:	bd08      	pop	{r3, pc}

08007380 <HAL_UARTEx_RxEventCallback>:
 8007380:	4770      	bx	lr
	...

08007384 <HAL_UART_IRQHandler>:
 8007384:	6803      	ldr	r3, [r0, #0]
 8007386:	e92d 41f0 	stmdb	sp!, {r4, r5, r6, r7, r8, lr}
 800738a:	69da      	ldr	r2, [r3, #28]
 800738c:	f640 060f 	movw	r6, #2063	; 0x80f
 8007390:	6819      	ldr	r1, [r3, #0]
 8007392:	4604      	mov	r4, r0
 8007394:	4232      	tst	r2, r6
 8007396:	689d      	ldr	r5, [r3, #8]
 8007398:	d110      	bne.n	80073bc <HAL_UART_IRQHandler+0x38>
 800739a:	0696      	lsls	r6, r2, #26
 800739c:	f140 8098 	bpl.w	80074d0 <HAL_UART_IRQHandler+0x14c>
 80073a0:	f001 0620 	and.w	r6, r1, #32
 80073a4:	f005 5780 	and.w	r7, r5, #268435456	; 0x10000000
 80073a8:	433e      	orrs	r6, r7
 80073aa:	f000 8091 	beq.w	80074d0 <HAL_UART_IRQHandler+0x14c>
 80073ae:	6f43      	ldr	r3, [r0, #116]	; 0x74
 80073b0:	2b00      	cmp	r3, #0
 80073b2:	f000 8086 	beq.w	80074c2 <HAL_UART_IRQHandler+0x13e>
 80073b6:	e8bd 41f0 	ldmia.w	sp!, {r4, r5, r6, r7, r8, lr}
 80073ba:	4718      	bx	r3
 80073bc:	4eaa      	ldr	r6, [pc, #680]	; (8007668 <HAL_UART_IRQHandler+0x2e4>)
 80073be:	48ab      	ldr	r0, [pc, #684]	; (800766c <HAL_UART_IRQHandler+0x2e8>)
 80073c0:	402e      	ands	r6, r5
 80073c2:	4008      	ands	r0, r1
 80073c4:	4330      	orrs	r0, r6
 80073c6:	f000 8083 	beq.w	80074d0 <HAL_UART_IRQHandler+0x14c>
 80073ca:	07d7      	lsls	r7, r2, #31
 80073cc:	d509      	bpl.n	80073e2 <HAL_UART_IRQHandler+0x5e>
 80073ce:	05c8      	lsls	r0, r1, #23
 80073d0:	d507      	bpl.n	80073e2 <HAL_UART_IRQHandler+0x5e>
 80073d2:	2001      	movs	r0, #1
 80073d4:	6218      	str	r0, [r3, #32]
 80073d6:	f8d4 0090 	ldr.w	r0, [r4, #144]	; 0x90
 80073da:	f040 0001 	orr.w	r0, r0, #1
 80073de:	f8c4 0090 	str.w	r0, [r4, #144]	; 0x90
 80073e2:	0797      	lsls	r7, r2, #30
 80073e4:	d509      	bpl.n	80073fa <HAL_UART_IRQHandler+0x76>
 80073e6:	07e8      	lsls	r0, r5, #31
 80073e8:	d507      	bpl.n	80073fa <HAL_UART_IRQHandler+0x76>
 80073ea:	2002      	movs	r0, #2
 80073ec:	6218      	str	r0, [r3, #32]
 80073ee:	f8d4 0090 	ldr.w	r0, [r4, #144]	; 0x90
 80073f2:	f040 0004 	orr.w	r0, r0, #4
 80073f6:	f8c4 0090 	str.w	r0, [r4, #144]	; 0x90
 80073fa:	0757      	lsls	r7, r2, #29
 80073fc:	d509      	bpl.n	8007412 <HAL_UART_IRQHandler+0x8e>
 80073fe:	07e8      	lsls	r0, r5, #31
 8007400:	d507      	bpl.n	8007412 <HAL_UART_IRQHandler+0x8e>
 8007402:	2004      	movs	r0, #4
 8007404:	6218      	str	r0, [r3, #32]
 8007406:	f8d4 0090 	ldr.w	r0, [r4, #144]	; 0x90
 800740a:	f040 0002 	orr.w	r0, r0, #2
 800740e:	f8c4 0090 	str.w	r0, [r4, #144]	; 0x90
 8007412:	0717      	lsls	r7, r2, #28
 8007414:	d50b      	bpl.n	800742e <HAL_UART_IRQHandler+0xaa>
 8007416:	f001 0020 	and.w	r0, r1, #32
 800741a:	4330      	orrs	r0, r6
 800741c:	d007      	beq.n	800742e <HAL_UART_IRQHandler+0xaa>
 800741e:	2008      	movs	r0, #8
 8007420:	6218      	str	r0, [r3, #32]
 8007422:	f8d4 0090 	ldr.w	r0, [r4, #144]	; 0x90
 8007426:	f040 0008 	orr.w	r0, r0, #8
 800742a:	f8c4 0090 	str.w	r0, [r4, #144]	; 0x90
 800742e:	0516      	lsls	r6, r2, #20
 8007430:	d50a      	bpl.n	8007448 <HAL_UART_IRQHandler+0xc4>
 8007432:	0148      	lsls	r0, r1, #5
 8007434:	d508      	bpl.n	8007448 <HAL_UART_IRQHandler+0xc4>
 8007436:	f44f 6000 	mov.w	r0, #2048	; 0x800
 800743a:	6218      	str	r0, [r3, #32]
 800743c:	f8d4 3090 	ldr.w	r3, [r4, #144]	; 0x90
 8007440:	f043 0320 	orr.w	r3, r3, #32
 8007444:	f8c4 3090 	str.w	r3, [r4, #144]	; 0x90
 8007448:	f8d4 3090 	ldr.w	r3, [r4, #144]	; 0x90
 800744c:	2b00      	cmp	r3, #0
 800744e:	d038      	beq.n	80074c2 <HAL_UART_IRQHandler+0x13e>
 8007450:	0693      	lsls	r3, r2, #26
 8007452:	d50a      	bpl.n	800746a <HAL_UART_IRQHandler+0xe6>
 8007454:	f001 0120 	and.w	r1, r1, #32
 8007458:	f005 5580 	and.w	r5, r5, #268435456	; 0x10000000
 800745c:	ea51 0305 	orrs.w	r3, r1, r5
 8007460:	d003      	beq.n	800746a <HAL_UART_IRQHandler+0xe6>
 8007462:	6f63      	ldr	r3, [r4, #116]	; 0x74
 8007464:	b10b      	cbz	r3, 800746a <HAL_UART_IRQHandler+0xe6>
 8007466:	4620      	mov	r0, r4
 8007468:	4798      	blx	r3
 800746a:	6823      	ldr	r3, [r4, #0]
 800746c:	4620      	mov	r0, r4
 800746e:	f8d4 5090 	ldr.w	r5, [r4, #144]	; 0x90
 8007472:	689b      	ldr	r3, [r3, #8]
 8007474:	f005 0528 	and.w	r5, r5, #40	; 0x28
 8007478:	f003 0340 	and.w	r3, r3, #64	; 0x40
 800747c:	431d      	orrs	r5, r3
 800747e:	d022      	beq.n	80074c6 <HAL_UART_IRQHandler+0x142>
 8007480:	f7ff ff46 	bl	8007310 <UART_EndRxTransfer>
 8007484:	6822      	ldr	r2, [r4, #0]
 8007486:	6893      	ldr	r3, [r2, #8]
 8007488:	065f      	lsls	r7, r3, #25
 800748a:	d517      	bpl.n	80074bc <HAL_UART_IRQHandler+0x138>
 800748c:	f102 0308 	add.w	r3, r2, #8
 8007490:	e853 3f00 	ldrex	r3, [r3]
 8007494:	f023 0340 	bic.w	r3, r3, #64	; 0x40
 8007498:	f102 0008 	add.w	r0, r2, #8
 800749c:	e840 3100 	strex	r1, r3, [r0]
 80074a0:	2900      	cmp	r1, #0
 80074a2:	d1f3      	bne.n	800748c <HAL_UART_IRQHandler+0x108>
 80074a4:	f8d4 0080 	ldr.w	r0, [r4, #128]	; 0x80
 80074a8:	b140      	cbz	r0, 80074bc <HAL_UART_IRQHandler+0x138>
 80074aa:	4b71      	ldr	r3, [pc, #452]	; (8007670 <HAL_UART_IRQHandler+0x2ec>)
 80074ac:	6503      	str	r3, [r0, #80]	; 0x50
 80074ae:	f7fc fb4f 	bl	8003b50 <HAL_DMA_Abort_IT>
 80074b2:	b130      	cbz	r0, 80074c2 <HAL_UART_IRQHandler+0x13e>
 80074b4:	f8d4 0080 	ldr.w	r0, [r4, #128]	; 0x80
 80074b8:	6d03      	ldr	r3, [r0, #80]	; 0x50
 80074ba:	e77c      	b.n	80073b6 <HAL_UART_IRQHandler+0x32>
 80074bc:	4620      	mov	r0, r4
 80074be:	f7ff ff54 	bl	800736a <HAL_UART_ErrorCallback>
 80074c2:	e8bd 81f0 	ldmia.w	sp!, {r4, r5, r6, r7, r8, pc}
 80074c6:	f7ff ff50 	bl	800736a <HAL_UART_ErrorCallback>
 80074ca:	f8c4 5090 	str.w	r5, [r4, #144]	; 0x90
 80074ce:	e7f8      	b.n	80074c2 <HAL_UART_IRQHandler+0x13e>
 80074d0:	6ee0      	ldr	r0, [r4, #108]	; 0x6c
 80074d2:	2801      	cmp	r0, #1
 80074d4:	f040 80ae 	bne.w	8007634 <HAL_UART_IRQHandler+0x2b0>
 80074d8:	06d6      	lsls	r6, r2, #27
 80074da:	f140 80ab 	bpl.w	8007634 <HAL_UART_IRQHandler+0x2b0>
 80074de:	06c8      	lsls	r0, r1, #27
 80074e0:	f140 80a8 	bpl.w	8007634 <HAL_UART_IRQHandler+0x2b0>
 80074e4:	2210      	movs	r2, #16
 80074e6:	621a      	str	r2, [r3, #32]
 80074e8:	689a      	ldr	r2, [r3, #8]
 80074ea:	0652      	lsls	r2, r2, #25
 80074ec:	d56e      	bpl.n	80075cc <HAL_UART_IRQHandler+0x248>
 80074ee:	f8d4 1080 	ldr.w	r1, [r4, #128]	; 0x80
 80074f2:	4860      	ldr	r0, [pc, #384]	; (8007674 <HAL_UART_IRQHandler+0x2f0>)
 80074f4:	680a      	ldr	r2, [r1, #0]
 80074f6:	4282      	cmp	r2, r0
 80074f8:	d01e      	beq.n	8007538 <HAL_UART_IRQHandler+0x1b4>
 80074fa:	3018      	adds	r0, #24
 80074fc:	4282      	cmp	r2, r0
 80074fe:	d01b      	beq.n	8007538 <HAL_UART_IRQHandler+0x1b4>
 8007500:	3018      	adds	r0, #24
 8007502:	4282      	cmp	r2, r0
 8007504:	d018      	beq.n	8007538 <HAL_UART_IRQHandler+0x1b4>
 8007506:	3018      	adds	r0, #24
 8007508:	4282      	cmp	r2, r0
 800750a:	d015      	beq.n	8007538 <HAL_UART_IRQHandler+0x1b4>
 800750c:	3018      	adds	r0, #24
 800750e:	4282      	cmp	r2, r0
 8007510:	d012      	beq.n	8007538 <HAL_UART_IRQHandler+0x1b4>
 8007512:	3018      	adds	r0, #24
 8007514:	4282      	cmp	r2, r0
 8007516:	d00f      	beq.n	8007538 <HAL_UART_IRQHandler+0x1b4>
 8007518:	3018      	adds	r0, #24
 800751a:	4282      	cmp	r2, r0
 800751c:	d00c      	beq.n	8007538 <HAL_UART_IRQHandler+0x1b4>
 800751e:	3018      	adds	r0, #24
 8007520:	4282      	cmp	r2, r0
 8007522:	d009      	beq.n	8007538 <HAL_UART_IRQHandler+0x1b4>
 8007524:	f500 7056 	add.w	r0, r0, #856	; 0x358
 8007528:	4282      	cmp	r2, r0
 800752a:	d005      	beq.n	8007538 <HAL_UART_IRQHandler+0x1b4>
 800752c:	3018      	adds	r0, #24
 800752e:	4282      	cmp	r2, r0
 8007530:	d002      	beq.n	8007538 <HAL_UART_IRQHandler+0x1b4>
 8007532:	3018      	adds	r0, #24
 8007534:	4282      	cmp	r2, r0
 8007536:	d0ff      	beq.n	8007538 <HAL_UART_IRQHandler+0x1b4>
 8007538:	6852      	ldr	r2, [r2, #4]
 800753a:	b292      	uxth	r2, r2
 800753c:	2a00      	cmp	r2, #0
 800753e:	d0c0      	beq.n	80074c2 <HAL_UART_IRQHandler+0x13e>
 8007540:	f8b4 005c 	ldrh.w	r0, [r4, #92]	; 0x5c
 8007544:	4290      	cmp	r0, r2
 8007546:	d9bc      	bls.n	80074c2 <HAL_UART_IRQHandler+0x13e>
 8007548:	f8a4 205e 	strh.w	r2, [r4, #94]	; 0x5e
 800754c:	69ca      	ldr	r2, [r1, #28]
 800754e:	f5b2 7f80 	cmp.w	r2, #256	; 0x100
 8007552:	d02f      	beq.n	80075b4 <HAL_UART_IRQHandler+0x230>
 8007554:	e853 2f00 	ldrex	r2, [r3]
 8007558:	f422 7280 	bic.w	r2, r2, #256	; 0x100
 800755c:	e843 2100 	strex	r1, r2, [r3]
 8007560:	2900      	cmp	r1, #0
 8007562:	d1f7      	bne.n	8007554 <HAL_UART_IRQHandler+0x1d0>
 8007564:	f103 0208 	add.w	r2, r3, #8
 8007568:	e852 2f00 	ldrex	r2, [r2]
 800756c:	f022 0201 	bic.w	r2, r2, #1
 8007570:	f103 0008 	add.w	r0, r3, #8
 8007574:	e840 2100 	strex	r1, r2, [r0]
 8007578:	2900      	cmp	r1, #0
 800757a:	d1f3      	bne.n	8007564 <HAL_UART_IRQHandler+0x1e0>
 800757c:	f103 0208 	add.w	r2, r3, #8
 8007580:	e852 2f00 	ldrex	r2, [r2]
 8007584:	f022 0240 	bic.w	r2, r2, #64	; 0x40
 8007588:	f103 0008 	add.w	r0, r3, #8
 800758c:	e840 2100 	strex	r1, r2, [r0]
 8007590:	2900      	cmp	r1, #0
 8007592:	d1f3      	bne.n	800757c <HAL_UART_IRQHandler+0x1f8>
 8007594:	2220      	movs	r2, #32
 8007596:	f8c4 208c 	str.w	r2, [r4, #140]	; 0x8c
 800759a:	66e1      	str	r1, [r4, #108]	; 0x6c
 800759c:	e853 2f00 	ldrex	r2, [r3]
 80075a0:	f022 0210 	bic.w	r2, r2, #16
 80075a4:	e843 2100 	strex	r1, r2, [r3]
 80075a8:	2900      	cmp	r1, #0
 80075aa:	d1f7      	bne.n	800759c <HAL_UART_IRQHandler+0x218>
 80075ac:	f8d4 0080 	ldr.w	r0, [r4, #128]	; 0x80
 80075b0:	f7fc f928 	bl	8003804 <HAL_DMA_Abort>
 80075b4:	2302      	movs	r3, #2
 80075b6:	f8b4 105c 	ldrh.w	r1, [r4, #92]	; 0x5c
 80075ba:	6723      	str	r3, [r4, #112]	; 0x70
 80075bc:	f8b4 305e 	ldrh.w	r3, [r4, #94]	; 0x5e
 80075c0:	1ac9      	subs	r1, r1, r3
 80075c2:	b289      	uxth	r1, r1
 80075c4:	4620      	mov	r0, r4
 80075c6:	f7ff fedb 	bl	8007380 <HAL_UARTEx_RxEventCallback>
 80075ca:	e77a      	b.n	80074c2 <HAL_UART_IRQHandler+0x13e>
 80075cc:	f8b4 105e 	ldrh.w	r1, [r4, #94]	; 0x5e
 80075d0:	b28a      	uxth	r2, r1
 80075d2:	f8b4 105e 	ldrh.w	r1, [r4, #94]	; 0x5e
 80075d6:	b289      	uxth	r1, r1
 80075d8:	2900      	cmp	r1, #0
 80075da:	f43f af72 	beq.w	80074c2 <HAL_UART_IRQHandler+0x13e>
 80075de:	f8b4 105c 	ldrh.w	r1, [r4, #92]	; 0x5c
 80075e2:	1a89      	subs	r1, r1, r2
 80075e4:	b289      	uxth	r1, r1
 80075e6:	2900      	cmp	r1, #0
 80075e8:	f43f af6b 	beq.w	80074c2 <HAL_UART_IRQHandler+0x13e>
 80075ec:	e853 2f00 	ldrex	r2, [r3]
 80075f0:	f422 7290 	bic.w	r2, r2, #288	; 0x120
 80075f4:	e843 2000 	strex	r0, r2, [r3]
 80075f8:	2800      	cmp	r0, #0
 80075fa:	d1f7      	bne.n	80075ec <HAL_UART_IRQHandler+0x268>
 80075fc:	4d1e      	ldr	r5, [pc, #120]	; (8007678 <HAL_UART_IRQHandler+0x2f4>)
 80075fe:	f103 0208 	add.w	r2, r3, #8
 8007602:	e852 2f00 	ldrex	r2, [r2]
 8007606:	402a      	ands	r2, r5
 8007608:	f103 0608 	add.w	r6, r3, #8
 800760c:	e846 2000 	strex	r0, r2, [r6]
 8007610:	2800      	cmp	r0, #0
 8007612:	d1f4      	bne.n	80075fe <HAL_UART_IRQHandler+0x27a>
 8007614:	2220      	movs	r2, #32
 8007616:	6760      	str	r0, [r4, #116]	; 0x74
 8007618:	f8c4 208c 	str.w	r2, [r4, #140]	; 0x8c
 800761c:	66e0      	str	r0, [r4, #108]	; 0x6c
 800761e:	e853 2f00 	ldrex	r2, [r3]
 8007622:	f022 0210 	bic.w	r2, r2, #16
 8007626:	e843 2000 	strex	r0, r2, [r3]
 800762a:	2800      	cmp	r0, #0
 800762c:	d1f7      	bne.n	800761e <HAL_UART_IRQHandler+0x29a>
 800762e:	2302      	movs	r3, #2
 8007630:	6723      	str	r3, [r4, #112]	; 0x70
 8007632:	e7c7      	b.n	80075c4 <HAL_UART_IRQHandler+0x240>
 8007634:	02d7      	lsls	r7, r2, #11
 8007636:	d509      	bpl.n	800764c <HAL_UART_IRQHandler+0x2c8>
 8007638:	026e      	lsls	r6, r5, #9
 800763a:	d507      	bpl.n	800764c <HAL_UART_IRQHandler+0x2c8>
 800763c:	f44f 1280 	mov.w	r2, #1048576	; 0x100000
 8007640:	4620      	mov	r0, r4
 8007642:	621a      	str	r2, [r3, #32]
 8007644:	e8bd 41f0 	ldmia.w	sp!, {r4, r5, r6, r7, r8, lr}
 8007648:	f000 bc38 	b.w	8007ebc <HAL_UARTEx_WakeupCallback>
 800764c:	0610      	lsls	r0, r2, #24
 800764e:	d515      	bpl.n	800767c <HAL_UART_IRQHandler+0x2f8>
 8007650:	f001 0080 	and.w	r0, r1, #128	; 0x80
 8007654:	f405 0500 	and.w	r5, r5, #8388608	; 0x800000
 8007658:	4328      	orrs	r0, r5
 800765a:	d00f      	beq.n	800767c <HAL_UART_IRQHandler+0x2f8>
 800765c:	6fa3      	ldr	r3, [r4, #120]	; 0x78
 800765e:	2b00      	cmp	r3, #0
 8007660:	f43f af2f 	beq.w	80074c2 <HAL_UART_IRQHandler+0x13e>
 8007664:	4620      	mov	r0, r4
 8007666:	e6a6      	b.n	80073b6 <HAL_UART_IRQHandler+0x32>
 8007668:	10000001 	.word	0x10000001
 800766c:	04000120 	.word	0x04000120
 8007670:	0800736d 	.word	0x0800736d
 8007674:	40020010 	.word	0x40020010
 8007678:	effffffe 	.word	0xeffffffe
 800767c:	0657      	lsls	r7, r2, #25
 800767e:	d511      	bpl.n	80076a4 <HAL_UART_IRQHandler+0x320>
 8007680:	064e      	lsls	r6, r1, #25
 8007682:	d50f      	bpl.n	80076a4 <HAL_UART_IRQHandler+0x320>
 8007684:	e853 2f00 	ldrex	r2, [r3]
 8007688:	f022 0240 	bic.w	r2, r2, #64	; 0x40
 800768c:	e843 2100 	strex	r1, r2, [r3]
 8007690:	2900      	cmp	r1, #0
 8007692:	d1f7      	bne.n	8007684 <HAL_UART_IRQHandler+0x300>
 8007694:	2320      	movs	r3, #32
 8007696:	4620      	mov	r0, r4
 8007698:	67a1      	str	r1, [r4, #120]	; 0x78
 800769a:	f8c4 3088 	str.w	r3, [r4, #136]	; 0x88
 800769e:	f7ff fe63 	bl	8007368 <HAL_UART_TxCpltCallback>
 80076a2:	e70e      	b.n	80074c2 <HAL_UART_IRQHandler+0x13e>
 80076a4:	0215      	lsls	r5, r2, #8
 80076a6:	d506      	bpl.n	80076b6 <HAL_UART_IRQHandler+0x332>
 80076a8:	0048      	lsls	r0, r1, #1
 80076aa:	d504      	bpl.n	80076b6 <HAL_UART_IRQHandler+0x332>
 80076ac:	4620      	mov	r0, r4
 80076ae:	e8bd 41f0 	ldmia.w	sp!, {r4, r5, r6, r7, r8, lr}
 80076b2:	f000 bc05 	b.w	8007ec0 <HAL_UARTEx_TxFifoEmptyCallback>
 80076b6:	01d3      	lsls	r3, r2, #7
 80076b8:	f57f af03 	bpl.w	80074c2 <HAL_UART_IRQHandler+0x13e>
 80076bc:	2900      	cmp	r1, #0
 80076be:	f6bf af00 	bge.w	80074c2 <HAL_UART_IRQHandler+0x13e>
 80076c2:	4620      	mov	r0, r4
 80076c4:	e8bd 41f0 	ldmia.w	sp!, {r4, r5, r6, r7, r8, lr}
 80076c8:	f000 bbf9 	b.w	8007ebe <HAL_UARTEx_RxFifoFullCallback>

080076cc <UART_SetConfig>:
 80076cc:	b530      	push	{r4, r5, lr}
 80076ce:	4604      	mov	r4, r0
 80076d0:	6803      	ldr	r3, [r0, #0]
 80076d2:	69c0      	ldr	r0, [r0, #28]
 80076d4:	b087      	sub	sp, #28
 80076d6:	6921      	ldr	r1, [r4, #16]
 80076d8:	68a2      	ldr	r2, [r4, #8]
 80076da:	681d      	ldr	r5, [r3, #0]
 80076dc:	430a      	orrs	r2, r1
 80076de:	6961      	ldr	r1, [r4, #20]
 80076e0:	430a      	orrs	r2, r1
 80076e2:	4999      	ldr	r1, [pc, #612]	; (8007948 <UART_SetConfig+0x27c>)
 80076e4:	4302      	orrs	r2, r0
 80076e6:	4029      	ands	r1, r5
 80076e8:	430a      	orrs	r2, r1
 80076ea:	68e1      	ldr	r1, [r4, #12]
 80076ec:	601a      	str	r2, [r3, #0]
 80076ee:	685a      	ldr	r2, [r3, #4]
 80076f0:	f422 5240 	bic.w	r2, r2, #12288	; 0x3000
 80076f4:	430a      	orrs	r2, r1
 80076f6:	69a1      	ldr	r1, [r4, #24]
 80076f8:	605a      	str	r2, [r3, #4]
 80076fa:	4a94      	ldr	r2, [pc, #592]	; (800794c <UART_SetConfig+0x280>)
 80076fc:	4293      	cmp	r3, r2
 80076fe:	bf1c      	itt	ne
 8007700:	6a22      	ldrne	r2, [r4, #32]
 8007702:	4311      	orrne	r1, r2
 8007704:	689a      	ldr	r2, [r3, #8]
 8007706:	f022 426e 	bic.w	r2, r2, #3992977408	; 0xee000000
 800770a:	f422 6230 	bic.w	r2, r2, #2816	; 0xb00
 800770e:	430a      	orrs	r2, r1
 8007710:	6a61      	ldr	r1, [r4, #36]	; 0x24
 8007712:	609a      	str	r2, [r3, #8]
 8007714:	6ada      	ldr	r2, [r3, #44]	; 0x2c
 8007716:	f022 020f 	bic.w	r2, r2, #15
 800771a:	430a      	orrs	r2, r1
 800771c:	62da      	str	r2, [r3, #44]	; 0x2c
 800771e:	4a8c      	ldr	r2, [pc, #560]	; (8007950 <UART_SetConfig+0x284>)
 8007720:	4293      	cmp	r3, r2
 8007722:	d11c      	bne.n	800775e <UART_SetConfig+0x92>
 8007724:	4b8b      	ldr	r3, [pc, #556]	; (8007954 <UART_SetConfig+0x288>)
 8007726:	6d5b      	ldr	r3, [r3, #84]	; 0x54
 8007728:	f003 0338 	and.w	r3, r3, #56	; 0x38
 800772c:	2b28      	cmp	r3, #40	; 0x28
 800772e:	f200 8083 	bhi.w	8007838 <UART_SetConfig+0x16c>
 8007732:	4a89      	ldr	r2, [pc, #548]	; (8007958 <UART_SetConfig+0x28c>)
 8007734:	f5b0 4f00 	cmp.w	r0, #32768	; 0x8000
 8007738:	5cd3      	ldrb	r3, [r2, r3]
 800773a:	f040 8152 	bne.w	80079e2 <UART_SetConfig+0x316>
 800773e:	2b08      	cmp	r3, #8
 8007740:	f200 80d6 	bhi.w	80078f0 <UART_SetConfig+0x224>
 8007744:	2b08      	cmp	r3, #8
 8007746:	d877      	bhi.n	8007838 <UART_SetConfig+0x16c>
 8007748:	e8df f013 	tbh	[pc, r3, lsl #1]
 800774c:	013c0136 	.word	0x013c0136
 8007750:	00760076 	.word	0x00760076
 8007754:	0076013f 	.word	0x0076013f
 8007758:	00760076 	.word	0x00760076
 800775c:	0144      	.short	0x0144
 800775e:	4a7f      	ldr	r2, [pc, #508]	; (800795c <UART_SetConfig+0x290>)
 8007760:	4293      	cmp	r3, r2
 8007762:	d107      	bne.n	8007774 <UART_SetConfig+0xa8>
 8007764:	4b7b      	ldr	r3, [pc, #492]	; (8007954 <UART_SetConfig+0x288>)
 8007766:	6d5b      	ldr	r3, [r3, #84]	; 0x54
 8007768:	f003 0307 	and.w	r3, r3, #7
 800776c:	2b05      	cmp	r3, #5
 800776e:	d863      	bhi.n	8007838 <UART_SetConfig+0x16c>
 8007770:	4a7b      	ldr	r2, [pc, #492]	; (8007960 <UART_SetConfig+0x294>)
 8007772:	e7df      	b.n	8007734 <UART_SetConfig+0x68>
 8007774:	4a7b      	ldr	r2, [pc, #492]	; (8007964 <UART_SetConfig+0x298>)
 8007776:	4293      	cmp	r3, r2
 8007778:	d107      	bne.n	800778a <UART_SetConfig+0xbe>
 800777a:	4b76      	ldr	r3, [pc, #472]	; (8007954 <UART_SetConfig+0x288>)
 800777c:	6d5b      	ldr	r3, [r3, #84]	; 0x54
 800777e:	f003 0307 	and.w	r3, r3, #7
 8007782:	2b05      	cmp	r3, #5
 8007784:	d858      	bhi.n	8007838 <UART_SetConfig+0x16c>
 8007786:	4a78      	ldr	r2, [pc, #480]	; (8007968 <UART_SetConfig+0x29c>)
 8007788:	e7d4      	b.n	8007734 <UART_SetConfig+0x68>
 800778a:	4a78      	ldr	r2, [pc, #480]	; (800796c <UART_SetConfig+0x2a0>)
 800778c:	4293      	cmp	r3, r2
 800778e:	d107      	bne.n	80077a0 <UART_SetConfig+0xd4>
 8007790:	4b70      	ldr	r3, [pc, #448]	; (8007954 <UART_SetConfig+0x288>)
 8007792:	6d5b      	ldr	r3, [r3, #84]	; 0x54
 8007794:	f003 0307 	and.w	r3, r3, #7
 8007798:	2b05      	cmp	r3, #5
 800779a:	d84d      	bhi.n	8007838 <UART_SetConfig+0x16c>
 800779c:	4a74      	ldr	r2, [pc, #464]	; (8007970 <UART_SetConfig+0x2a4>)
 800779e:	e7c9      	b.n	8007734 <UART_SetConfig+0x68>
 80077a0:	4a74      	ldr	r2, [pc, #464]	; (8007974 <UART_SetConfig+0x2a8>)
 80077a2:	4293      	cmp	r3, r2
 80077a4:	d107      	bne.n	80077b6 <UART_SetConfig+0xea>
 80077a6:	4b6b      	ldr	r3, [pc, #428]	; (8007954 <UART_SetConfig+0x288>)
 80077a8:	6d5b      	ldr	r3, [r3, #84]	; 0x54
 80077aa:	f003 0307 	and.w	r3, r3, #7
 80077ae:	2b05      	cmp	r3, #5
 80077b0:	d842      	bhi.n	8007838 <UART_SetConfig+0x16c>
 80077b2:	4a71      	ldr	r2, [pc, #452]	; (8007978 <UART_SetConfig+0x2ac>)
 80077b4:	e7be      	b.n	8007734 <UART_SetConfig+0x68>
 80077b6:	4a71      	ldr	r2, [pc, #452]	; (800797c <UART_SetConfig+0x2b0>)
 80077b8:	4293      	cmp	r3, r2
 80077ba:	d107      	bne.n	80077cc <UART_SetConfig+0x100>
 80077bc:	4b65      	ldr	r3, [pc, #404]	; (8007954 <UART_SetConfig+0x288>)
 80077be:	6d5b      	ldr	r3, [r3, #84]	; 0x54
 80077c0:	f003 0338 	and.w	r3, r3, #56	; 0x38
 80077c4:	2b28      	cmp	r3, #40	; 0x28
 80077c6:	d837      	bhi.n	8007838 <UART_SetConfig+0x16c>
 80077c8:	4a6d      	ldr	r2, [pc, #436]	; (8007980 <UART_SetConfig+0x2b4>)
 80077ca:	e7b3      	b.n	8007734 <UART_SetConfig+0x68>
 80077cc:	4a6d      	ldr	r2, [pc, #436]	; (8007984 <UART_SetConfig+0x2b8>)
 80077ce:	4293      	cmp	r3, r2
 80077d0:	d107      	bne.n	80077e2 <UART_SetConfig+0x116>
 80077d2:	4b60      	ldr	r3, [pc, #384]	; (8007954 <UART_SetConfig+0x288>)
 80077d4:	6d5b      	ldr	r3, [r3, #84]	; 0x54
 80077d6:	f003 0307 	and.w	r3, r3, #7
 80077da:	2b05      	cmp	r3, #5
 80077dc:	d82c      	bhi.n	8007838 <UART_SetConfig+0x16c>
 80077de:	4a6a      	ldr	r2, [pc, #424]	; (8007988 <UART_SetConfig+0x2bc>)
 80077e0:	e7a8      	b.n	8007734 <UART_SetConfig+0x68>
 80077e2:	4a6a      	ldr	r2, [pc, #424]	; (800798c <UART_SetConfig+0x2c0>)
 80077e4:	4293      	cmp	r3, r2
 80077e6:	d107      	bne.n	80077f8 <UART_SetConfig+0x12c>
 80077e8:	4b5a      	ldr	r3, [pc, #360]	; (8007954 <UART_SetConfig+0x288>)
 80077ea:	6d5b      	ldr	r3, [r3, #84]	; 0x54
 80077ec:	f003 0307 	and.w	r3, r3, #7
 80077f0:	2b05      	cmp	r3, #5
 80077f2:	d821      	bhi.n	8007838 <UART_SetConfig+0x16c>
 80077f4:	4a66      	ldr	r2, [pc, #408]	; (8007990 <UART_SetConfig+0x2c4>)
 80077f6:	e79d      	b.n	8007734 <UART_SetConfig+0x68>
 80077f8:	4a66      	ldr	r2, [pc, #408]	; (8007994 <UART_SetConfig+0x2c8>)
 80077fa:	4293      	cmp	r3, r2
 80077fc:	d107      	bne.n	800780e <UART_SetConfig+0x142>
 80077fe:	4b55      	ldr	r3, [pc, #340]	; (8007954 <UART_SetConfig+0x288>)
 8007800:	6d5b      	ldr	r3, [r3, #84]	; 0x54
 8007802:	f003 0338 	and.w	r3, r3, #56	; 0x38
 8007806:	2b28      	cmp	r3, #40	; 0x28
 8007808:	d816      	bhi.n	8007838 <UART_SetConfig+0x16c>
 800780a:	4a63      	ldr	r2, [pc, #396]	; (8007998 <UART_SetConfig+0x2cc>)
 800780c:	e792      	b.n	8007734 <UART_SetConfig+0x68>
 800780e:	4a63      	ldr	r2, [pc, #396]	; (800799c <UART_SetConfig+0x2d0>)
 8007810:	4293      	cmp	r3, r2
 8007812:	d107      	bne.n	8007824 <UART_SetConfig+0x158>
 8007814:	4b4f      	ldr	r3, [pc, #316]	; (8007954 <UART_SetConfig+0x288>)
 8007816:	6d5b      	ldr	r3, [r3, #84]	; 0x54
 8007818:	f003 0338 	and.w	r3, r3, #56	; 0x38
 800781c:	2b28      	cmp	r3, #40	; 0x28
 800781e:	d80b      	bhi.n	8007838 <UART_SetConfig+0x16c>
 8007820:	4a5f      	ldr	r2, [pc, #380]	; (80079a0 <UART_SetConfig+0x2d4>)
 8007822:	e787      	b.n	8007734 <UART_SetConfig+0x68>
 8007824:	4a49      	ldr	r2, [pc, #292]	; (800794c <UART_SetConfig+0x280>)
 8007826:	4293      	cmp	r3, r2
 8007828:	d106      	bne.n	8007838 <UART_SetConfig+0x16c>
 800782a:	f502 320e 	add.w	r2, r2, #145408	; 0x23800
 800782e:	6d93      	ldr	r3, [r2, #88]	; 0x58
 8007830:	f003 0307 	and.w	r3, r3, #7
 8007834:	2b05      	cmp	r3, #5
 8007836:	d901      	bls.n	800783c <UART_SetConfig+0x170>
 8007838:	2001      	movs	r0, #1
 800783a:	e00e      	b.n	800785a <UART_SetConfig+0x18e>
 800783c:	4959      	ldr	r1, [pc, #356]	; (80079a4 <UART_SetConfig+0x2d8>)
 800783e:	5ccb      	ldrb	r3, [r1, r3]
 8007840:	2b10      	cmp	r3, #16
 8007842:	d023      	beq.n	800788c <UART_SetConfig+0x1c0>
 8007844:	d811      	bhi.n	800786a <UART_SetConfig+0x19e>
 8007846:	2b04      	cmp	r3, #4
 8007848:	d016      	beq.n	8007878 <UART_SetConfig+0x1ac>
 800784a:	2b08      	cmp	r3, #8
 800784c:	d019      	beq.n	8007882 <UART_SetConfig+0x1b6>
 800784e:	2b02      	cmp	r3, #2
 8007850:	d1f2      	bne.n	8007838 <UART_SetConfig+0x16c>
 8007852:	f7ff faed 	bl	8006e30 <HAL_RCCEx_GetD3PCLK1Freq>
 8007856:	bb10      	cbnz	r0, 800789e <UART_SetConfig+0x1d2>
 8007858:	2000      	movs	r0, #0
 800785a:	f04f 1301 	mov.w	r3, #65537	; 0x10001
 800785e:	66a3      	str	r3, [r4, #104]	; 0x68
 8007860:	2300      	movs	r3, #0
 8007862:	e9c4 331d 	strd	r3, r3, [r4, #116]	; 0x74
 8007866:	b007      	add	sp, #28
 8007868:	bd30      	pop	{r4, r5, pc}
 800786a:	2b20      	cmp	r3, #32
 800786c:	d03e      	beq.n	80078ec <UART_SetConfig+0x220>
 800786e:	2b40      	cmp	r3, #64	; 0x40
 8007870:	d1e2      	bne.n	8007838 <UART_SetConfig+0x16c>
 8007872:	f44f 4000 	mov.w	r0, #32768	; 0x8000
 8007876:	e012      	b.n	800789e <UART_SetConfig+0x1d2>
 8007878:	4668      	mov	r0, sp
 800787a:	f7ff faeb 	bl	8006e54 <HAL_RCCEx_GetPLL2ClockFreq>
 800787e:	9801      	ldr	r0, [sp, #4]
 8007880:	e7e9      	b.n	8007856 <UART_SetConfig+0x18a>
 8007882:	a803      	add	r0, sp, #12
 8007884:	f7ff fb8e 	bl	8006fa4 <HAL_RCCEx_GetPLL3ClockFreq>
 8007888:	9804      	ldr	r0, [sp, #16]
 800788a:	e7e4      	b.n	8007856 <UART_SetConfig+0x18a>
 800788c:	6813      	ldr	r3, [r2, #0]
 800788e:	4846      	ldr	r0, [pc, #280]	; (80079a8 <UART_SetConfig+0x2dc>)
 8007890:	f013 0f20 	tst.w	r3, #32
 8007894:	d003      	beq.n	800789e <UART_SetConfig+0x1d2>
 8007896:	6813      	ldr	r3, [r2, #0]
 8007898:	f3c3 03c1 	ubfx	r3, r3, #3, #2
 800789c:	40d8      	lsrs	r0, r3
 800789e:	4b43      	ldr	r3, [pc, #268]	; (80079ac <UART_SetConfig+0x2e0>)
 80078a0:	6a62      	ldr	r2, [r4, #36]	; 0x24
 80078a2:	6865      	ldr	r5, [r4, #4]
 80078a4:	f833 2012 	ldrh.w	r2, [r3, r2, lsl #1]
 80078a8:	eb05 0145 	add.w	r1, r5, r5, lsl #1
 80078ac:	fbb0 f3f2 	udiv	r3, r0, r2
 80078b0:	4299      	cmp	r1, r3
 80078b2:	d8c1      	bhi.n	8007838 <UART_SetConfig+0x16c>
 80078b4:	ebb3 3f05 	cmp.w	r3, r5, lsl #12
 80078b8:	d8be      	bhi.n	8007838 <UART_SetConfig+0x16c>
 80078ba:	2300      	movs	r3, #0
 80078bc:	4619      	mov	r1, r3
 80078be:	f7f8 fd15 	bl	80002ec <__aeabi_uldivmod>
 80078c2:	462a      	mov	r2, r5
 80078c4:	0209      	lsls	r1, r1, #8
 80078c6:	086b      	lsrs	r3, r5, #1
 80078c8:	ea41 6110 	orr.w	r1, r1, r0, lsr #24
 80078cc:	0200      	lsls	r0, r0, #8
 80078ce:	18c0      	adds	r0, r0, r3
 80078d0:	f04f 0300 	mov.w	r3, #0
 80078d4:	f141 0100 	adc.w	r1, r1, #0
 80078d8:	f7f8 fd08 	bl	80002ec <__aeabi_uldivmod>
 80078dc:	4b34      	ldr	r3, [pc, #208]	; (80079b0 <UART_SetConfig+0x2e4>)
 80078de:	f5a0 7240 	sub.w	r2, r0, #768	; 0x300
 80078e2:	429a      	cmp	r2, r3
 80078e4:	d8a8      	bhi.n	8007838 <UART_SetConfig+0x16c>
 80078e6:	6823      	ldr	r3, [r4, #0]
 80078e8:	60d8      	str	r0, [r3, #12]
 80078ea:	e7b5      	b.n	8007858 <UART_SetConfig+0x18c>
 80078ec:	4831      	ldr	r0, [pc, #196]	; (80079b4 <UART_SetConfig+0x2e8>)
 80078ee:	e7d6      	b.n	800789e <UART_SetConfig+0x1d2>
 80078f0:	2b20      	cmp	r3, #32
 80078f2:	d074      	beq.n	80079de <UART_SetConfig+0x312>
 80078f4:	2b40      	cmp	r3, #64	; 0x40
 80078f6:	d00b      	beq.n	8007910 <UART_SetConfig+0x244>
 80078f8:	2b10      	cmp	r3, #16
 80078fa:	d19d      	bne.n	8007838 <UART_SetConfig+0x16c>
 80078fc:	4b15      	ldr	r3, [pc, #84]	; (8007954 <UART_SetConfig+0x288>)
 80078fe:	482a      	ldr	r0, [pc, #168]	; (80079a8 <UART_SetConfig+0x2dc>)
 8007900:	681a      	ldr	r2, [r3, #0]
 8007902:	f012 0f20 	tst.w	r2, #32
 8007906:	d003      	beq.n	8007910 <UART_SetConfig+0x244>
 8007908:	681b      	ldr	r3, [r3, #0]
 800790a:	f3c3 03c1 	ubfx	r3, r3, #3, #2
 800790e:	40d8      	lsrs	r0, r3
 8007910:	6a61      	ldr	r1, [r4, #36]	; 0x24
 8007912:	4b26      	ldr	r3, [pc, #152]	; (80079ac <UART_SetConfig+0x2e0>)
 8007914:	6862      	ldr	r2, [r4, #4]
 8007916:	f833 3011 	ldrh.w	r3, [r3, r1, lsl #1]
 800791a:	fbb0 f3f3 	udiv	r3, r0, r3
 800791e:	0850      	lsrs	r0, r2, #1
 8007920:	eb00 0043 	add.w	r0, r0, r3, lsl #1
 8007924:	f64f 73ef 	movw	r3, #65519	; 0xffef
 8007928:	fbb0 f0f2 	udiv	r0, r0, r2
 800792c:	f1a0 0210 	sub.w	r2, r0, #16
 8007930:	429a      	cmp	r2, r3
 8007932:	d881      	bhi.n	8007838 <UART_SetConfig+0x16c>
 8007934:	f020 030f 	bic.w	r3, r0, #15
 8007938:	f3c0 0042 	ubfx	r0, r0, #1, #3
 800793c:	6822      	ldr	r2, [r4, #0]
 800793e:	b29b      	uxth	r3, r3
 8007940:	4318      	orrs	r0, r3
 8007942:	60d0      	str	r0, [r2, #12]
 8007944:	e788      	b.n	8007858 <UART_SetConfig+0x18c>
 8007946:	bf00      	nop
 8007948:	cfff69f3 	.word	0xcfff69f3
 800794c:	58000c00 	.word	0x58000c00
 8007950:	40011000 	.word	0x40011000
 8007954:	58024400 	.word	0x58024400
 8007958:	08008eda 	.word	0x08008eda
 800795c:	40004400 	.word	0x40004400
 8007960:	08008f03 	.word	0x08008f03
 8007964:	40004800 	.word	0x40004800
 8007968:	08008f03 	.word	0x08008f03
 800796c:	40004c00 	.word	0x40004c00
 8007970:	08008f03 	.word	0x08008f03
 8007974:	40005000 	.word	0x40005000
 8007978:	08008f03 	.word	0x08008f03
 800797c:	40011400 	.word	0x40011400
 8007980:	08008eda 	.word	0x08008eda
 8007984:	40007800 	.word	0x40007800
 8007988:	08008f03 	.word	0x08008f03
 800798c:	40007c00 	.word	0x40007c00
 8007990:	08008f03 	.word	0x08008f03
 8007994:	40011800 	.word	0x40011800
 8007998:	08008eda 	.word	0x08008eda
 800799c:	40011c00 	.word	0x40011c00
 80079a0:	08008eda 	.word	0x08008eda
 80079a4:	08008f09 	.word	0x08008f09
 80079a8:	03d09000 	.word	0x03d09000
 80079ac:	08008f10 	.word	0x08008f10
 80079b0:	000ffcff 	.word	0x000ffcff
 80079b4:	003d0900 	.word	0x003d0900
 80079b8:	f7fe fc48 	bl	800624c <HAL_RCC_GetPCLK1Freq>
 80079bc:	2800      	cmp	r0, #0
 80079be:	f43f af4b 	beq.w	8007858 <UART_SetConfig+0x18c>
 80079c2:	e7a5      	b.n	8007910 <UART_SetConfig+0x244>
 80079c4:	f7fe fc54 	bl	8006270 <HAL_RCC_GetPCLK2Freq>
 80079c8:	e7f8      	b.n	80079bc <UART_SetConfig+0x2f0>
 80079ca:	4668      	mov	r0, sp
 80079cc:	f7ff fa42 	bl	8006e54 <HAL_RCCEx_GetPLL2ClockFreq>
 80079d0:	9801      	ldr	r0, [sp, #4]
 80079d2:	e7f3      	b.n	80079bc <UART_SetConfig+0x2f0>
 80079d4:	a803      	add	r0, sp, #12
 80079d6:	f7ff fae5 	bl	8006fa4 <HAL_RCCEx_GetPLL3ClockFreq>
 80079da:	9804      	ldr	r0, [sp, #16]
 80079dc:	e7ee      	b.n	80079bc <UART_SetConfig+0x2f0>
 80079de:	482b      	ldr	r0, [pc, #172]	; (8007a8c <UART_SetConfig+0x3c0>)
 80079e0:	e796      	b.n	8007910 <UART_SetConfig+0x244>
 80079e2:	2b08      	cmp	r3, #8
 80079e4:	d818      	bhi.n	8007a18 <UART_SetConfig+0x34c>
 80079e6:	2b08      	cmp	r3, #8
 80079e8:	f63f af26 	bhi.w	8007838 <UART_SetConfig+0x16c>
 80079ec:	a201      	add	r2, pc, #4	; (adr r2, 80079f4 <UART_SetConfig+0x328>)
 80079ee:	f852 f023 	ldr.w	pc, [r2, r3, lsl #2]
 80079f2:	bf00      	nop
 80079f4:	08007a5b 	.word	0x08007a5b
 80079f8:	08007a67 	.word	0x08007a67
 80079fc:	08007839 	.word	0x08007839
 8007a00:	08007839 	.word	0x08007839
 8007a04:	08007a6d 	.word	0x08007a6d
 8007a08:	08007839 	.word	0x08007839
 8007a0c:	08007839 	.word	0x08007839
 8007a10:	08007839 	.word	0x08007839
 8007a14:	08007a77 	.word	0x08007a77
 8007a18:	2b20      	cmp	r3, #32
 8007a1a:	d031      	beq.n	8007a80 <UART_SetConfig+0x3b4>
 8007a1c:	2b40      	cmp	r3, #64	; 0x40
 8007a1e:	d031      	beq.n	8007a84 <UART_SetConfig+0x3b8>
 8007a20:	2b10      	cmp	r3, #16
 8007a22:	f47f af09 	bne.w	8007838 <UART_SetConfig+0x16c>
 8007a26:	4b1a      	ldr	r3, [pc, #104]	; (8007a90 <UART_SetConfig+0x3c4>)
 8007a28:	481a      	ldr	r0, [pc, #104]	; (8007a94 <UART_SetConfig+0x3c8>)
 8007a2a:	681a      	ldr	r2, [r3, #0]
 8007a2c:	f012 0f20 	tst.w	r2, #32
 8007a30:	d003      	beq.n	8007a3a <UART_SetConfig+0x36e>
 8007a32:	681b      	ldr	r3, [r3, #0]
 8007a34:	f3c3 03c1 	ubfx	r3, r3, #3, #2
 8007a38:	40d8      	lsrs	r0, r3
 8007a3a:	6a61      	ldr	r1, [r4, #36]	; 0x24
 8007a3c:	4a16      	ldr	r2, [pc, #88]	; (8007a98 <UART_SetConfig+0x3cc>)
 8007a3e:	6863      	ldr	r3, [r4, #4]
 8007a40:	f832 2011 	ldrh.w	r2, [r2, r1, lsl #1]
 8007a44:	fbb0 f0f2 	udiv	r0, r0, r2
 8007a48:	eb00 0053 	add.w	r0, r0, r3, lsr #1
 8007a4c:	fbb0 f0f3 	udiv	r0, r0, r3
 8007a50:	f64f 73ef 	movw	r3, #65519	; 0xffef
 8007a54:	f1a0 0210 	sub.w	r2, r0, #16
 8007a58:	e743      	b.n	80078e2 <UART_SetConfig+0x216>
 8007a5a:	f7fe fbf7 	bl	800624c <HAL_RCC_GetPCLK1Freq>
 8007a5e:	2800      	cmp	r0, #0
 8007a60:	f43f aefa 	beq.w	8007858 <UART_SetConfig+0x18c>
 8007a64:	e7e9      	b.n	8007a3a <UART_SetConfig+0x36e>
 8007a66:	f7fe fc03 	bl	8006270 <HAL_RCC_GetPCLK2Freq>
 8007a6a:	e7f8      	b.n	8007a5e <UART_SetConfig+0x392>
 8007a6c:	4668      	mov	r0, sp
 8007a6e:	f7ff f9f1 	bl	8006e54 <HAL_RCCEx_GetPLL2ClockFreq>
 8007a72:	9801      	ldr	r0, [sp, #4]
 8007a74:	e7f3      	b.n	8007a5e <UART_SetConfig+0x392>
 8007a76:	a803      	add	r0, sp, #12
 8007a78:	f7ff fa94 	bl	8006fa4 <HAL_RCCEx_GetPLL3ClockFreq>
 8007a7c:	9804      	ldr	r0, [sp, #16]
 8007a7e:	e7ee      	b.n	8007a5e <UART_SetConfig+0x392>
 8007a80:	4802      	ldr	r0, [pc, #8]	; (8007a8c <UART_SetConfig+0x3c0>)
 8007a82:	e7da      	b.n	8007a3a <UART_SetConfig+0x36e>
 8007a84:	f44f 4000 	mov.w	r0, #32768	; 0x8000
 8007a88:	e7d7      	b.n	8007a3a <UART_SetConfig+0x36e>
 8007a8a:	bf00      	nop
 8007a8c:	003d0900 	.word	0x003d0900
 8007a90:	58024400 	.word	0x58024400
 8007a94:	03d09000 	.word	0x03d09000
 8007a98:	08008f10 	.word	0x08008f10

08007a9c <UART_AdvFeatureConfig>:
 8007a9c:	6a83      	ldr	r3, [r0, #40]	; 0x28
 8007a9e:	07da      	lsls	r2, r3, #31
 8007aa0:	b510      	push	{r4, lr}
 8007aa2:	d506      	bpl.n	8007ab2 <UART_AdvFeatureConfig+0x16>
 8007aa4:	6801      	ldr	r1, [r0, #0]
 8007aa6:	6ac4      	ldr	r4, [r0, #44]	; 0x2c
 8007aa8:	684a      	ldr	r2, [r1, #4]
 8007aaa:	f422 3200 	bic.w	r2, r2, #131072	; 0x20000
 8007aae:	4322      	orrs	r2, r4
 8007ab0:	604a      	str	r2, [r1, #4]
 8007ab2:	079c      	lsls	r4, r3, #30
 8007ab4:	d506      	bpl.n	8007ac4 <UART_AdvFeatureConfig+0x28>
 8007ab6:	6801      	ldr	r1, [r0, #0]
 8007ab8:	6b04      	ldr	r4, [r0, #48]	; 0x30
 8007aba:	684a      	ldr	r2, [r1, #4]
 8007abc:	f422 3280 	bic.w	r2, r2, #65536	; 0x10000
 8007ac0:	4322      	orrs	r2, r4
 8007ac2:	604a      	str	r2, [r1, #4]
 8007ac4:	0759      	lsls	r1, r3, #29
 8007ac6:	d506      	bpl.n	8007ad6 <UART_AdvFeatureConfig+0x3a>
 8007ac8:	6801      	ldr	r1, [r0, #0]
 8007aca:	6b44      	ldr	r4, [r0, #52]	; 0x34
 8007acc:	684a      	ldr	r2, [r1, #4]
 8007ace:	f422 2280 	bic.w	r2, r2, #262144	; 0x40000
 8007ad2:	4322      	orrs	r2, r4
 8007ad4:	604a      	str	r2, [r1, #4]
 8007ad6:	071a      	lsls	r2, r3, #28
 8007ad8:	d506      	bpl.n	8007ae8 <UART_AdvFeatureConfig+0x4c>
 8007ada:	6801      	ldr	r1, [r0, #0]
 8007adc:	6b84      	ldr	r4, [r0, #56]	; 0x38
 8007ade:	684a      	ldr	r2, [r1, #4]
 8007ae0:	f422 4200 	bic.w	r2, r2, #32768	; 0x8000
 8007ae4:	4322      	orrs	r2, r4
 8007ae6:	604a      	str	r2, [r1, #4]
 8007ae8:	06dc      	lsls	r4, r3, #27
 8007aea:	d506      	bpl.n	8007afa <UART_AdvFeatureConfig+0x5e>
 8007aec:	6801      	ldr	r1, [r0, #0]
 8007aee:	6bc4      	ldr	r4, [r0, #60]	; 0x3c
 8007af0:	688a      	ldr	r2, [r1, #8]
 8007af2:	f422 5280 	bic.w	r2, r2, #4096	; 0x1000
 8007af6:	4322      	orrs	r2, r4
 8007af8:	608a      	str	r2, [r1, #8]
 8007afa:	0699      	lsls	r1, r3, #26
 8007afc:	d506      	bpl.n	8007b0c <UART_AdvFeatureConfig+0x70>
 8007afe:	6801      	ldr	r1, [r0, #0]
 8007b00:	6c04      	ldr	r4, [r0, #64]	; 0x40
 8007b02:	688a      	ldr	r2, [r1, #8]
 8007b04:	f422 5200 	bic.w	r2, r2, #8192	; 0x2000
 8007b08:	4322      	orrs	r2, r4
 8007b0a:	608a      	str	r2, [r1, #8]
 8007b0c:	065a      	lsls	r2, r3, #25
 8007b0e:	d510      	bpl.n	8007b32 <UART_AdvFeatureConfig+0x96>
 8007b10:	6801      	ldr	r1, [r0, #0]
 8007b12:	6c44      	ldr	r4, [r0, #68]	; 0x44
 8007b14:	684a      	ldr	r2, [r1, #4]
 8007b16:	f5b4 1f80 	cmp.w	r4, #1048576	; 0x100000
 8007b1a:	f422 1280 	bic.w	r2, r2, #1048576	; 0x100000
 8007b1e:	ea42 0204 	orr.w	r2, r2, r4
 8007b22:	604a      	str	r2, [r1, #4]
 8007b24:	d105      	bne.n	8007b32 <UART_AdvFeatureConfig+0x96>
 8007b26:	684a      	ldr	r2, [r1, #4]
 8007b28:	6c84      	ldr	r4, [r0, #72]	; 0x48
 8007b2a:	f422 02c0 	bic.w	r2, r2, #6291456	; 0x600000
 8007b2e:	4322      	orrs	r2, r4
 8007b30:	604a      	str	r2, [r1, #4]
 8007b32:	061b      	lsls	r3, r3, #24
 8007b34:	d506      	bpl.n	8007b44 <UART_AdvFeatureConfig+0xa8>
 8007b36:	6802      	ldr	r2, [r0, #0]
 8007b38:	6cc1      	ldr	r1, [r0, #76]	; 0x4c
 8007b3a:	6853      	ldr	r3, [r2, #4]
 8007b3c:	f423 2300 	bic.w	r3, r3, #524288	; 0x80000
 8007b40:	430b      	orrs	r3, r1
 8007b42:	6053      	str	r3, [r2, #4]
 8007b44:	bd10      	pop	{r4, pc}

08007b46 <UART_WaitOnFlagUntilTimeout>:
 8007b46:	e92d 43f8 	stmdb	sp!, {r3, r4, r5, r6, r7, r8, r9, lr}
 8007b4a:	f8dd 9020 	ldr.w	r9, [sp, #32]
 8007b4e:	4604      	mov	r4, r0
 8007b50:	460f      	mov	r7, r1
 8007b52:	4616      	mov	r6, r2
 8007b54:	4698      	mov	r8, r3
 8007b56:	6822      	ldr	r2, [r4, #0]
 8007b58:	69d3      	ldr	r3, [r2, #28]
 8007b5a:	ea37 0303 	bics.w	r3, r7, r3
 8007b5e:	bf0c      	ite	eq
 8007b60:	2301      	moveq	r3, #1
 8007b62:	2300      	movne	r3, #0
 8007b64:	42b3      	cmp	r3, r6
 8007b66:	d001      	beq.n	8007b6c <UART_WaitOnFlagUntilTimeout+0x26>
 8007b68:	2000      	movs	r0, #0
 8007b6a:	e01e      	b.n	8007baa <UART_WaitOnFlagUntilTimeout+0x64>
 8007b6c:	f1b9 3fff 	cmp.w	r9, #4294967295	; 0xffffffff
 8007b70:	d0f2      	beq.n	8007b58 <UART_WaitOnFlagUntilTimeout+0x12>
 8007b72:	f7fa ff9b 	bl	8002aac <HAL_GetTick>
 8007b76:	eba0 0008 	sub.w	r0, r0, r8
 8007b7a:	4548      	cmp	r0, r9
 8007b7c:	d825      	bhi.n	8007bca <UART_WaitOnFlagUntilTimeout+0x84>
 8007b7e:	f1b9 0f00 	cmp.w	r9, #0
 8007b82:	d022      	beq.n	8007bca <UART_WaitOnFlagUntilTimeout+0x84>
 8007b84:	6820      	ldr	r0, [r4, #0]
 8007b86:	6803      	ldr	r3, [r0, #0]
 8007b88:	075a      	lsls	r2, r3, #29
 8007b8a:	d5e4      	bpl.n	8007b56 <UART_WaitOnFlagUntilTimeout+0x10>
 8007b8c:	69c5      	ldr	r5, [r0, #28]
 8007b8e:	f015 0508 	ands.w	r5, r5, #8
 8007b92:	d00c      	beq.n	8007bae <UART_WaitOnFlagUntilTimeout+0x68>
 8007b94:	2508      	movs	r5, #8
 8007b96:	6205      	str	r5, [r0, #32]
 8007b98:	4620      	mov	r0, r4
 8007b9a:	f7ff fbb9 	bl	8007310 <UART_EndRxTransfer>
 8007b9e:	2300      	movs	r3, #0
 8007ba0:	2001      	movs	r0, #1
 8007ba2:	f8c4 5090 	str.w	r5, [r4, #144]	; 0x90
 8007ba6:	f884 3084 	strb.w	r3, [r4, #132]	; 0x84
 8007baa:	e8bd 83f8 	ldmia.w	sp!, {r3, r4, r5, r6, r7, r8, r9, pc}
 8007bae:	69c3      	ldr	r3, [r0, #28]
 8007bb0:	051b      	lsls	r3, r3, #20
 8007bb2:	d5d0      	bpl.n	8007b56 <UART_WaitOnFlagUntilTimeout+0x10>
 8007bb4:	f44f 6300 	mov.w	r3, #2048	; 0x800
 8007bb8:	6203      	str	r3, [r0, #32]
 8007bba:	4620      	mov	r0, r4
 8007bbc:	f7ff fba8 	bl	8007310 <UART_EndRxTransfer>
 8007bc0:	2320      	movs	r3, #32
 8007bc2:	f884 5084 	strb.w	r5, [r4, #132]	; 0x84
 8007bc6:	f8c4 3090 	str.w	r3, [r4, #144]	; 0x90
 8007bca:	2003      	movs	r0, #3
 8007bcc:	e7ed      	b.n	8007baa <UART_WaitOnFlagUntilTimeout+0x64>

08007bce <HAL_UART_Transmit>:
 8007bce:	e92d 41ff 	stmdb	sp!, {r0, r1, r2, r3, r4, r5, r6, r7, r8, lr}
 8007bd2:	4698      	mov	r8, r3
 8007bd4:	f8d0 3088 	ldr.w	r3, [r0, #136]	; 0x88
 8007bd8:	4604      	mov	r4, r0
 8007bda:	460e      	mov	r6, r1
 8007bdc:	2b20      	cmp	r3, #32
 8007bde:	4617      	mov	r7, r2
 8007be0:	d147      	bne.n	8007c72 <HAL_UART_Transmit+0xa4>
 8007be2:	2900      	cmp	r1, #0
 8007be4:	d047      	beq.n	8007c76 <HAL_UART_Transmit+0xa8>
 8007be6:	2a00      	cmp	r2, #0
 8007be8:	d045      	beq.n	8007c76 <HAL_UART_Transmit+0xa8>
 8007bea:	2321      	movs	r3, #33	; 0x21
 8007bec:	2500      	movs	r5, #0
 8007bee:	f8c0 5090 	str.w	r5, [r0, #144]	; 0x90
 8007bf2:	f8c0 3088 	str.w	r3, [r0, #136]	; 0x88
 8007bf6:	f7fa ff59 	bl	8002aac <HAL_GetTick>
 8007bfa:	68a2      	ldr	r2, [r4, #8]
 8007bfc:	4603      	mov	r3, r0
 8007bfe:	f8a4 7054 	strh.w	r7, [r4, #84]	; 0x54
 8007c02:	f5b2 5f80 	cmp.w	r2, #4096	; 0x1000
 8007c06:	f8a4 7056 	strh.w	r7, [r4, #86]	; 0x56
 8007c0a:	d103      	bne.n	8007c14 <HAL_UART_Transmit+0x46>
 8007c0c:	6922      	ldr	r2, [r4, #16]
 8007c0e:	b90a      	cbnz	r2, 8007c14 <HAL_UART_Transmit+0x46>
 8007c10:	4635      	mov	r5, r6
 8007c12:	4616      	mov	r6, r2
 8007c14:	f8b4 2056 	ldrh.w	r2, [r4, #86]	; 0x56
 8007c18:	f8cd 8000 	str.w	r8, [sp]
 8007c1c:	b292      	uxth	r2, r2
 8007c1e:	b952      	cbnz	r2, 8007c36 <HAL_UART_Transmit+0x68>
 8007c20:	2140      	movs	r1, #64	; 0x40
 8007c22:	4620      	mov	r0, r4
 8007c24:	f7ff ff8f 	bl	8007b46 <UART_WaitOnFlagUntilTimeout>
 8007c28:	2320      	movs	r3, #32
 8007c2a:	f8c4 3088 	str.w	r3, [r4, #136]	; 0x88
 8007c2e:	b968      	cbnz	r0, 8007c4c <HAL_UART_Transmit+0x7e>
 8007c30:	b004      	add	sp, #16
 8007c32:	e8bd 81f0 	ldmia.w	sp!, {r4, r5, r6, r7, r8, pc}
 8007c36:	2200      	movs	r2, #0
 8007c38:	2180      	movs	r1, #128	; 0x80
 8007c3a:	4620      	mov	r0, r4
 8007c3c:	9303      	str	r3, [sp, #12]
 8007c3e:	f7ff ff82 	bl	8007b46 <UART_WaitOnFlagUntilTimeout>
 8007c42:	9b03      	ldr	r3, [sp, #12]
 8007c44:	b120      	cbz	r0, 8007c50 <HAL_UART_Transmit+0x82>
 8007c46:	2320      	movs	r3, #32
 8007c48:	f8c4 3088 	str.w	r3, [r4, #136]	; 0x88
 8007c4c:	2003      	movs	r0, #3
 8007c4e:	e7ef      	b.n	8007c30 <HAL_UART_Transmit+0x62>
 8007c50:	6821      	ldr	r1, [r4, #0]
 8007c52:	b95e      	cbnz	r6, 8007c6c <HAL_UART_Transmit+0x9e>
 8007c54:	f835 2b02 	ldrh.w	r2, [r5], #2
 8007c58:	f3c2 0208 	ubfx	r2, r2, #0, #9
 8007c5c:	628a      	str	r2, [r1, #40]	; 0x28
 8007c5e:	f8b4 2056 	ldrh.w	r2, [r4, #86]	; 0x56
 8007c62:	3a01      	subs	r2, #1
 8007c64:	b292      	uxth	r2, r2
 8007c66:	f8a4 2056 	strh.w	r2, [r4, #86]	; 0x56
 8007c6a:	e7d3      	b.n	8007c14 <HAL_UART_Transmit+0x46>
 8007c6c:	f816 2b01 	ldrb.w	r2, [r6], #1
 8007c70:	e7f4      	b.n	8007c5c <HAL_UART_Transmit+0x8e>
 8007c72:	2002      	movs	r0, #2
 8007c74:	e7dc      	b.n	8007c30 <HAL_UART_Transmit+0x62>
 8007c76:	2001      	movs	r0, #1
 8007c78:	e7da      	b.n	8007c30 <HAL_UART_Transmit+0x62>

08007c7a <HAL_UART_Receive>:
 8007c7a:	e92d 43f7 	stmdb	sp!, {r0, r1, r2, r4, r5, r6, r7, r8, r9, lr}
 8007c7e:	461f      	mov	r7, r3
 8007c80:	f8d0 308c 	ldr.w	r3, [r0, #140]	; 0x8c
 8007c84:	4604      	mov	r4, r0
 8007c86:	460d      	mov	r5, r1
 8007c88:	2b20      	cmp	r3, #32
 8007c8a:	4616      	mov	r6, r2
 8007c8c:	d163      	bne.n	8007d56 <HAL_UART_Receive+0xdc>
 8007c8e:	2900      	cmp	r1, #0
 8007c90:	d063      	beq.n	8007d5a <HAL_UART_Receive+0xe0>
 8007c92:	2a00      	cmp	r2, #0
 8007c94:	d061      	beq.n	8007d5a <HAL_UART_Receive+0xe0>
 8007c96:	2322      	movs	r3, #34	; 0x22
 8007c98:	f04f 0800 	mov.w	r8, #0
 8007c9c:	f8c0 8090 	str.w	r8, [r0, #144]	; 0x90
 8007ca0:	f8c0 308c 	str.w	r3, [r0, #140]	; 0x8c
 8007ca4:	f8c0 806c 	str.w	r8, [r0, #108]	; 0x6c
 8007ca8:	f7fa ff00 	bl	8002aac <HAL_GetTick>
 8007cac:	68a3      	ldr	r3, [r4, #8]
 8007cae:	4681      	mov	r9, r0
 8007cb0:	f8a4 605c 	strh.w	r6, [r4, #92]	; 0x5c
 8007cb4:	f5b3 5f80 	cmp.w	r3, #4096	; 0x1000
 8007cb8:	f8a4 605e 	strh.w	r6, [r4, #94]	; 0x5e
 8007cbc:	d118      	bne.n	8007cf0 <HAL_UART_Receive+0x76>
 8007cbe:	6922      	ldr	r2, [r4, #16]
 8007cc0:	b9a2      	cbnz	r2, 8007cec <HAL_UART_Receive+0x72>
 8007cc2:	f240 12ff 	movw	r2, #511	; 0x1ff
 8007cc6:	f8a4 2060 	strh.w	r2, [r4, #96]	; 0x60
 8007cca:	f5b3 5f80 	cmp.w	r3, #4096	; 0x1000
 8007cce:	f8b4 8060 	ldrh.w	r8, [r4, #96]	; 0x60
 8007cd2:	d11e      	bne.n	8007d12 <HAL_UART_Receive+0x98>
 8007cd4:	6923      	ldr	r3, [r4, #16]
 8007cd6:	b9e3      	cbnz	r3, 8007d12 <HAL_UART_Receive+0x98>
 8007cd8:	462e      	mov	r6, r5
 8007cda:	461d      	mov	r5, r3
 8007cdc:	f8b4 205e 	ldrh.w	r2, [r4, #94]	; 0x5e
 8007ce0:	b290      	uxth	r0, r2
 8007ce2:	b9c0      	cbnz	r0, 8007d16 <HAL_UART_Receive+0x9c>
 8007ce4:	2320      	movs	r3, #32
 8007ce6:	f8c4 308c 	str.w	r3, [r4, #140]	; 0x8c
 8007cea:	e020      	b.n	8007d2e <HAL_UART_Receive+0xb4>
 8007cec:	22ff      	movs	r2, #255	; 0xff
 8007cee:	e7ea      	b.n	8007cc6 <HAL_UART_Receive+0x4c>
 8007cf0:	b923      	cbnz	r3, 8007cfc <HAL_UART_Receive+0x82>
 8007cf2:	6922      	ldr	r2, [r4, #16]
 8007cf4:	2a00      	cmp	r2, #0
 8007cf6:	d0f9      	beq.n	8007cec <HAL_UART_Receive+0x72>
 8007cf8:	227f      	movs	r2, #127	; 0x7f
 8007cfa:	e7e4      	b.n	8007cc6 <HAL_UART_Receive+0x4c>
 8007cfc:	f1b3 5f80 	cmp.w	r3, #268435456	; 0x10000000
 8007d00:	d104      	bne.n	8007d0c <HAL_UART_Receive+0x92>
 8007d02:	6922      	ldr	r2, [r4, #16]
 8007d04:	2a00      	cmp	r2, #0
 8007d06:	d0f7      	beq.n	8007cf8 <HAL_UART_Receive+0x7e>
 8007d08:	223f      	movs	r2, #63	; 0x3f
 8007d0a:	e7dc      	b.n	8007cc6 <HAL_UART_Receive+0x4c>
 8007d0c:	f8a4 8060 	strh.w	r8, [r4, #96]	; 0x60
 8007d10:	e7db      	b.n	8007cca <HAL_UART_Receive+0x50>
 8007d12:	2600      	movs	r6, #0
 8007d14:	e7e2      	b.n	8007cdc <HAL_UART_Receive+0x62>
 8007d16:	464b      	mov	r3, r9
 8007d18:	2200      	movs	r2, #0
 8007d1a:	2120      	movs	r1, #32
 8007d1c:	4620      	mov	r0, r4
 8007d1e:	9700      	str	r7, [sp, #0]
 8007d20:	f7ff ff11 	bl	8007b46 <UART_WaitOnFlagUntilTimeout>
 8007d24:	b130      	cbz	r0, 8007d34 <HAL_UART_Receive+0xba>
 8007d26:	2320      	movs	r3, #32
 8007d28:	2003      	movs	r0, #3
 8007d2a:	f8c4 308c 	str.w	r3, [r4, #140]	; 0x8c
 8007d2e:	b003      	add	sp, #12
 8007d30:	e8bd 83f0 	ldmia.w	sp!, {r4, r5, r6, r7, r8, r9, pc}
 8007d34:	6823      	ldr	r3, [r4, #0]
 8007d36:	6a5b      	ldr	r3, [r3, #36]	; 0x24
 8007d38:	ea08 0303 	and.w	r3, r8, r3
 8007d3c:	b945      	cbnz	r5, 8007d50 <HAL_UART_Receive+0xd6>
 8007d3e:	f826 3b02 	strh.w	r3, [r6], #2
 8007d42:	f8b4 205e 	ldrh.w	r2, [r4, #94]	; 0x5e
 8007d46:	3a01      	subs	r2, #1
 8007d48:	b292      	uxth	r2, r2
 8007d4a:	f8a4 205e 	strh.w	r2, [r4, #94]	; 0x5e
 8007d4e:	e7c5      	b.n	8007cdc <HAL_UART_Receive+0x62>
 8007d50:	f805 3b01 	strb.w	r3, [r5], #1
 8007d54:	e7f5      	b.n	8007d42 <HAL_UART_Receive+0xc8>
 8007d56:	2002      	movs	r0, #2
 8007d58:	e7e9      	b.n	8007d2e <HAL_UART_Receive+0xb4>
 8007d5a:	2001      	movs	r0, #1
 8007d5c:	e7e7      	b.n	8007d2e <HAL_UART_Receive+0xb4>

08007d5e <UART_CheckIdleState>:
 8007d5e:	b530      	push	{r4, r5, lr}
 8007d60:	2500      	movs	r5, #0
 8007d62:	4604      	mov	r4, r0
 8007d64:	b085      	sub	sp, #20
 8007d66:	f8c0 5090 	str.w	r5, [r0, #144]	; 0x90
 8007d6a:	f7fa fe9f 	bl	8002aac <HAL_GetTick>
 8007d6e:	6822      	ldr	r2, [r4, #0]
 8007d70:	4603      	mov	r3, r0
 8007d72:	6812      	ldr	r2, [r2, #0]
 8007d74:	0711      	lsls	r1, r2, #28
 8007d76:	d51c      	bpl.n	8007db2 <UART_CheckIdleState+0x54>
 8007d78:	f06f 427e 	mvn.w	r2, #4261412864	; 0xfe000000
 8007d7c:	9003      	str	r0, [sp, #12]
 8007d7e:	f44f 1100 	mov.w	r1, #2097152	; 0x200000
 8007d82:	4620      	mov	r0, r4
 8007d84:	9200      	str	r2, [sp, #0]
 8007d86:	462a      	mov	r2, r5
 8007d88:	f7ff fedd 	bl	8007b46 <UART_WaitOnFlagUntilTimeout>
 8007d8c:	9b03      	ldr	r3, [sp, #12]
 8007d8e:	b180      	cbz	r0, 8007db2 <UART_CheckIdleState+0x54>
 8007d90:	6821      	ldr	r1, [r4, #0]
 8007d92:	e851 3f00 	ldrex	r3, [r1]
 8007d96:	f023 0380 	bic.w	r3, r3, #128	; 0x80
 8007d9a:	e841 3200 	strex	r2, r3, [r1]
 8007d9e:	2a00      	cmp	r2, #0
 8007da0:	d1f6      	bne.n	8007d90 <UART_CheckIdleState+0x32>
 8007da2:	2320      	movs	r3, #32
 8007da4:	f8c4 3088 	str.w	r3, [r4, #136]	; 0x88
 8007da8:	2003      	movs	r0, #3
 8007daa:	f884 2084 	strb.w	r2, [r4, #132]	; 0x84
 8007dae:	b005      	add	sp, #20
 8007db0:	bd30      	pop	{r4, r5, pc}
 8007db2:	6822      	ldr	r2, [r4, #0]
 8007db4:	6812      	ldr	r2, [r2, #0]
 8007db6:	0752      	lsls	r2, r2, #29
 8007db8:	d523      	bpl.n	8007e02 <UART_CheckIdleState+0xa4>
 8007dba:	f06f 427e 	mvn.w	r2, #4261412864	; 0xfe000000
 8007dbe:	f44f 0180 	mov.w	r1, #4194304	; 0x400000
 8007dc2:	4620      	mov	r0, r4
 8007dc4:	9200      	str	r2, [sp, #0]
 8007dc6:	2200      	movs	r2, #0
 8007dc8:	f7ff febd 	bl	8007b46 <UART_WaitOnFlagUntilTimeout>
 8007dcc:	b1c8      	cbz	r0, 8007e02 <UART_CheckIdleState+0xa4>
 8007dce:	6822      	ldr	r2, [r4, #0]
 8007dd0:	e852 3f00 	ldrex	r3, [r2]
 8007dd4:	f423 7390 	bic.w	r3, r3, #288	; 0x120
 8007dd8:	e842 3000 	strex	r0, r3, [r2]
 8007ddc:	6821      	ldr	r1, [r4, #0]
 8007dde:	2800      	cmp	r0, #0
 8007de0:	d1f5      	bne.n	8007dce <UART_CheckIdleState+0x70>
 8007de2:	f101 0308 	add.w	r3, r1, #8
 8007de6:	e853 3f00 	ldrex	r3, [r3]
 8007dea:	f023 0301 	bic.w	r3, r3, #1
 8007dee:	f101 0008 	add.w	r0, r1, #8
 8007df2:	e840 3200 	strex	r2, r3, [r0]
 8007df6:	2a00      	cmp	r2, #0
 8007df8:	d1f3      	bne.n	8007de2 <UART_CheckIdleState+0x84>
 8007dfa:	2320      	movs	r3, #32
 8007dfc:	f8c4 308c 	str.w	r3, [r4, #140]	; 0x8c
 8007e00:	e7d2      	b.n	8007da8 <UART_CheckIdleState+0x4a>
 8007e02:	2000      	movs	r0, #0
 8007e04:	2320      	movs	r3, #32
 8007e06:	f884 0084 	strb.w	r0, [r4, #132]	; 0x84
 8007e0a:	f8c4 3088 	str.w	r3, [r4, #136]	; 0x88
 8007e0e:	f8c4 308c 	str.w	r3, [r4, #140]	; 0x8c
 8007e12:	66e0      	str	r0, [r4, #108]	; 0x6c
 8007e14:	6720      	str	r0, [r4, #112]	; 0x70
 8007e16:	e7ca      	b.n	8007dae <UART_CheckIdleState+0x50>

08007e18 <HAL_UART_Init>:
 8007e18:	b510      	push	{r4, lr}
 8007e1a:	4604      	mov	r4, r0
 8007e1c:	b350      	cbz	r0, 8007e74 <HAL_UART_Init+0x5c>
 8007e1e:	f8d0 3088 	ldr.w	r3, [r0, #136]	; 0x88
 8007e22:	b91b      	cbnz	r3, 8007e2c <HAL_UART_Init+0x14>
 8007e24:	f880 3084 	strb.w	r3, [r0, #132]	; 0x84
 8007e28:	f7fa fd64 	bl	80028f4 <HAL_UART_MspInit>
 8007e2c:	6822      	ldr	r2, [r4, #0]
 8007e2e:	2324      	movs	r3, #36	; 0x24
 8007e30:	4620      	mov	r0, r4
 8007e32:	f8c4 3088 	str.w	r3, [r4, #136]	; 0x88
 8007e36:	6813      	ldr	r3, [r2, #0]
 8007e38:	f023 0301 	bic.w	r3, r3, #1
 8007e3c:	6013      	str	r3, [r2, #0]
 8007e3e:	f7ff fc45 	bl	80076cc <UART_SetConfig>
 8007e42:	2801      	cmp	r0, #1
 8007e44:	d016      	beq.n	8007e74 <HAL_UART_Init+0x5c>
 8007e46:	6aa3      	ldr	r3, [r4, #40]	; 0x28
 8007e48:	b113      	cbz	r3, 8007e50 <HAL_UART_Init+0x38>
 8007e4a:	4620      	mov	r0, r4
 8007e4c:	f7ff fe26 	bl	8007a9c <UART_AdvFeatureConfig>
 8007e50:	6823      	ldr	r3, [r4, #0]
 8007e52:	4620      	mov	r0, r4
 8007e54:	685a      	ldr	r2, [r3, #4]
 8007e56:	f422 4290 	bic.w	r2, r2, #18432	; 0x4800
 8007e5a:	605a      	str	r2, [r3, #4]
 8007e5c:	689a      	ldr	r2, [r3, #8]
 8007e5e:	f022 022a 	bic.w	r2, r2, #42	; 0x2a
 8007e62:	609a      	str	r2, [r3, #8]
 8007e64:	681a      	ldr	r2, [r3, #0]
 8007e66:	f042 0201 	orr.w	r2, r2, #1
 8007e6a:	e8bd 4010 	ldmia.w	sp!, {r4, lr}
 8007e6e:	601a      	str	r2, [r3, #0]
 8007e70:	f7ff bf75 	b.w	8007d5e <UART_CheckIdleState>
 8007e74:	2001      	movs	r0, #1
 8007e76:	bd10      	pop	{r4, pc}

08007e78 <UARTEx_SetNbDataToProcess>:
 8007e78:	6e43      	ldr	r3, [r0, #100]	; 0x64
 8007e7a:	b530      	push	{r4, r5, lr}
 8007e7c:	b91b      	cbnz	r3, 8007e86 <UARTEx_SetNbDataToProcess+0xe>
 8007e7e:	f04f 1301 	mov.w	r3, #65537	; 0x10001
 8007e82:	6683      	str	r3, [r0, #104]	; 0x68
 8007e84:	bd30      	pop	{r4, r5, pc}
 8007e86:	6803      	ldr	r3, [r0, #0]
 8007e88:	4d0a      	ldr	r5, [pc, #40]	; (8007eb4 <UARTEx_SetNbDataToProcess+0x3c>)
 8007e8a:	689a      	ldr	r2, [r3, #8]
 8007e8c:	6899      	ldr	r1, [r3, #8]
 8007e8e:	4c0a      	ldr	r4, [pc, #40]	; (8007eb8 <UARTEx_SetNbDataToProcess+0x40>)
 8007e90:	f3c2 6242 	ubfx	r2, r2, #25, #3
 8007e94:	0f49      	lsrs	r1, r1, #29
 8007e96:	5c6b      	ldrb	r3, [r5, r1]
 8007e98:	5c61      	ldrb	r1, [r4, r1]
 8007e9a:	011b      	lsls	r3, r3, #4
 8007e9c:	fbb3 f3f1 	udiv	r3, r3, r1
 8007ea0:	f8a0 306a 	strh.w	r3, [r0, #106]	; 0x6a
 8007ea4:	5cab      	ldrb	r3, [r5, r2]
 8007ea6:	5ca2      	ldrb	r2, [r4, r2]
 8007ea8:	011b      	lsls	r3, r3, #4
 8007eaa:	fbb3 f3f2 	udiv	r3, r3, r2
 8007eae:	f8a0 3068 	strh.w	r3, [r0, #104]	; 0x68
 8007eb2:	e7e7      	b.n	8007e84 <UARTEx_SetNbDataToProcess+0xc>
 8007eb4:	08008f30 	.word	0x08008f30
 8007eb8:	08008f28 	.word	0x08008f28

08007ebc <HAL_UARTEx_WakeupCallback>:
 8007ebc:	4770      	bx	lr

08007ebe <HAL_UARTEx_RxFifoFullCallback>:
 8007ebe:	4770      	bx	lr

08007ec0 <HAL_UARTEx_TxFifoEmptyCallback>:
 8007ec0:	4770      	bx	lr

08007ec2 <HAL_UARTEx_DisableFifoMode>:
 8007ec2:	f890 3084 	ldrb.w	r3, [r0, #132]	; 0x84
 8007ec6:	2b01      	cmp	r3, #1
 8007ec8:	d014      	beq.n	8007ef4 <HAL_UARTEx_DisableFifoMode+0x32>
 8007eca:	6802      	ldr	r2, [r0, #0]
 8007ecc:	2324      	movs	r3, #36	; 0x24
 8007ece:	f8c0 3088 	str.w	r3, [r0, #136]	; 0x88
 8007ed2:	6811      	ldr	r1, [r2, #0]
 8007ed4:	6813      	ldr	r3, [r2, #0]
 8007ed6:	f021 5100 	bic.w	r1, r1, #536870912	; 0x20000000
 8007eda:	f023 0301 	bic.w	r3, r3, #1
 8007ede:	6013      	str	r3, [r2, #0]
 8007ee0:	2300      	movs	r3, #0
 8007ee2:	6643      	str	r3, [r0, #100]	; 0x64
 8007ee4:	6011      	str	r1, [r2, #0]
 8007ee6:	2220      	movs	r2, #32
 8007ee8:	f880 3084 	strb.w	r3, [r0, #132]	; 0x84
 8007eec:	f8c0 2088 	str.w	r2, [r0, #136]	; 0x88
 8007ef0:	4618      	mov	r0, r3
 8007ef2:	4770      	bx	lr
 8007ef4:	2002      	movs	r0, #2
 8007ef6:	4770      	bx	lr

08007ef8 <HAL_UARTEx_SetTxFifoThreshold>:
 8007ef8:	b538      	push	{r3, r4, r5, lr}
 8007efa:	f890 3084 	ldrb.w	r3, [r0, #132]	; 0x84
 8007efe:	4604      	mov	r4, r0
 8007f00:	2b01      	cmp	r3, #1
 8007f02:	d01b      	beq.n	8007f3c <HAL_UARTEx_SetTxFifoThreshold+0x44>
 8007f04:	2301      	movs	r3, #1
 8007f06:	f880 3084 	strb.w	r3, [r0, #132]	; 0x84
 8007f0a:	2324      	movs	r3, #36	; 0x24
 8007f0c:	f8c0 3088 	str.w	r3, [r0, #136]	; 0x88
 8007f10:	6803      	ldr	r3, [r0, #0]
 8007f12:	681d      	ldr	r5, [r3, #0]
 8007f14:	681a      	ldr	r2, [r3, #0]
 8007f16:	f022 0201 	bic.w	r2, r2, #1
 8007f1a:	601a      	str	r2, [r3, #0]
 8007f1c:	689a      	ldr	r2, [r3, #8]
 8007f1e:	f022 4260 	bic.w	r2, r2, #3758096384	; 0xe0000000
 8007f22:	4311      	orrs	r1, r2
 8007f24:	6099      	str	r1, [r3, #8]
 8007f26:	f7ff ffa7 	bl	8007e78 <UARTEx_SetNbDataToProcess>
 8007f2a:	6803      	ldr	r3, [r0, #0]
 8007f2c:	601d      	str	r5, [r3, #0]
 8007f2e:	2320      	movs	r3, #32
 8007f30:	f8c0 3088 	str.w	r3, [r0, #136]	; 0x88
 8007f34:	2000      	movs	r0, #0
 8007f36:	f884 0084 	strb.w	r0, [r4, #132]	; 0x84
 8007f3a:	bd38      	pop	{r3, r4, r5, pc}
 8007f3c:	2002      	movs	r0, #2
 8007f3e:	e7fc      	b.n	8007f3a <HAL_UARTEx_SetTxFifoThreshold+0x42>

08007f40 <HAL_UARTEx_SetRxFifoThreshold>:
 8007f40:	b538      	push	{r3, r4, r5, lr}
 8007f42:	f890 3084 	ldrb.w	r3, [r0, #132]	; 0x84
 8007f46:	4604      	mov	r4, r0
 8007f48:	2b01      	cmp	r3, #1
 8007f4a:	d01b      	beq.n	8007f84 <HAL_UARTEx_SetRxFifoThreshold+0x44>
 8007f4c:	2301      	movs	r3, #1
 8007f4e:	f880 3084 	strb.w	r3, [r0, #132]	; 0x84
 8007f52:	2324      	movs	r3, #36	; 0x24
 8007f54:	f8c0 3088 	str.w	r3, [r0, #136]	; 0x88
 8007f58:	6803      	ldr	r3, [r0, #0]
 8007f5a:	681d      	ldr	r5, [r3, #0]
 8007f5c:	681a      	ldr	r2, [r3, #0]
 8007f5e:	f022 0201 	bic.w	r2, r2, #1
 8007f62:	601a      	str	r2, [r3, #0]
 8007f64:	689a      	ldr	r2, [r3, #8]
 8007f66:	f022 6260 	bic.w	r2, r2, #234881024	; 0xe000000
 8007f6a:	4311      	orrs	r1, r2
 8007f6c:	6099      	str	r1, [r3, #8]
 8007f6e:	f7ff ff83 	bl	8007e78 <UARTEx_SetNbDataToProcess>
 8007f72:	6803      	ldr	r3, [r0, #0]
 8007f74:	601d      	str	r5, [r3, #0]
 8007f76:	2320      	movs	r3, #32
 8007f78:	f8c0 3088 	str.w	r3, [r0, #136]	; 0x88
 8007f7c:	2000      	movs	r0, #0
 8007f7e:	f884 0084 	strb.w	r0, [r4, #132]	; 0x84
 8007f82:	bd38      	pop	{r3, r4, r5, pc}
 8007f84:	2002      	movs	r0, #2
 8007f86:	e7fc      	b.n	8007f82 <HAL_UARTEx_SetRxFifoThreshold+0x42>

08007f88 <FMC_SDRAM_Init>:
 8007f88:	e92d 43f0 	stmdb	sp!, {r4, r5, r6, r7, r8, r9, lr}
 8007f8c:	680a      	ldr	r2, [r1, #0]
 8007f8e:	f8d1 9024 	ldr.w	r9, [r1, #36]	; 0x24
 8007f92:	e9d1 4307 	ldrd	r4, r3, [r1, #28]
 8007f96:	e9d1 5801 	ldrd	r5, r8, [r1, #4]
 8007f9a:	e9d1 ec03 	ldrd	lr, ip, [r1, #12]
 8007f9e:	e9d1 7605 	ldrd	r7, r6, [r1, #20]
 8007fa2:	4323      	orrs	r3, r4
 8007fa4:	b9a2      	cbnz	r2, 8007fd0 <FMC_SDRAM_Init+0x48>
 8007fa6:	ea43 0209 	orr.w	r2, r3, r9
 8007faa:	6801      	ldr	r1, [r0, #0]
 8007fac:	432a      	orrs	r2, r5
 8007fae:	f421 41ff 	bic.w	r1, r1, #32640	; 0x7f80
 8007fb2:	ea42 0308 	orr.w	r3, r2, r8
 8007fb6:	f021 017f 	bic.w	r1, r1, #127	; 0x7f
 8007fba:	ea43 030e 	orr.w	r3, r3, lr
 8007fbe:	ea43 030c 	orr.w	r3, r3, ip
 8007fc2:	433b      	orrs	r3, r7
 8007fc4:	4333      	orrs	r3, r6
 8007fc6:	430b      	orrs	r3, r1
 8007fc8:	6003      	str	r3, [r0, #0]
 8007fca:	2000      	movs	r0, #0
 8007fcc:	e8bd 83f0 	ldmia.w	sp!, {r4, r5, r6, r7, r8, r9, pc}
 8007fd0:	6802      	ldr	r2, [r0, #0]
 8007fd2:	ea43 0309 	orr.w	r3, r3, r9
 8007fd6:	f422 42f8 	bic.w	r2, r2, #31744	; 0x7c00
 8007fda:	4313      	orrs	r3, r2
 8007fdc:	6003      	str	r3, [r0, #0]
 8007fde:	ea45 0308 	orr.w	r3, r5, r8
 8007fe2:	6842      	ldr	r2, [r0, #4]
 8007fe4:	ea43 030e 	orr.w	r3, r3, lr
 8007fe8:	f422 42ff 	bic.w	r2, r2, #32640	; 0x7f80
 8007fec:	ea43 030c 	orr.w	r3, r3, ip
 8007ff0:	f022 027f 	bic.w	r2, r2, #127	; 0x7f
 8007ff4:	433b      	orrs	r3, r7
 8007ff6:	4333      	orrs	r3, r6
 8007ff8:	4313      	orrs	r3, r2
 8007ffa:	6043      	str	r3, [r0, #4]
 8007ffc:	e7e5      	b.n	8007fca <FMC_SDRAM_Init+0x42>

08007ffe <FMC_SDRAM_Timing_Init>:
 8007ffe:	68cb      	ldr	r3, [r1, #12]
 8008000:	f103 3cff 	add.w	ip, r3, #4294967295	; 0xffffffff
 8008004:	694b      	ldr	r3, [r1, #20]
 8008006:	b5f0      	push	{r4, r5, r6, r7, lr}
 8008008:	3b01      	subs	r3, #1
 800800a:	680f      	ldr	r7, [r1, #0]
 800800c:	684c      	ldr	r4, [r1, #4]
 800800e:	688e      	ldr	r6, [r1, #8]
 8008010:	051b      	lsls	r3, r3, #20
 8008012:	690d      	ldr	r5, [r1, #16]
 8008014:	3c01      	subs	r4, #1
 8008016:	6989      	ldr	r1, [r1, #24]
 8008018:	3e01      	subs	r6, #1
 800801a:	3d01      	subs	r5, #1
 800801c:	3f01      	subs	r7, #1
 800801e:	3901      	subs	r1, #1
 8008020:	0124      	lsls	r4, r4, #4
 8008022:	0236      	lsls	r6, r6, #8
 8008024:	042d      	lsls	r5, r5, #16
 8008026:	0609      	lsls	r1, r1, #24
 8008028:	ea43 330c 	orr.w	r3, r3, ip, lsl #12
 800802c:	b95a      	cbnz	r2, 8008046 <FMC_SDRAM_Timing_Init+0x48>
 800802e:	433b      	orrs	r3, r7
 8008030:	6882      	ldr	r2, [r0, #8]
 8008032:	4323      	orrs	r3, r4
 8008034:	f002 4270 	and.w	r2, r2, #4026531840	; 0xf0000000
 8008038:	4333      	orrs	r3, r6
 800803a:	432b      	orrs	r3, r5
 800803c:	430b      	orrs	r3, r1
 800803e:	4313      	orrs	r3, r2
 8008040:	6083      	str	r3, [r0, #8]
 8008042:	2000      	movs	r0, #0
 8008044:	bdf0      	pop	{r4, r5, r6, r7, pc}
 8008046:	6882      	ldr	r2, [r0, #8]
 8008048:	f422 0270 	bic.w	r2, r2, #15728640	; 0xf00000
 800804c:	f422 4270 	bic.w	r2, r2, #61440	; 0xf000
 8008050:	431a      	orrs	r2, r3
 8008052:	ea44 0306 	orr.w	r3, r4, r6
 8008056:	433b      	orrs	r3, r7
 8008058:	6082      	str	r2, [r0, #8]
 800805a:	68c2      	ldr	r2, [r0, #12]
 800805c:	432b      	orrs	r3, r5
 800805e:	f002 4270 	and.w	r2, r2, #4026531840	; 0xf0000000
 8008062:	430b      	orrs	r3, r1
 8008064:	4313      	orrs	r3, r2
 8008066:	60c3      	str	r3, [r0, #12]
 8008068:	e7eb      	b.n	8008042 <FMC_SDRAM_Timing_Init+0x44>

0800806a <FMC_SDRAM_SendCommand>:
 800806a:	6902      	ldr	r2, [r0, #16]
 800806c:	b510      	push	{r4, lr}
 800806e:	e9d1 3400 	ldrd	r3, r4, [r1]
 8008072:	0d92      	lsrs	r2, r2, #22
 8008074:	4323      	orrs	r3, r4
 8008076:	68cc      	ldr	r4, [r1, #12]
 8008078:	0592      	lsls	r2, r2, #22
 800807a:	ea43 2344 	orr.w	r3, r3, r4, lsl #9
 800807e:	4313      	orrs	r3, r2
 8008080:	688a      	ldr	r2, [r1, #8]
 8008082:	3a01      	subs	r2, #1
 8008084:	ea43 1342 	orr.w	r3, r3, r2, lsl #5
 8008088:	6103      	str	r3, [r0, #16]
 800808a:	2000      	movs	r0, #0
 800808c:	bd10      	pop	{r4, pc}

0800808e <FMC_SDRAM_ProgramRefreshRate>:
 800808e:	6943      	ldr	r3, [r0, #20]
 8008090:	f423 537f 	bic.w	r3, r3, #16320	; 0x3fc0
 8008094:	f023 033e 	bic.w	r3, r3, #62	; 0x3e
 8008098:	ea43 0141 	orr.w	r1, r3, r1, lsl #1
 800809c:	6141      	str	r1, [r0, #20]
 800809e:	2000      	movs	r0, #0
 80080a0:	4770      	bx	lr
	...

080080a4 <__errno>:
 80080a4:	4b01      	ldr	r3, [pc, #4]	; (80080ac <__errno+0x8>)
 80080a6:	6818      	ldr	r0, [r3, #0]
 80080a8:	4770      	bx	lr
 80080aa:	bf00      	nop
 80080ac:	24000054 	.word	0x24000054

080080b0 <__libc_init_array>:
 80080b0:	b570      	push	{r4, r5, r6, lr}
 80080b2:	4d0d      	ldr	r5, [pc, #52]	; (80080e8 <__libc_init_array+0x38>)
 80080b4:	4c0d      	ldr	r4, [pc, #52]	; (80080ec <__libc_init_array+0x3c>)
 80080b6:	1b64      	subs	r4, r4, r5
 80080b8:	10a4      	asrs	r4, r4, #2
 80080ba:	2600      	movs	r6, #0
 80080bc:	42a6      	cmp	r6, r4
 80080be:	d109      	bne.n	80080d4 <__libc_init_array+0x24>
 80080c0:	4d0b      	ldr	r5, [pc, #44]	; (80080f0 <__libc_init_array+0x40>)
 80080c2:	4c0c      	ldr	r4, [pc, #48]	; (80080f4 <__libc_init_array+0x44>)
 80080c4:	f000 fc66 	bl	8008994 <_init>
 80080c8:	1b64      	subs	r4, r4, r5
 80080ca:	10a4      	asrs	r4, r4, #2
 80080cc:	2600      	movs	r6, #0
 80080ce:	42a6      	cmp	r6, r4
 80080d0:	d105      	bne.n	80080de <__libc_init_array+0x2e>
 80080d2:	bd70      	pop	{r4, r5, r6, pc}
 80080d4:	f855 3b04 	ldr.w	r3, [r5], #4
 80080d8:	4798      	blx	r3
 80080da:	3601      	adds	r6, #1
 80080dc:	e7ee      	b.n	80080bc <__libc_init_array+0xc>
 80080de:	f855 3b04 	ldr.w	r3, [r5], #4
 80080e2:	4798      	blx	r3
 80080e4:	3601      	adds	r6, #1
 80080e6:	e7f2      	b.n	80080ce <__libc_init_array+0x1e>
 80080e8:	08008fa4 	.word	0x08008fa4
 80080ec:	08008fa4 	.word	0x08008fa4
 80080f0:	08008fa4 	.word	0x08008fa4
 80080f4:	08008fa8 	.word	0x08008fa8

080080f8 <memset>:
 80080f8:	4402      	add	r2, r0
 80080fa:	4603      	mov	r3, r0
 80080fc:	4293      	cmp	r3, r2
 80080fe:	d100      	bne.n	8008102 <memset+0xa>
 8008100:	4770      	bx	lr
 8008102:	f803 1b01 	strb.w	r1, [r3], #1
 8008106:	e7f9      	b.n	80080fc <memset+0x4>

08008108 <setvbuf>:
 8008108:	e92d 43f7 	stmdb	sp!, {r0, r1, r2, r4, r5, r6, r7, r8, r9, lr}
 800810c:	461d      	mov	r5, r3
 800810e:	4b5d      	ldr	r3, [pc, #372]	; (8008284 <setvbuf+0x17c>)
 8008110:	681f      	ldr	r7, [r3, #0]
 8008112:	4604      	mov	r4, r0
 8008114:	460e      	mov	r6, r1
 8008116:	4690      	mov	r8, r2
 8008118:	b127      	cbz	r7, 8008124 <setvbuf+0x1c>
 800811a:	69bb      	ldr	r3, [r7, #24]
 800811c:	b913      	cbnz	r3, 8008124 <setvbuf+0x1c>
 800811e:	4638      	mov	r0, r7
 8008120:	f000 f9d2 	bl	80084c8 <__sinit>
 8008124:	4b58      	ldr	r3, [pc, #352]	; (8008288 <setvbuf+0x180>)
 8008126:	429c      	cmp	r4, r3
 8008128:	d167      	bne.n	80081fa <setvbuf+0xf2>
 800812a:	687c      	ldr	r4, [r7, #4]
 800812c:	f1b8 0f02 	cmp.w	r8, #2
 8008130:	d006      	beq.n	8008140 <setvbuf+0x38>
 8008132:	f1b8 0f01 	cmp.w	r8, #1
 8008136:	f200 809f 	bhi.w	8008278 <setvbuf+0x170>
 800813a:	2d00      	cmp	r5, #0
 800813c:	f2c0 809c 	blt.w	8008278 <setvbuf+0x170>
 8008140:	6e63      	ldr	r3, [r4, #100]	; 0x64
 8008142:	07db      	lsls	r3, r3, #31
 8008144:	d405      	bmi.n	8008152 <setvbuf+0x4a>
 8008146:	89a3      	ldrh	r3, [r4, #12]
 8008148:	0598      	lsls	r0, r3, #22
 800814a:	d402      	bmi.n	8008152 <setvbuf+0x4a>
 800814c:	6da0      	ldr	r0, [r4, #88]	; 0x58
 800814e:	f000 fa59 	bl	8008604 <__retarget_lock_acquire_recursive>
 8008152:	4621      	mov	r1, r4
 8008154:	4638      	mov	r0, r7
 8008156:	f000 f923 	bl	80083a0 <_fflush_r>
 800815a:	6b61      	ldr	r1, [r4, #52]	; 0x34
 800815c:	b141      	cbz	r1, 8008170 <setvbuf+0x68>
 800815e:	f104 0344 	add.w	r3, r4, #68	; 0x44
 8008162:	4299      	cmp	r1, r3
 8008164:	d002      	beq.n	800816c <setvbuf+0x64>
 8008166:	4638      	mov	r0, r7
 8008168:	f000 fa7c 	bl	8008664 <_free_r>
 800816c:	2300      	movs	r3, #0
 800816e:	6363      	str	r3, [r4, #52]	; 0x34
 8008170:	2300      	movs	r3, #0
 8008172:	61a3      	str	r3, [r4, #24]
 8008174:	6063      	str	r3, [r4, #4]
 8008176:	89a3      	ldrh	r3, [r4, #12]
 8008178:	0619      	lsls	r1, r3, #24
 800817a:	d503      	bpl.n	8008184 <setvbuf+0x7c>
 800817c:	6921      	ldr	r1, [r4, #16]
 800817e:	4638      	mov	r0, r7
 8008180:	f000 fa70 	bl	8008664 <_free_r>
 8008184:	89a3      	ldrh	r3, [r4, #12]
 8008186:	f423 634a 	bic.w	r3, r3, #3232	; 0xca0
 800818a:	f023 0303 	bic.w	r3, r3, #3
 800818e:	f1b8 0f02 	cmp.w	r8, #2
 8008192:	81a3      	strh	r3, [r4, #12]
 8008194:	d06c      	beq.n	8008270 <setvbuf+0x168>
 8008196:	ab01      	add	r3, sp, #4
 8008198:	466a      	mov	r2, sp
 800819a:	4621      	mov	r1, r4
 800819c:	4638      	mov	r0, r7
 800819e:	f000 fa33 	bl	8008608 <__swhatbuf_r>
 80081a2:	89a3      	ldrh	r3, [r4, #12]
 80081a4:	4318      	orrs	r0, r3
 80081a6:	81a0      	strh	r0, [r4, #12]
 80081a8:	2d00      	cmp	r5, #0
 80081aa:	d130      	bne.n	800820e <setvbuf+0x106>
 80081ac:	9d00      	ldr	r5, [sp, #0]
 80081ae:	4628      	mov	r0, r5
 80081b0:	f000 fa50 	bl	8008654 <malloc>
 80081b4:	4606      	mov	r6, r0
 80081b6:	2800      	cmp	r0, #0
 80081b8:	d155      	bne.n	8008266 <setvbuf+0x15e>
 80081ba:	f8dd 9000 	ldr.w	r9, [sp]
 80081be:	45a9      	cmp	r9, r5
 80081c0:	d14a      	bne.n	8008258 <setvbuf+0x150>
 80081c2:	f04f 35ff 	mov.w	r5, #4294967295	; 0xffffffff
 80081c6:	2200      	movs	r2, #0
 80081c8:	60a2      	str	r2, [r4, #8]
 80081ca:	f104 0247 	add.w	r2, r4, #71	; 0x47
 80081ce:	6022      	str	r2, [r4, #0]
 80081d0:	6122      	str	r2, [r4, #16]
 80081d2:	2201      	movs	r2, #1
 80081d4:	f9b4 300c 	ldrsh.w	r3, [r4, #12]
 80081d8:	6162      	str	r2, [r4, #20]
 80081da:	6e62      	ldr	r2, [r4, #100]	; 0x64
 80081dc:	f043 0302 	orr.w	r3, r3, #2
 80081e0:	07d2      	lsls	r2, r2, #31
 80081e2:	81a3      	strh	r3, [r4, #12]
 80081e4:	d405      	bmi.n	80081f2 <setvbuf+0xea>
 80081e6:	f413 7f00 	tst.w	r3, #512	; 0x200
 80081ea:	d102      	bne.n	80081f2 <setvbuf+0xea>
 80081ec:	6da0      	ldr	r0, [r4, #88]	; 0x58
 80081ee:	f000 fa0a 	bl	8008606 <__retarget_lock_release_recursive>
 80081f2:	4628      	mov	r0, r5
 80081f4:	b003      	add	sp, #12
 80081f6:	e8bd 83f0 	ldmia.w	sp!, {r4, r5, r6, r7, r8, r9, pc}
 80081fa:	4b24      	ldr	r3, [pc, #144]	; (800828c <setvbuf+0x184>)
 80081fc:	429c      	cmp	r4, r3
 80081fe:	d101      	bne.n	8008204 <setvbuf+0xfc>
 8008200:	68bc      	ldr	r4, [r7, #8]
 8008202:	e793      	b.n	800812c <setvbuf+0x24>
 8008204:	4b22      	ldr	r3, [pc, #136]	; (8008290 <setvbuf+0x188>)
 8008206:	429c      	cmp	r4, r3
 8008208:	bf08      	it	eq
 800820a:	68fc      	ldreq	r4, [r7, #12]
 800820c:	e78e      	b.n	800812c <setvbuf+0x24>
 800820e:	2e00      	cmp	r6, #0
 8008210:	d0cd      	beq.n	80081ae <setvbuf+0xa6>
 8008212:	69bb      	ldr	r3, [r7, #24]
 8008214:	b913      	cbnz	r3, 800821c <setvbuf+0x114>
 8008216:	4638      	mov	r0, r7
 8008218:	f000 f956 	bl	80084c8 <__sinit>
 800821c:	f1b8 0f01 	cmp.w	r8, #1
 8008220:	bf08      	it	eq
 8008222:	89a3      	ldrheq	r3, [r4, #12]
 8008224:	6026      	str	r6, [r4, #0]
 8008226:	bf04      	itt	eq
 8008228:	f043 0301 	orreq.w	r3, r3, #1
 800822c:	81a3      	strheq	r3, [r4, #12]
 800822e:	89a2      	ldrh	r2, [r4, #12]
 8008230:	f012 0308 	ands.w	r3, r2, #8
 8008234:	e9c4 6504 	strd	r6, r5, [r4, #16]
 8008238:	d01c      	beq.n	8008274 <setvbuf+0x16c>
 800823a:	07d3      	lsls	r3, r2, #31
 800823c:	bf41      	itttt	mi
 800823e:	2300      	movmi	r3, #0
 8008240:	426d      	negmi	r5, r5
 8008242:	60a3      	strmi	r3, [r4, #8]
 8008244:	61a5      	strmi	r5, [r4, #24]
 8008246:	bf58      	it	pl
 8008248:	60a5      	strpl	r5, [r4, #8]
 800824a:	6e65      	ldr	r5, [r4, #100]	; 0x64
 800824c:	f015 0501 	ands.w	r5, r5, #1
 8008250:	d115      	bne.n	800827e <setvbuf+0x176>
 8008252:	f412 7f00 	tst.w	r2, #512	; 0x200
 8008256:	e7c8      	b.n	80081ea <setvbuf+0xe2>
 8008258:	4648      	mov	r0, r9
 800825a:	f000 f9fb 	bl	8008654 <malloc>
 800825e:	4606      	mov	r6, r0
 8008260:	2800      	cmp	r0, #0
 8008262:	d0ae      	beq.n	80081c2 <setvbuf+0xba>
 8008264:	464d      	mov	r5, r9
 8008266:	89a3      	ldrh	r3, [r4, #12]
 8008268:	f043 0380 	orr.w	r3, r3, #128	; 0x80
 800826c:	81a3      	strh	r3, [r4, #12]
 800826e:	e7d0      	b.n	8008212 <setvbuf+0x10a>
 8008270:	2500      	movs	r5, #0
 8008272:	e7a8      	b.n	80081c6 <setvbuf+0xbe>
 8008274:	60a3      	str	r3, [r4, #8]
 8008276:	e7e8      	b.n	800824a <setvbuf+0x142>
 8008278:	f04f 35ff 	mov.w	r5, #4294967295	; 0xffffffff
 800827c:	e7b9      	b.n	80081f2 <setvbuf+0xea>
 800827e:	2500      	movs	r5, #0
 8008280:	e7b7      	b.n	80081f2 <setvbuf+0xea>
 8008282:	bf00      	nop
 8008284:	24000054 	.word	0x24000054
 8008288:	08008f5c 	.word	0x08008f5c
 800828c:	08008f7c 	.word	0x08008f7c
 8008290:	08008f3c 	.word	0x08008f3c

08008294 <__sflush_r>:
 8008294:	898a      	ldrh	r2, [r1, #12]
 8008296:	e92d 41f0 	stmdb	sp!, {r4, r5, r6, r7, r8, lr}
 800829a:	4605      	mov	r5, r0
 800829c:	0710      	lsls	r0, r2, #28
 800829e:	460c      	mov	r4, r1
 80082a0:	d458      	bmi.n	8008354 <__sflush_r+0xc0>
 80082a2:	684b      	ldr	r3, [r1, #4]
 80082a4:	2b00      	cmp	r3, #0
 80082a6:	dc05      	bgt.n	80082b4 <__sflush_r+0x20>
 80082a8:	6c0b      	ldr	r3, [r1, #64]	; 0x40
 80082aa:	2b00      	cmp	r3, #0
 80082ac:	dc02      	bgt.n	80082b4 <__sflush_r+0x20>
 80082ae:	2000      	movs	r0, #0
 80082b0:	e8bd 81f0 	ldmia.w	sp!, {r4, r5, r6, r7, r8, pc}
 80082b4:	6ae6      	ldr	r6, [r4, #44]	; 0x2c
 80082b6:	2e00      	cmp	r6, #0
 80082b8:	d0f9      	beq.n	80082ae <__sflush_r+0x1a>
 80082ba:	2300      	movs	r3, #0
 80082bc:	f412 5280 	ands.w	r2, r2, #4096	; 0x1000
 80082c0:	682f      	ldr	r7, [r5, #0]
 80082c2:	602b      	str	r3, [r5, #0]
 80082c4:	d032      	beq.n	800832c <__sflush_r+0x98>
 80082c6:	6d60      	ldr	r0, [r4, #84]	; 0x54
 80082c8:	89a3      	ldrh	r3, [r4, #12]
 80082ca:	075a      	lsls	r2, r3, #29
 80082cc:	d505      	bpl.n	80082da <__sflush_r+0x46>
 80082ce:	6863      	ldr	r3, [r4, #4]
 80082d0:	1ac0      	subs	r0, r0, r3
 80082d2:	6b63      	ldr	r3, [r4, #52]	; 0x34
 80082d4:	b10b      	cbz	r3, 80082da <__sflush_r+0x46>
 80082d6:	6c23      	ldr	r3, [r4, #64]	; 0x40
 80082d8:	1ac0      	subs	r0, r0, r3
 80082da:	2300      	movs	r3, #0
 80082dc:	4602      	mov	r2, r0
 80082de:	6ae6      	ldr	r6, [r4, #44]	; 0x2c
 80082e0:	6a21      	ldr	r1, [r4, #32]
 80082e2:	4628      	mov	r0, r5
 80082e4:	47b0      	blx	r6
 80082e6:	1c43      	adds	r3, r0, #1
 80082e8:	89a3      	ldrh	r3, [r4, #12]
 80082ea:	d106      	bne.n	80082fa <__sflush_r+0x66>
 80082ec:	6829      	ldr	r1, [r5, #0]
 80082ee:	291d      	cmp	r1, #29
 80082f0:	d82c      	bhi.n	800834c <__sflush_r+0xb8>
 80082f2:	4a2a      	ldr	r2, [pc, #168]	; (800839c <__sflush_r+0x108>)
 80082f4:	40ca      	lsrs	r2, r1
 80082f6:	07d6      	lsls	r6, r2, #31
 80082f8:	d528      	bpl.n	800834c <__sflush_r+0xb8>
 80082fa:	2200      	movs	r2, #0
 80082fc:	6062      	str	r2, [r4, #4]
 80082fe:	04d9      	lsls	r1, r3, #19
 8008300:	6922      	ldr	r2, [r4, #16]
 8008302:	6022      	str	r2, [r4, #0]
 8008304:	d504      	bpl.n	8008310 <__sflush_r+0x7c>
 8008306:	1c42      	adds	r2, r0, #1
 8008308:	d101      	bne.n	800830e <__sflush_r+0x7a>
 800830a:	682b      	ldr	r3, [r5, #0]
 800830c:	b903      	cbnz	r3, 8008310 <__sflush_r+0x7c>
 800830e:	6560      	str	r0, [r4, #84]	; 0x54
 8008310:	6b61      	ldr	r1, [r4, #52]	; 0x34
 8008312:	602f      	str	r7, [r5, #0]
 8008314:	2900      	cmp	r1, #0
 8008316:	d0ca      	beq.n	80082ae <__sflush_r+0x1a>
 8008318:	f104 0344 	add.w	r3, r4, #68	; 0x44
 800831c:	4299      	cmp	r1, r3
 800831e:	d002      	beq.n	8008326 <__sflush_r+0x92>
 8008320:	4628      	mov	r0, r5
 8008322:	f000 f99f 	bl	8008664 <_free_r>
 8008326:	2000      	movs	r0, #0
 8008328:	6360      	str	r0, [r4, #52]	; 0x34
 800832a:	e7c1      	b.n	80082b0 <__sflush_r+0x1c>
 800832c:	6a21      	ldr	r1, [r4, #32]
 800832e:	2301      	movs	r3, #1
 8008330:	4628      	mov	r0, r5
 8008332:	47b0      	blx	r6
 8008334:	1c41      	adds	r1, r0, #1
 8008336:	d1c7      	bne.n	80082c8 <__sflush_r+0x34>
 8008338:	682b      	ldr	r3, [r5, #0]
 800833a:	2b00      	cmp	r3, #0
 800833c:	d0c4      	beq.n	80082c8 <__sflush_r+0x34>
 800833e:	2b1d      	cmp	r3, #29
 8008340:	d001      	beq.n	8008346 <__sflush_r+0xb2>
 8008342:	2b16      	cmp	r3, #22
 8008344:	d101      	bne.n	800834a <__sflush_r+0xb6>
 8008346:	602f      	str	r7, [r5, #0]
 8008348:	e7b1      	b.n	80082ae <__sflush_r+0x1a>
 800834a:	89a3      	ldrh	r3, [r4, #12]
 800834c:	f043 0340 	orr.w	r3, r3, #64	; 0x40
 8008350:	81a3      	strh	r3, [r4, #12]
 8008352:	e7ad      	b.n	80082b0 <__sflush_r+0x1c>
 8008354:	690f      	ldr	r7, [r1, #16]
 8008356:	2f00      	cmp	r7, #0
 8008358:	d0a9      	beq.n	80082ae <__sflush_r+0x1a>
 800835a:	0793      	lsls	r3, r2, #30
 800835c:	680e      	ldr	r6, [r1, #0]
 800835e:	bf08      	it	eq
 8008360:	694b      	ldreq	r3, [r1, #20]
 8008362:	600f      	str	r7, [r1, #0]
 8008364:	bf18      	it	ne
 8008366:	2300      	movne	r3, #0
 8008368:	eba6 0807 	sub.w	r8, r6, r7
 800836c:	608b      	str	r3, [r1, #8]
 800836e:	f1b8 0f00 	cmp.w	r8, #0
 8008372:	dd9c      	ble.n	80082ae <__sflush_r+0x1a>
 8008374:	6a21      	ldr	r1, [r4, #32]
 8008376:	6aa6      	ldr	r6, [r4, #40]	; 0x28
 8008378:	4643      	mov	r3, r8
 800837a:	463a      	mov	r2, r7
 800837c:	4628      	mov	r0, r5
 800837e:	47b0      	blx	r6
 8008380:	2800      	cmp	r0, #0
 8008382:	dc06      	bgt.n	8008392 <__sflush_r+0xfe>
 8008384:	89a3      	ldrh	r3, [r4, #12]
 8008386:	f043 0340 	orr.w	r3, r3, #64	; 0x40
 800838a:	81a3      	strh	r3, [r4, #12]
 800838c:	f04f 30ff 	mov.w	r0, #4294967295	; 0xffffffff
 8008390:	e78e      	b.n	80082b0 <__sflush_r+0x1c>
 8008392:	4407      	add	r7, r0
 8008394:	eba8 0800 	sub.w	r8, r8, r0
 8008398:	e7e9      	b.n	800836e <__sflush_r+0xda>
 800839a:	bf00      	nop
 800839c:	20400001 	.word	0x20400001

080083a0 <_fflush_r>:
 80083a0:	b538      	push	{r3, r4, r5, lr}
 80083a2:	690b      	ldr	r3, [r1, #16]
 80083a4:	4605      	mov	r5, r0
 80083a6:	460c      	mov	r4, r1
 80083a8:	b913      	cbnz	r3, 80083b0 <_fflush_r+0x10>
 80083aa:	2500      	movs	r5, #0
 80083ac:	4628      	mov	r0, r5
 80083ae:	bd38      	pop	{r3, r4, r5, pc}
 80083b0:	b118      	cbz	r0, 80083ba <_fflush_r+0x1a>
 80083b2:	6983      	ldr	r3, [r0, #24]
 80083b4:	b90b      	cbnz	r3, 80083ba <_fflush_r+0x1a>
 80083b6:	f000 f887 	bl	80084c8 <__sinit>
 80083ba:	4b14      	ldr	r3, [pc, #80]	; (800840c <_fflush_r+0x6c>)
 80083bc:	429c      	cmp	r4, r3
 80083be:	d11b      	bne.n	80083f8 <_fflush_r+0x58>
 80083c0:	686c      	ldr	r4, [r5, #4]
 80083c2:	f9b4 300c 	ldrsh.w	r3, [r4, #12]
 80083c6:	2b00      	cmp	r3, #0
 80083c8:	d0ef      	beq.n	80083aa <_fflush_r+0xa>
 80083ca:	6e62      	ldr	r2, [r4, #100]	; 0x64
 80083cc:	07d0      	lsls	r0, r2, #31
 80083ce:	d404      	bmi.n	80083da <_fflush_r+0x3a>
 80083d0:	0599      	lsls	r1, r3, #22
 80083d2:	d402      	bmi.n	80083da <_fflush_r+0x3a>
 80083d4:	6da0      	ldr	r0, [r4, #88]	; 0x58
 80083d6:	f000 f915 	bl	8008604 <__retarget_lock_acquire_recursive>
 80083da:	4628      	mov	r0, r5
 80083dc:	4621      	mov	r1, r4
 80083de:	f7ff ff59 	bl	8008294 <__sflush_r>
 80083e2:	6e63      	ldr	r3, [r4, #100]	; 0x64
 80083e4:	07da      	lsls	r2, r3, #31
 80083e6:	4605      	mov	r5, r0
 80083e8:	d4e0      	bmi.n	80083ac <_fflush_r+0xc>
 80083ea:	89a3      	ldrh	r3, [r4, #12]
 80083ec:	059b      	lsls	r3, r3, #22
 80083ee:	d4dd      	bmi.n	80083ac <_fflush_r+0xc>
 80083f0:	6da0      	ldr	r0, [r4, #88]	; 0x58
 80083f2:	f000 f908 	bl	8008606 <__retarget_lock_release_recursive>
 80083f6:	e7d9      	b.n	80083ac <_fflush_r+0xc>
 80083f8:	4b05      	ldr	r3, [pc, #20]	; (8008410 <_fflush_r+0x70>)
 80083fa:	429c      	cmp	r4, r3
 80083fc:	d101      	bne.n	8008402 <_fflush_r+0x62>
 80083fe:	68ac      	ldr	r4, [r5, #8]
 8008400:	e7df      	b.n	80083c2 <_fflush_r+0x22>
 8008402:	4b04      	ldr	r3, [pc, #16]	; (8008414 <_fflush_r+0x74>)
 8008404:	429c      	cmp	r4, r3
 8008406:	bf08      	it	eq
 8008408:	68ec      	ldreq	r4, [r5, #12]
 800840a:	e7da      	b.n	80083c2 <_fflush_r+0x22>
 800840c:	08008f5c 	.word	0x08008f5c
 8008410:	08008f7c 	.word	0x08008f7c
 8008414:	08008f3c 	.word	0x08008f3c

08008418 <std>:
 8008418:	2300      	movs	r3, #0
 800841a:	b510      	push	{r4, lr}
 800841c:	4604      	mov	r4, r0
 800841e:	e9c0 3300 	strd	r3, r3, [r0]
 8008422:	e9c0 3304 	strd	r3, r3, [r0, #16]
 8008426:	6083      	str	r3, [r0, #8]
 8008428:	8181      	strh	r1, [r0, #12]
 800842a:	6643      	str	r3, [r0, #100]	; 0x64
 800842c:	81c2      	strh	r2, [r0, #14]
 800842e:	6183      	str	r3, [r0, #24]
 8008430:	4619      	mov	r1, r3
 8008432:	2208      	movs	r2, #8
 8008434:	305c      	adds	r0, #92	; 0x5c
 8008436:	f7ff fe5f 	bl	80080f8 <memset>
 800843a:	4b05      	ldr	r3, [pc, #20]	; (8008450 <std+0x38>)
 800843c:	6263      	str	r3, [r4, #36]	; 0x24
 800843e:	4b05      	ldr	r3, [pc, #20]	; (8008454 <std+0x3c>)
 8008440:	62a3      	str	r3, [r4, #40]	; 0x28
 8008442:	4b05      	ldr	r3, [pc, #20]	; (8008458 <std+0x40>)
 8008444:	62e3      	str	r3, [r4, #44]	; 0x2c
 8008446:	4b05      	ldr	r3, [pc, #20]	; (800845c <std+0x44>)
 8008448:	6224      	str	r4, [r4, #32]
 800844a:	6323      	str	r3, [r4, #48]	; 0x30
 800844c:	bd10      	pop	{r4, pc}
 800844e:	bf00      	nop
 8008450:	08008845 	.word	0x08008845
 8008454:	08008867 	.word	0x08008867
 8008458:	0800889f 	.word	0x0800889f
 800845c:	080088c3 	.word	0x080088c3

08008460 <_cleanup_r>:
 8008460:	4901      	ldr	r1, [pc, #4]	; (8008468 <_cleanup_r+0x8>)
 8008462:	f000 b8af 	b.w	80085c4 <_fwalk_reent>
 8008466:	bf00      	nop
 8008468:	080083a1 	.word	0x080083a1

0800846c <__sfmoreglue>:
 800846c:	b570      	push	{r4, r5, r6, lr}
 800846e:	2268      	movs	r2, #104	; 0x68
 8008470:	1e4d      	subs	r5, r1, #1
 8008472:	4355      	muls	r5, r2
 8008474:	460e      	mov	r6, r1
 8008476:	f105 0174 	add.w	r1, r5, #116	; 0x74
 800847a:	f000 f95f 	bl	800873c <_malloc_r>
 800847e:	4604      	mov	r4, r0
 8008480:	b140      	cbz	r0, 8008494 <__sfmoreglue+0x28>
 8008482:	2100      	movs	r1, #0
 8008484:	e9c0 1600 	strd	r1, r6, [r0]
 8008488:	300c      	adds	r0, #12
 800848a:	60a0      	str	r0, [r4, #8]
 800848c:	f105 0268 	add.w	r2, r5, #104	; 0x68
 8008490:	f7ff fe32 	bl	80080f8 <memset>
 8008494:	4620      	mov	r0, r4
 8008496:	bd70      	pop	{r4, r5, r6, pc}

08008498 <__sfp_lock_acquire>:
 8008498:	4801      	ldr	r0, [pc, #4]	; (80084a0 <__sfp_lock_acquire+0x8>)
 800849a:	f000 b8b3 	b.w	8008604 <__retarget_lock_acquire_recursive>
 800849e:	bf00      	nop
 80084a0:	24000e6d 	.word	0x24000e6d

080084a4 <__sfp_lock_release>:
 80084a4:	4801      	ldr	r0, [pc, #4]	; (80084ac <__sfp_lock_release+0x8>)
 80084a6:	f000 b8ae 	b.w	8008606 <__retarget_lock_release_recursive>
 80084aa:	bf00      	nop
 80084ac:	24000e6d 	.word	0x24000e6d

080084b0 <__sinit_lock_acquire>:
 80084b0:	4801      	ldr	r0, [pc, #4]	; (80084b8 <__sinit_lock_acquire+0x8>)
 80084b2:	f000 b8a7 	b.w	8008604 <__retarget_lock_acquire_recursive>
 80084b6:	bf00      	nop
 80084b8:	24000e6e 	.word	0x24000e6e

080084bc <__sinit_lock_release>:
 80084bc:	4801      	ldr	r0, [pc, #4]	; (80084c4 <__sinit_lock_release+0x8>)
 80084be:	f000 b8a2 	b.w	8008606 <__retarget_lock_release_recursive>
 80084c2:	bf00      	nop
 80084c4:	24000e6e 	.word	0x24000e6e

080084c8 <__sinit>:
 80084c8:	b510      	push	{r4, lr}
 80084ca:	4604      	mov	r4, r0
 80084cc:	f7ff fff0 	bl	80084b0 <__sinit_lock_acquire>
 80084d0:	69a3      	ldr	r3, [r4, #24]
 80084d2:	b11b      	cbz	r3, 80084dc <__sinit+0x14>
 80084d4:	e8bd 4010 	ldmia.w	sp!, {r4, lr}
 80084d8:	f7ff bff0 	b.w	80084bc <__sinit_lock_release>
 80084dc:	e9c4 3312 	strd	r3, r3, [r4, #72]	; 0x48
 80084e0:	6523      	str	r3, [r4, #80]	; 0x50
 80084e2:	4b13      	ldr	r3, [pc, #76]	; (8008530 <__sinit+0x68>)
 80084e4:	4a13      	ldr	r2, [pc, #76]	; (8008534 <__sinit+0x6c>)
 80084e6:	681b      	ldr	r3, [r3, #0]
 80084e8:	62a2      	str	r2, [r4, #40]	; 0x28
 80084ea:	42a3      	cmp	r3, r4
 80084ec:	bf04      	itt	eq
 80084ee:	2301      	moveq	r3, #1
 80084f0:	61a3      	streq	r3, [r4, #24]
 80084f2:	4620      	mov	r0, r4
 80084f4:	f000 f820 	bl	8008538 <__sfp>
 80084f8:	6060      	str	r0, [r4, #4]
 80084fa:	4620      	mov	r0, r4
 80084fc:	f000 f81c 	bl	8008538 <__sfp>
 8008500:	60a0      	str	r0, [r4, #8]
 8008502:	4620      	mov	r0, r4
 8008504:	f000 f818 	bl	8008538 <__sfp>
 8008508:	2200      	movs	r2, #0
 800850a:	60e0      	str	r0, [r4, #12]
 800850c:	2104      	movs	r1, #4
 800850e:	6860      	ldr	r0, [r4, #4]
 8008510:	f7ff ff82 	bl	8008418 <std>
 8008514:	68a0      	ldr	r0, [r4, #8]
 8008516:	2201      	movs	r2, #1
 8008518:	2109      	movs	r1, #9
 800851a:	f7ff ff7d 	bl	8008418 <std>
 800851e:	68e0      	ldr	r0, [r4, #12]
 8008520:	2202      	movs	r2, #2
 8008522:	2112      	movs	r1, #18
 8008524:	f7ff ff78 	bl	8008418 <std>
 8008528:	2301      	movs	r3, #1
 800852a:	61a3      	str	r3, [r4, #24]
 800852c:	e7d2      	b.n	80084d4 <__sinit+0xc>
 800852e:	bf00      	nop
 8008530:	08008f38 	.word	0x08008f38
 8008534:	08008461 	.word	0x08008461

08008538 <__sfp>:
 8008538:	b5f8      	push	{r3, r4, r5, r6, r7, lr}
 800853a:	4607      	mov	r7, r0
 800853c:	f7ff ffac 	bl	8008498 <__sfp_lock_acquire>
 8008540:	4b1e      	ldr	r3, [pc, #120]	; (80085bc <__sfp+0x84>)
 8008542:	681e      	ldr	r6, [r3, #0]
 8008544:	69b3      	ldr	r3, [r6, #24]
 8008546:	b913      	cbnz	r3, 800854e <__sfp+0x16>
 8008548:	4630      	mov	r0, r6
 800854a:	f7ff ffbd 	bl	80084c8 <__sinit>
 800854e:	3648      	adds	r6, #72	; 0x48
 8008550:	e9d6 3401 	ldrd	r3, r4, [r6, #4]
 8008554:	3b01      	subs	r3, #1
 8008556:	d503      	bpl.n	8008560 <__sfp+0x28>
 8008558:	6833      	ldr	r3, [r6, #0]
 800855a:	b30b      	cbz	r3, 80085a0 <__sfp+0x68>
 800855c:	6836      	ldr	r6, [r6, #0]
 800855e:	e7f7      	b.n	8008550 <__sfp+0x18>
 8008560:	f9b4 500c 	ldrsh.w	r5, [r4, #12]
 8008564:	b9d5      	cbnz	r5, 800859c <__sfp+0x64>
 8008566:	4b16      	ldr	r3, [pc, #88]	; (80085c0 <__sfp+0x88>)
 8008568:	60e3      	str	r3, [r4, #12]
 800856a:	f104 0058 	add.w	r0, r4, #88	; 0x58
 800856e:	6665      	str	r5, [r4, #100]	; 0x64
 8008570:	f000 f847 	bl	8008602 <__retarget_lock_init_recursive>
 8008574:	f7ff ff96 	bl	80084a4 <__sfp_lock_release>
 8008578:	e9c4 5501 	strd	r5, r5, [r4, #4]
 800857c:	e9c4 5504 	strd	r5, r5, [r4, #16]
 8008580:	6025      	str	r5, [r4, #0]
 8008582:	61a5      	str	r5, [r4, #24]
 8008584:	2208      	movs	r2, #8
 8008586:	4629      	mov	r1, r5
 8008588:	f104 005c 	add.w	r0, r4, #92	; 0x5c
 800858c:	f7ff fdb4 	bl	80080f8 <memset>
 8008590:	e9c4 550d 	strd	r5, r5, [r4, #52]	; 0x34
 8008594:	e9c4 5512 	strd	r5, r5, [r4, #72]	; 0x48
 8008598:	4620      	mov	r0, r4
 800859a:	bdf8      	pop	{r3, r4, r5, r6, r7, pc}
 800859c:	3468      	adds	r4, #104	; 0x68
 800859e:	e7d9      	b.n	8008554 <__sfp+0x1c>
 80085a0:	2104      	movs	r1, #4
 80085a2:	4638      	mov	r0, r7
 80085a4:	f7ff ff62 	bl	800846c <__sfmoreglue>
 80085a8:	4604      	mov	r4, r0
 80085aa:	6030      	str	r0, [r6, #0]
 80085ac:	2800      	cmp	r0, #0
 80085ae:	d1d5      	bne.n	800855c <__sfp+0x24>
 80085b0:	f7ff ff78 	bl	80084a4 <__sfp_lock_release>
 80085b4:	230c      	movs	r3, #12
 80085b6:	603b      	str	r3, [r7, #0]
 80085b8:	e7ee      	b.n	8008598 <__sfp+0x60>
 80085ba:	bf00      	nop
 80085bc:	08008f38 	.word	0x08008f38
 80085c0:	ffff0001 	.word	0xffff0001

080085c4 <_fwalk_reent>:
 80085c4:	e92d 43f8 	stmdb	sp!, {r3, r4, r5, r6, r7, r8, r9, lr}
 80085c8:	4606      	mov	r6, r0
 80085ca:	4688      	mov	r8, r1
 80085cc:	f100 0448 	add.w	r4, r0, #72	; 0x48
 80085d0:	2700      	movs	r7, #0
 80085d2:	e9d4 9501 	ldrd	r9, r5, [r4, #4]
 80085d6:	f1b9 0901 	subs.w	r9, r9, #1
 80085da:	d505      	bpl.n	80085e8 <_fwalk_reent+0x24>
 80085dc:	6824      	ldr	r4, [r4, #0]
 80085de:	2c00      	cmp	r4, #0
 80085e0:	d1f7      	bne.n	80085d2 <_fwalk_reent+0xe>
 80085e2:	4638      	mov	r0, r7
 80085e4:	e8bd 83f8 	ldmia.w	sp!, {r3, r4, r5, r6, r7, r8, r9, pc}
 80085e8:	89ab      	ldrh	r3, [r5, #12]
 80085ea:	2b01      	cmp	r3, #1
 80085ec:	d907      	bls.n	80085fe <_fwalk_reent+0x3a>
 80085ee:	f9b5 300e 	ldrsh.w	r3, [r5, #14]
 80085f2:	3301      	adds	r3, #1
 80085f4:	d003      	beq.n	80085fe <_fwalk_reent+0x3a>
 80085f6:	4629      	mov	r1, r5
 80085f8:	4630      	mov	r0, r6
 80085fa:	47c0      	blx	r8
 80085fc:	4307      	orrs	r7, r0
 80085fe:	3568      	adds	r5, #104	; 0x68
 8008600:	e7e9      	b.n	80085d6 <_fwalk_reent+0x12>

08008602 <__retarget_lock_init_recursive>:
 8008602:	4770      	bx	lr

08008604 <__retarget_lock_acquire_recursive>:
 8008604:	4770      	bx	lr

08008606 <__retarget_lock_release_recursive>:
 8008606:	4770      	bx	lr

08008608 <__swhatbuf_r>:
 8008608:	b570      	push	{r4, r5, r6, lr}
 800860a:	460e      	mov	r6, r1
 800860c:	f9b1 100e 	ldrsh.w	r1, [r1, #14]
 8008610:	2900      	cmp	r1, #0
 8008612:	b096      	sub	sp, #88	; 0x58
 8008614:	4614      	mov	r4, r2
 8008616:	461d      	mov	r5, r3
 8008618:	da08      	bge.n	800862c <__swhatbuf_r+0x24>
 800861a:	f9b6 300c 	ldrsh.w	r3, [r6, #12]
 800861e:	2200      	movs	r2, #0
 8008620:	602a      	str	r2, [r5, #0]
 8008622:	061a      	lsls	r2, r3, #24
 8008624:	d410      	bmi.n	8008648 <__swhatbuf_r+0x40>
 8008626:	f44f 6380 	mov.w	r3, #1024	; 0x400
 800862a:	e00e      	b.n	800864a <__swhatbuf_r+0x42>
 800862c:	466a      	mov	r2, sp
 800862e:	f000 f96f 	bl	8008910 <_fstat_r>
 8008632:	2800      	cmp	r0, #0
 8008634:	dbf1      	blt.n	800861a <__swhatbuf_r+0x12>
 8008636:	9a01      	ldr	r2, [sp, #4]
 8008638:	f402 4270 	and.w	r2, r2, #61440	; 0xf000
 800863c:	f5a2 5300 	sub.w	r3, r2, #8192	; 0x2000
 8008640:	425a      	negs	r2, r3
 8008642:	415a      	adcs	r2, r3
 8008644:	602a      	str	r2, [r5, #0]
 8008646:	e7ee      	b.n	8008626 <__swhatbuf_r+0x1e>
 8008648:	2340      	movs	r3, #64	; 0x40
 800864a:	2000      	movs	r0, #0
 800864c:	6023      	str	r3, [r4, #0]
 800864e:	b016      	add	sp, #88	; 0x58
 8008650:	bd70      	pop	{r4, r5, r6, pc}
	...

08008654 <malloc>:
 8008654:	4b02      	ldr	r3, [pc, #8]	; (8008660 <malloc+0xc>)
 8008656:	4601      	mov	r1, r0
 8008658:	6818      	ldr	r0, [r3, #0]
 800865a:	f000 b86f 	b.w	800873c <_malloc_r>
 800865e:	bf00      	nop
 8008660:	24000054 	.word	0x24000054

08008664 <_free_r>:
 8008664:	b537      	push	{r0, r1, r2, r4, r5, lr}
 8008666:	2900      	cmp	r1, #0
 8008668:	d044      	beq.n	80086f4 <_free_r+0x90>
 800866a:	f851 3c04 	ldr.w	r3, [r1, #-4]
 800866e:	9001      	str	r0, [sp, #4]
 8008670:	2b00      	cmp	r3, #0
 8008672:	f1a1 0404 	sub.w	r4, r1, #4
 8008676:	bfb8      	it	lt
 8008678:	18e4      	addlt	r4, r4, r3
 800867a:	f000 f96d 	bl	8008958 <__malloc_lock>
 800867e:	4a1e      	ldr	r2, [pc, #120]	; (80086f8 <_free_r+0x94>)
 8008680:	9801      	ldr	r0, [sp, #4]
 8008682:	6813      	ldr	r3, [r2, #0]
 8008684:	b933      	cbnz	r3, 8008694 <_free_r+0x30>
 8008686:	6063      	str	r3, [r4, #4]
 8008688:	6014      	str	r4, [r2, #0]
 800868a:	b003      	add	sp, #12
 800868c:	e8bd 4030 	ldmia.w	sp!, {r4, r5, lr}
 8008690:	f000 b968 	b.w	8008964 <__malloc_unlock>
 8008694:	42a3      	cmp	r3, r4
 8008696:	d908      	bls.n	80086aa <_free_r+0x46>
 8008698:	6825      	ldr	r5, [r4, #0]
 800869a:	1961      	adds	r1, r4, r5
 800869c:	428b      	cmp	r3, r1
 800869e:	bf01      	itttt	eq
 80086a0:	6819      	ldreq	r1, [r3, #0]
 80086a2:	685b      	ldreq	r3, [r3, #4]
 80086a4:	1949      	addeq	r1, r1, r5
 80086a6:	6021      	streq	r1, [r4, #0]
 80086a8:	e7ed      	b.n	8008686 <_free_r+0x22>
 80086aa:	461a      	mov	r2, r3
 80086ac:	685b      	ldr	r3, [r3, #4]
 80086ae:	b10b      	cbz	r3, 80086b4 <_free_r+0x50>
 80086b0:	42a3      	cmp	r3, r4
 80086b2:	d9fa      	bls.n	80086aa <_free_r+0x46>
 80086b4:	6811      	ldr	r1, [r2, #0]
 80086b6:	1855      	adds	r5, r2, r1
 80086b8:	42a5      	cmp	r5, r4
 80086ba:	d10b      	bne.n	80086d4 <_free_r+0x70>
 80086bc:	6824      	ldr	r4, [r4, #0]
 80086be:	4421      	add	r1, r4
 80086c0:	1854      	adds	r4, r2, r1
 80086c2:	42a3      	cmp	r3, r4
 80086c4:	6011      	str	r1, [r2, #0]
 80086c6:	d1e0      	bne.n	800868a <_free_r+0x26>
 80086c8:	681c      	ldr	r4, [r3, #0]
 80086ca:	685b      	ldr	r3, [r3, #4]
 80086cc:	6053      	str	r3, [r2, #4]
 80086ce:	4421      	add	r1, r4
 80086d0:	6011      	str	r1, [r2, #0]
 80086d2:	e7da      	b.n	800868a <_free_r+0x26>
 80086d4:	d902      	bls.n	80086dc <_free_r+0x78>
 80086d6:	230c      	movs	r3, #12
 80086d8:	6003      	str	r3, [r0, #0]
 80086da:	e7d6      	b.n	800868a <_free_r+0x26>
 80086dc:	6825      	ldr	r5, [r4, #0]
 80086de:	1961      	adds	r1, r4, r5
 80086e0:	428b      	cmp	r3, r1
 80086e2:	bf04      	itt	eq
 80086e4:	6819      	ldreq	r1, [r3, #0]
 80086e6:	685b      	ldreq	r3, [r3, #4]
 80086e8:	6063      	str	r3, [r4, #4]
 80086ea:	bf04      	itt	eq
 80086ec:	1949      	addeq	r1, r1, r5
 80086ee:	6021      	streq	r1, [r4, #0]
 80086f0:	6054      	str	r4, [r2, #4]
 80086f2:	e7ca      	b.n	800868a <_free_r+0x26>
 80086f4:	b003      	add	sp, #12
 80086f6:	bd30      	pop	{r4, r5, pc}
 80086f8:	24000e70 	.word	0x24000e70

080086fc <sbrk_aligned>:
 80086fc:	b570      	push	{r4, r5, r6, lr}
 80086fe:	4e0e      	ldr	r6, [pc, #56]	; (8008738 <sbrk_aligned+0x3c>)
 8008700:	460c      	mov	r4, r1
 8008702:	6831      	ldr	r1, [r6, #0]
 8008704:	4605      	mov	r5, r0
 8008706:	b911      	cbnz	r1, 800870e <sbrk_aligned+0x12>
 8008708:	f000 f88c 	bl	8008824 <_sbrk_r>
 800870c:	6030      	str	r0, [r6, #0]
 800870e:	4621      	mov	r1, r4
 8008710:	4628      	mov	r0, r5
 8008712:	f000 f887 	bl	8008824 <_sbrk_r>
 8008716:	1c43      	adds	r3, r0, #1
 8008718:	d00a      	beq.n	8008730 <sbrk_aligned+0x34>
 800871a:	1cc4      	adds	r4, r0, #3
 800871c:	f024 0403 	bic.w	r4, r4, #3
 8008720:	42a0      	cmp	r0, r4
 8008722:	d007      	beq.n	8008734 <sbrk_aligned+0x38>
 8008724:	1a21      	subs	r1, r4, r0
 8008726:	4628      	mov	r0, r5
 8008728:	f000 f87c 	bl	8008824 <_sbrk_r>
 800872c:	3001      	adds	r0, #1
 800872e:	d101      	bne.n	8008734 <sbrk_aligned+0x38>
 8008730:	f04f 34ff 	mov.w	r4, #4294967295	; 0xffffffff
 8008734:	4620      	mov	r0, r4
 8008736:	bd70      	pop	{r4, r5, r6, pc}
 8008738:	24000e74 	.word	0x24000e74

0800873c <_malloc_r>:
 800873c:	e92d 41f0 	stmdb	sp!, {r4, r5, r6, r7, r8, lr}
 8008740:	1ccd      	adds	r5, r1, #3
 8008742:	f025 0503 	bic.w	r5, r5, #3
 8008746:	3508      	adds	r5, #8
 8008748:	2d0c      	cmp	r5, #12
 800874a:	bf38      	it	cc
 800874c:	250c      	movcc	r5, #12
 800874e:	2d00      	cmp	r5, #0
 8008750:	4607      	mov	r7, r0
 8008752:	db01      	blt.n	8008758 <_malloc_r+0x1c>
 8008754:	42a9      	cmp	r1, r5
 8008756:	d905      	bls.n	8008764 <_malloc_r+0x28>
 8008758:	230c      	movs	r3, #12
 800875a:	603b      	str	r3, [r7, #0]
 800875c:	2600      	movs	r6, #0
 800875e:	4630      	mov	r0, r6
 8008760:	e8bd 81f0 	ldmia.w	sp!, {r4, r5, r6, r7, r8, pc}
 8008764:	4e2e      	ldr	r6, [pc, #184]	; (8008820 <_malloc_r+0xe4>)
 8008766:	f000 f8f7 	bl	8008958 <__malloc_lock>
 800876a:	6833      	ldr	r3, [r6, #0]
 800876c:	461c      	mov	r4, r3
 800876e:	bb34      	cbnz	r4, 80087be <_malloc_r+0x82>
 8008770:	4629      	mov	r1, r5
 8008772:	4638      	mov	r0, r7
 8008774:	f7ff ffc2 	bl	80086fc <sbrk_aligned>
 8008778:	1c43      	adds	r3, r0, #1
 800877a:	4604      	mov	r4, r0
 800877c:	d14d      	bne.n	800881a <_malloc_r+0xde>
 800877e:	6834      	ldr	r4, [r6, #0]
 8008780:	4626      	mov	r6, r4
 8008782:	2e00      	cmp	r6, #0
 8008784:	d140      	bne.n	8008808 <_malloc_r+0xcc>
 8008786:	6823      	ldr	r3, [r4, #0]
 8008788:	4631      	mov	r1, r6
 800878a:	4638      	mov	r0, r7
 800878c:	eb04 0803 	add.w	r8, r4, r3
 8008790:	f000 f848 	bl	8008824 <_sbrk_r>
 8008794:	4580      	cmp	r8, r0
 8008796:	d13a      	bne.n	800880e <_malloc_r+0xd2>
 8008798:	6821      	ldr	r1, [r4, #0]
 800879a:	3503      	adds	r5, #3
 800879c:	1a6d      	subs	r5, r5, r1
 800879e:	f025 0503 	bic.w	r5, r5, #3
 80087a2:	3508      	adds	r5, #8
 80087a4:	2d0c      	cmp	r5, #12
 80087a6:	bf38      	it	cc
 80087a8:	250c      	movcc	r5, #12
 80087aa:	4629      	mov	r1, r5
 80087ac:	4638      	mov	r0, r7
 80087ae:	f7ff ffa5 	bl	80086fc <sbrk_aligned>
 80087b2:	3001      	adds	r0, #1
 80087b4:	d02b      	beq.n	800880e <_malloc_r+0xd2>
 80087b6:	6823      	ldr	r3, [r4, #0]
 80087b8:	442b      	add	r3, r5
 80087ba:	6023      	str	r3, [r4, #0]
 80087bc:	e00e      	b.n	80087dc <_malloc_r+0xa0>
 80087be:	6822      	ldr	r2, [r4, #0]
 80087c0:	1b52      	subs	r2, r2, r5
 80087c2:	d41e      	bmi.n	8008802 <_malloc_r+0xc6>
 80087c4:	2a0b      	cmp	r2, #11
 80087c6:	d916      	bls.n	80087f6 <_malloc_r+0xba>
 80087c8:	1961      	adds	r1, r4, r5
 80087ca:	42a3      	cmp	r3, r4
 80087cc:	6025      	str	r5, [r4, #0]
 80087ce:	bf18      	it	ne
 80087d0:	6059      	strne	r1, [r3, #4]
 80087d2:	6863      	ldr	r3, [r4, #4]
 80087d4:	bf08      	it	eq
 80087d6:	6031      	streq	r1, [r6, #0]
 80087d8:	5162      	str	r2, [r4, r5]
 80087da:	604b      	str	r3, [r1, #4]
 80087dc:	4638      	mov	r0, r7
 80087de:	f104 060b 	add.w	r6, r4, #11
 80087e2:	f000 f8bf 	bl	8008964 <__malloc_unlock>
 80087e6:	f026 0607 	bic.w	r6, r6, #7
 80087ea:	1d23      	adds	r3, r4, #4
 80087ec:	1af2      	subs	r2, r6, r3
 80087ee:	d0b6      	beq.n	800875e <_malloc_r+0x22>
 80087f0:	1b9b      	subs	r3, r3, r6
 80087f2:	50a3      	str	r3, [r4, r2]
 80087f4:	e7b3      	b.n	800875e <_malloc_r+0x22>
 80087f6:	6862      	ldr	r2, [r4, #4]
 80087f8:	42a3      	cmp	r3, r4
 80087fa:	bf0c      	ite	eq
 80087fc:	6032      	streq	r2, [r6, #0]
 80087fe:	605a      	strne	r2, [r3, #4]
 8008800:	e7ec      	b.n	80087dc <_malloc_r+0xa0>
 8008802:	4623      	mov	r3, r4
 8008804:	6864      	ldr	r4, [r4, #4]
 8008806:	e7b2      	b.n	800876e <_malloc_r+0x32>
 8008808:	4634      	mov	r4, r6
 800880a:	6876      	ldr	r6, [r6, #4]
 800880c:	e7b9      	b.n	8008782 <_malloc_r+0x46>
 800880e:	230c      	movs	r3, #12
 8008810:	603b      	str	r3, [r7, #0]
 8008812:	4638      	mov	r0, r7
 8008814:	f000 f8a6 	bl	8008964 <__malloc_unlock>
 8008818:	e7a1      	b.n	800875e <_malloc_r+0x22>
 800881a:	6025      	str	r5, [r4, #0]
 800881c:	e7de      	b.n	80087dc <_malloc_r+0xa0>
 800881e:	bf00      	nop
 8008820:	24000e70 	.word	0x24000e70

08008824 <_sbrk_r>:
 8008824:	b538      	push	{r3, r4, r5, lr}
 8008826:	4d06      	ldr	r5, [pc, #24]	; (8008840 <_sbrk_r+0x1c>)
 8008828:	2300      	movs	r3, #0
 800882a:	4604      	mov	r4, r0
 800882c:	4608      	mov	r0, r1
 800882e:	602b      	str	r3, [r5, #0]
 8008830:	f7f9 ffbc 	bl	80027ac <_sbrk>
 8008834:	1c43      	adds	r3, r0, #1
 8008836:	d102      	bne.n	800883e <_sbrk_r+0x1a>
 8008838:	682b      	ldr	r3, [r5, #0]
 800883a:	b103      	cbz	r3, 800883e <_sbrk_r+0x1a>
 800883c:	6023      	str	r3, [r4, #0]
 800883e:	bd38      	pop	{r3, r4, r5, pc}
 8008840:	24000e78 	.word	0x24000e78

08008844 <__sread>:
 8008844:	b510      	push	{r4, lr}
 8008846:	460c      	mov	r4, r1
 8008848:	f9b1 100e 	ldrsh.w	r1, [r1, #14]
 800884c:	f000 f890 	bl	8008970 <_read_r>
 8008850:	2800      	cmp	r0, #0
 8008852:	bfab      	itete	ge
 8008854:	6d63      	ldrge	r3, [r4, #84]	; 0x54
 8008856:	89a3      	ldrhlt	r3, [r4, #12]
 8008858:	181b      	addge	r3, r3, r0
 800885a:	f423 5380 	biclt.w	r3, r3, #4096	; 0x1000
 800885e:	bfac      	ite	ge
 8008860:	6563      	strge	r3, [r4, #84]	; 0x54
 8008862:	81a3      	strhlt	r3, [r4, #12]
 8008864:	bd10      	pop	{r4, pc}

08008866 <__swrite>:
 8008866:	e92d 41f0 	stmdb	sp!, {r4, r5, r6, r7, r8, lr}
 800886a:	461f      	mov	r7, r3
 800886c:	898b      	ldrh	r3, [r1, #12]
 800886e:	05db      	lsls	r3, r3, #23
 8008870:	4605      	mov	r5, r0
 8008872:	460c      	mov	r4, r1
 8008874:	4616      	mov	r6, r2
 8008876:	d505      	bpl.n	8008884 <__swrite+0x1e>
 8008878:	f9b1 100e 	ldrsh.w	r1, [r1, #14]
 800887c:	2302      	movs	r3, #2
 800887e:	2200      	movs	r2, #0
 8008880:	f000 f858 	bl	8008934 <_lseek_r>
 8008884:	89a3      	ldrh	r3, [r4, #12]
 8008886:	f9b4 100e 	ldrsh.w	r1, [r4, #14]
 800888a:	f423 5380 	bic.w	r3, r3, #4096	; 0x1000
 800888e:	81a3      	strh	r3, [r4, #12]
 8008890:	4632      	mov	r2, r6
 8008892:	463b      	mov	r3, r7
 8008894:	4628      	mov	r0, r5
 8008896:	e8bd 41f0 	ldmia.w	sp!, {r4, r5, r6, r7, r8, lr}
 800889a:	f000 b817 	b.w	80088cc <_write_r>

0800889e <__sseek>:
 800889e:	b510      	push	{r4, lr}
 80088a0:	460c      	mov	r4, r1
 80088a2:	f9b1 100e 	ldrsh.w	r1, [r1, #14]
 80088a6:	f000 f845 	bl	8008934 <_lseek_r>
 80088aa:	1c43      	adds	r3, r0, #1
 80088ac:	89a3      	ldrh	r3, [r4, #12]
 80088ae:	bf15      	itete	ne
 80088b0:	6560      	strne	r0, [r4, #84]	; 0x54
 80088b2:	f423 5380 	biceq.w	r3, r3, #4096	; 0x1000
 80088b6:	f443 5380 	orrne.w	r3, r3, #4096	; 0x1000
 80088ba:	81a3      	strheq	r3, [r4, #12]
 80088bc:	bf18      	it	ne
 80088be:	81a3      	strhne	r3, [r4, #12]
 80088c0:	bd10      	pop	{r4, pc}

080088c2 <__sclose>:
 80088c2:	f9b1 100e 	ldrsh.w	r1, [r1, #14]
 80088c6:	f000 b813 	b.w	80088f0 <_close_r>
	...

080088cc <_write_r>:
 80088cc:	b538      	push	{r3, r4, r5, lr}
 80088ce:	4d07      	ldr	r5, [pc, #28]	; (80088ec <_write_r+0x20>)
 80088d0:	4604      	mov	r4, r0
 80088d2:	4608      	mov	r0, r1
 80088d4:	4611      	mov	r1, r2
 80088d6:	2200      	movs	r2, #0
 80088d8:	602a      	str	r2, [r5, #0]
 80088da:	461a      	mov	r2, r3
 80088dc:	f7f9 fbfc 	bl	80020d8 <_write>
 80088e0:	1c43      	adds	r3, r0, #1
 80088e2:	d102      	bne.n	80088ea <_write_r+0x1e>
 80088e4:	682b      	ldr	r3, [r5, #0]
 80088e6:	b103      	cbz	r3, 80088ea <_write_r+0x1e>
 80088e8:	6023      	str	r3, [r4, #0]
 80088ea:	bd38      	pop	{r3, r4, r5, pc}
 80088ec:	24000e78 	.word	0x24000e78

080088f0 <_close_r>:
 80088f0:	b538      	push	{r3, r4, r5, lr}
 80088f2:	4d06      	ldr	r5, [pc, #24]	; (800890c <_close_r+0x1c>)
 80088f4:	2300      	movs	r3, #0
 80088f6:	4604      	mov	r4, r0
 80088f8:	4608      	mov	r0, r1
 80088fa:	602b      	str	r3, [r5, #0]
 80088fc:	f7f9 fc06 	bl	800210c <_close>
 8008900:	1c43      	adds	r3, r0, #1
 8008902:	d102      	bne.n	800890a <_close_r+0x1a>
 8008904:	682b      	ldr	r3, [r5, #0]
 8008906:	b103      	cbz	r3, 800890a <_close_r+0x1a>
 8008908:	6023      	str	r3, [r4, #0]
 800890a:	bd38      	pop	{r3, r4, r5, pc}
 800890c:	24000e78 	.word	0x24000e78

08008910 <_fstat_r>:
 8008910:	b538      	push	{r3, r4, r5, lr}
 8008912:	4d07      	ldr	r5, [pc, #28]	; (8008930 <_fstat_r+0x20>)
 8008914:	2300      	movs	r3, #0
 8008916:	4604      	mov	r4, r0
 8008918:	4608      	mov	r0, r1
 800891a:	4611      	mov	r1, r2
 800891c:	602b      	str	r3, [r5, #0]
 800891e:	f7f9 fc19 	bl	8002154 <_fstat>
 8008922:	1c43      	adds	r3, r0, #1
 8008924:	d102      	bne.n	800892c <_fstat_r+0x1c>
 8008926:	682b      	ldr	r3, [r5, #0]
 8008928:	b103      	cbz	r3, 800892c <_fstat_r+0x1c>
 800892a:	6023      	str	r3, [r4, #0]
 800892c:	bd38      	pop	{r3, r4, r5, pc}
 800892e:	bf00      	nop
 8008930:	24000e78 	.word	0x24000e78

08008934 <_lseek_r>:
 8008934:	b538      	push	{r3, r4, r5, lr}
 8008936:	4d07      	ldr	r5, [pc, #28]	; (8008954 <_lseek_r+0x20>)
 8008938:	4604      	mov	r4, r0
 800893a:	4608      	mov	r0, r1
 800893c:	4611      	mov	r1, r2
 800893e:	2200      	movs	r2, #0
 8008940:	602a      	str	r2, [r5, #0]
 8008942:	461a      	mov	r2, r3
 8008944:	f7f9 ff30 	bl	80027a8 <_lseek>
 8008948:	1c43      	adds	r3, r0, #1
 800894a:	d102      	bne.n	8008952 <_lseek_r+0x1e>
 800894c:	682b      	ldr	r3, [r5, #0]
 800894e:	b103      	cbz	r3, 8008952 <_lseek_r+0x1e>
 8008950:	6023      	str	r3, [r4, #0]
 8008952:	bd38      	pop	{r3, r4, r5, pc}
 8008954:	24000e78 	.word	0x24000e78

08008958 <__malloc_lock>:
 8008958:	4801      	ldr	r0, [pc, #4]	; (8008960 <__malloc_lock+0x8>)
 800895a:	f7ff be53 	b.w	8008604 <__retarget_lock_acquire_recursive>
 800895e:	bf00      	nop
 8008960:	24000e6c 	.word	0x24000e6c

08008964 <__malloc_unlock>:
 8008964:	4801      	ldr	r0, [pc, #4]	; (800896c <__malloc_unlock+0x8>)
 8008966:	f7ff be4e 	b.w	8008606 <__retarget_lock_release_recursive>
 800896a:	bf00      	nop
 800896c:	24000e6c 	.word	0x24000e6c

08008970 <_read_r>:
 8008970:	b538      	push	{r3, r4, r5, lr}
 8008972:	4d07      	ldr	r5, [pc, #28]	; (8008990 <_read_r+0x20>)
 8008974:	4604      	mov	r4, r0
 8008976:	4608      	mov	r0, r1
 8008978:	4611      	mov	r1, r2
 800897a:	2200      	movs	r2, #0
 800897c:	602a      	str	r2, [r5, #0]
 800897e:	461a      	mov	r2, r3
 8008980:	f7f9 fbd0 	bl	8002124 <_read>
 8008984:	1c43      	adds	r3, r0, #1
 8008986:	d102      	bne.n	800898e <_read_r+0x1e>
 8008988:	682b      	ldr	r3, [r5, #0]
 800898a:	b103      	cbz	r3, 800898e <_read_r+0x1e>
 800898c:	6023      	str	r3, [r4, #0]
 800898e:	bd38      	pop	{r3, r4, r5, pc}
 8008990:	24000e78 	.word	0x24000e78

08008994 <_init>:
 8008994:	b5f8      	push	{r3, r4, r5, r6, r7, lr}
 8008996:	bf00      	nop
 8008998:	bcf8      	pop	{r3, r4, r5, r6, r7}
 800899a:	bc08      	pop	{r3}
 800899c:	469e      	mov	lr, r3
 800899e:	4770      	bx	lr

080089a0 <_fini>:
 80089a0:	b5f8      	push	{r3, r4, r5, r6, r7, lr}
 80089a2:	bf00      	nop
 80089a4:	bcf8      	pop	{r3, r4, r5, r6, r7}
 80089a6:	bc08      	pop	{r3}
 80089a8:	469e      	mov	lr, r3
 80089aa:	4770      	bx	lr
